Archive member included to satisfy reference by file (symbol)

../src/ASF/thirdparty/wireless/ble_smart_sdk/lib/cm0/gcc\libblusdk.a(event.o)
                              src/ASF/thirdparty/wireless/ble_smart_sdk/ble_services/ble_mgr/ble_manager.o (at_ble_event_get)
../src/ASF/thirdparty/wireless/ble_smart_sdk/lib/cm0/gcc\libblusdk.a(gap.o)
                              src/ASF/thirdparty/wireless/ble_smart_sdk/ble_services/ble_mgr/ble_manager.o (at_ble_device_name_set)
../src/ASF/thirdparty/wireless/ble_smart_sdk/lib/cm0/gcc\libblusdk.a(gatt_client.o)
                              ../src/ASF/thirdparty/wireless/ble_smart_sdk/lib/cm0/gcc\libblusdk.a(gap.o) (init_gatt_client_module)
../src/ASF/thirdparty/wireless/ble_smart_sdk/lib/cm0/gcc\libblusdk.a(gatt_server.o)
                              ../src/ASF/thirdparty/wireless/ble_smart_sdk/lib/cm0/gcc\libblusdk.a(gap.o) (initi_gatt_server_module)
../src/ASF/thirdparty/wireless/ble_smart_sdk/lib/cm0/gcc\libblusdk.a(l2cc_task.o)
                              ../src/ASF/thirdparty/wireless/ble_smart_sdk/lib/cm0/gcc\libblusdk.a(gap.o) (init_l2cc_task_module)
../src/ASF/thirdparty/wireless/ble_smart_sdk/lib/cm0/gcc\libblusdk.a(security.o)
                              src/ASF/thirdparty/wireless/ble_smart_sdk/ble_services/ble_mgr/ble_manager.o (at_ble_authenticate)
../src/ASF/thirdparty/wireless/ble_smart_sdk/lib/cm0/gcc\libblusdk.a(interface.o)
                              ../src/ASF/thirdparty/wireless/ble_smart_sdk/lib/cm0/gcc\libblusdk.a(gap.o) (rx_callback)
../src/ASF/thirdparty/wireless/ble_smart_sdk/lib/cm0/gcc\libblusdk.a(calib_task.o)
                              ../src/ASF/thirdparty/wireless/ble_smart_sdk/lib/cm0/gcc\libblusdk.a(gap.o) (calib_config)
../src/ASF/thirdparty/wireless/ble_smart_sdk/lib/cm0/gcc\libblusdk.a(dbg_task.o)
                              ../src/ASF/thirdparty/wireless/ble_smart_sdk/lib/cm0/gcc\libblusdk.a(gap.o) (dbg_le_set_bd_addr_req_handler)
../src/ASF/thirdparty/wireless/ble_smart_sdk/lib/cm0/gcc\libblusdk.a(gapc_task.o)
                              ../src/ASF/thirdparty/wireless/ble_smart_sdk/lib/cm0/gcc\libblusdk.a(security.o) (check_ConnData_idx_role)
../src/ASF/thirdparty/wireless/ble_smart_sdk/lib/cm0/gcc\libblusdk.a(gapm_task.o)
                              ../src/ASF/thirdparty/wireless/ble_smart_sdk/lib/cm0/gcc\libblusdk.a(gap.o) (gapm_reset_req_handler)
../src/ASF/thirdparty/wireless/ble_smart_sdk/lib/cm0/gcc\libblusdk.a(gattc_task.o)
                              ../src/ASF/thirdparty/wireless/ble_smart_sdk/lib/cm0/gcc\libblusdk.a(gatt_server.o) (gattc_read_req_ind_parser)
../src/ASF/thirdparty/wireless/ble_smart_sdk/lib/cm0/gcc\libblusdk.a(gattm_task.o)
                              ../src/ASF/thirdparty/wireless/ble_smart_sdk/lib/cm0/gcc\libblusdk.a(gatt_server.o) (gattm_add_svc_req_handler)
../src/ASF/thirdparty/wireless/ble_smart_sdk/lib/cm0/gcc\libblusdk.a(htpt_task.o)
                              ../src/ASF/thirdparty/wireless/ble_smart_sdk/lib/cm0/gcc\libblusdk.a(event.o) (htpt_enable_rsp_handler)
c:/program files (x86)/atmel/studio/7.0/toolchain/arm/arm-gnu-toolchain/bin/../lib/gcc/arm-none-eabi/5.3.1/../../../../arm-none-eabi/lib/armv6-m\libm.a(lib_a-w_pow.o)
                              src/sms_v_0_2/src/sms_mpu.o (pow)
c:/program files (x86)/atmel/studio/7.0/toolchain/arm/arm-gnu-toolchain/bin/../lib/gcc/arm-none-eabi/5.3.1/../../../../arm-none-eabi/lib/armv6-m\libm.a(lib_a-wf_sqrt.o)
                              src/ASF/thirdparty/sensor/mpu9250_kriswiner/quaternion_ahrs.o (sqrtf)
c:/program files (x86)/atmel/studio/7.0/toolchain/arm/arm-gnu-toolchain/bin/../lib/gcc/arm-none-eabi/5.3.1/../../../../arm-none-eabi/lib/armv6-m\libm.a(lib_a-e_pow.o)
                              c:/program files (x86)/atmel/studio/7.0/toolchain/arm/arm-gnu-toolchain/bin/../lib/gcc/arm-none-eabi/5.3.1/../../../../arm-none-eabi/lib/armv6-m\libm.a(lib_a-w_pow.o) (__ieee754_pow)
c:/program files (x86)/atmel/studio/7.0/toolchain/arm/arm-gnu-toolchain/bin/../lib/gcc/arm-none-eabi/5.3.1/../../../../arm-none-eabi/lib/armv6-m\libm.a(lib_a-e_sqrt.o)
                              c:/program files (x86)/atmel/studio/7.0/toolchain/arm/arm-gnu-toolchain/bin/../lib/gcc/arm-none-eabi/5.3.1/../../../../arm-none-eabi/lib/armv6-m\libm.a(lib_a-e_pow.o) (__ieee754_sqrt)
c:/program files (x86)/atmel/studio/7.0/toolchain/arm/arm-gnu-toolchain/bin/../lib/gcc/arm-none-eabi/5.3.1/../../../../arm-none-eabi/lib/armv6-m\libm.a(lib_a-ef_sqrt.o)
                              c:/program files (x86)/atmel/studio/7.0/toolchain/arm/arm-gnu-toolchain/bin/../lib/gcc/arm-none-eabi/5.3.1/../../../../arm-none-eabi/lib/armv6-m\libm.a(lib_a-wf_sqrt.o) (__ieee754_sqrtf)
c:/program files (x86)/atmel/studio/7.0/toolchain/arm/arm-gnu-toolchain/bin/../lib/gcc/arm-none-eabi/5.3.1/../../../../arm-none-eabi/lib/armv6-m\libm.a(lib_a-s_fabs.o)
                              c:/program files (x86)/atmel/studio/7.0/toolchain/arm/arm-gnu-toolchain/bin/../lib/gcc/arm-none-eabi/5.3.1/../../../../arm-none-eabi/lib/armv6-m\libm.a(lib_a-e_pow.o) (fabs)
c:/program files (x86)/atmel/studio/7.0/toolchain/arm/arm-gnu-toolchain/bin/../lib/gcc/arm-none-eabi/5.3.1/../../../../arm-none-eabi/lib/armv6-m\libm.a(lib_a-s_finite.o)
                              c:/program files (x86)/atmel/studio/7.0/toolchain/arm/arm-gnu-toolchain/bin/../lib/gcc/arm-none-eabi/5.3.1/../../../../arm-none-eabi/lib/armv6-m\libm.a(lib_a-w_pow.o) (finite)
c:/program files (x86)/atmel/studio/7.0/toolchain/arm/arm-gnu-toolchain/bin/../lib/gcc/arm-none-eabi/5.3.1/../../../../arm-none-eabi/lib/armv6-m\libm.a(lib_a-s_lib_ver.o)
                              c:/program files (x86)/atmel/studio/7.0/toolchain/arm/arm-gnu-toolchain/bin/../lib/gcc/arm-none-eabi/5.3.1/../../../../arm-none-eabi/lib/armv6-m\libm.a(lib_a-w_pow.o) (__fdlib_version)
c:/program files (x86)/atmel/studio/7.0/toolchain/arm/arm-gnu-toolchain/bin/../lib/gcc/arm-none-eabi/5.3.1/../../../../arm-none-eabi/lib/armv6-m\libm.a(lib_a-s_matherr.o)
                              c:/program files (x86)/atmel/studio/7.0/toolchain/arm/arm-gnu-toolchain/bin/../lib/gcc/arm-none-eabi/5.3.1/../../../../arm-none-eabi/lib/armv6-m\libm.a(lib_a-w_pow.o) (matherr)
c:/program files (x86)/atmel/studio/7.0/toolchain/arm/arm-gnu-toolchain/bin/../lib/gcc/arm-none-eabi/5.3.1/../../../../arm-none-eabi/lib/armv6-m\libm.a(lib_a-s_nan.o)
                              c:/program files (x86)/atmel/studio/7.0/toolchain/arm/arm-gnu-toolchain/bin/../lib/gcc/arm-none-eabi/5.3.1/../../../../arm-none-eabi/lib/armv6-m\libm.a(lib_a-e_pow.o) (nan)
c:/program files (x86)/atmel/studio/7.0/toolchain/arm/arm-gnu-toolchain/bin/../lib/gcc/arm-none-eabi/5.3.1/../../../../arm-none-eabi/lib/armv6-m\libm.a(lib_a-s_rint.o)
                              c:/program files (x86)/atmel/studio/7.0/toolchain/arm/arm-gnu-toolchain/bin/../lib/gcc/arm-none-eabi/5.3.1/../../../../arm-none-eabi/lib/armv6-m\libm.a(lib_a-w_pow.o) (rint)
c:/program files (x86)/atmel/studio/7.0/toolchain/arm/arm-gnu-toolchain/bin/../lib/gcc/arm-none-eabi/5.3.1/../../../../arm-none-eabi/lib/armv6-m\libm.a(lib_a-s_scalbn.o)
                              c:/program files (x86)/atmel/studio/7.0/toolchain/arm/arm-gnu-toolchain/bin/../lib/gcc/arm-none-eabi/5.3.1/../../../../arm-none-eabi/lib/armv6-m\libm.a(lib_a-e_pow.o) (scalbn)
c:/program files (x86)/atmel/studio/7.0/toolchain/arm/arm-gnu-toolchain/bin/../lib/gcc/arm-none-eabi/5.3.1/../../../../arm-none-eabi/lib/armv6-m\libm.a(lib_a-s_copysign.o)
                              c:/program files (x86)/atmel/studio/7.0/toolchain/arm/arm-gnu-toolchain/bin/../lib/gcc/arm-none-eabi/5.3.1/../../../../arm-none-eabi/lib/armv6-m\libm.a(lib_a-s_scalbn.o) (copysign)
c:/program files (x86)/atmel/studio/7.0/toolchain/arm/arm-gnu-toolchain/bin/../lib/gcc/arm-none-eabi/5.3.1/armv6-m\libgcc.a(_thumb1_case_sqi.o)
                              ../src/ASF/thirdparty/wireless/ble_smart_sdk/lib/cm0/gcc\libblusdk.a(gap.o) (__gnu_thumb1_case_sqi)
c:/program files (x86)/atmel/studio/7.0/toolchain/arm/arm-gnu-toolchain/bin/../lib/gcc/arm-none-eabi/5.3.1/armv6-m\libgcc.a(_thumb1_case_uqi.o)
                              src/sms_v_0_2/src/sms_ble.o (__gnu_thumb1_case_uqi)
c:/program files (x86)/atmel/studio/7.0/toolchain/arm/arm-gnu-toolchain/bin/../lib/gcc/arm-none-eabi/5.3.1/armv6-m\libgcc.a(_thumb1_case_uhi.o)
                              src/ASF/sam0/drivers/system/system_sam_b.o (__gnu_thumb1_case_uhi)
c:/program files (x86)/atmel/studio/7.0/toolchain/arm/arm-gnu-toolchain/bin/../lib/gcc/arm-none-eabi/5.3.1/armv6-m\libgcc.a(_udivsi3.o)
                              src/sms_v_0_2/src/sms_mpu.o (__aeabi_uidiv)
c:/program files (x86)/atmel/studio/7.0/toolchain/arm/arm-gnu-toolchain/bin/../lib/gcc/arm-none-eabi/5.3.1/armv6-m\libgcc.a(_divsi3.o)
                              src/sms_v_0_2/src/sms_mpu.o (__aeabi_idiv)
c:/program files (x86)/atmel/studio/7.0/toolchain/arm/arm-gnu-toolchain/bin/../lib/gcc/arm-none-eabi/5.3.1/armv6-m\libgcc.a(_dvmd_tls.o)
                              c:/program files (x86)/atmel/studio/7.0/toolchain/arm/arm-gnu-toolchain/bin/../lib/gcc/arm-none-eabi/5.3.1/armv6-m\libgcc.a(_udivsi3.o) (__aeabi_idiv0)
c:/program files (x86)/atmel/studio/7.0/toolchain/arm/arm-gnu-toolchain/bin/../lib/gcc/arm-none-eabi/5.3.1/armv6-m\libgcc.a(_arm_cmpdf2.o)
                              c:/program files (x86)/atmel/studio/7.0/toolchain/arm/arm-gnu-toolchain/bin/../lib/gcc/arm-none-eabi/5.3.1/../../../../arm-none-eabi/lib/armv6-m\libm.a(lib_a-w_pow.o) (__aeabi_dcmpeq)
c:/program files (x86)/atmel/studio/7.0/toolchain/arm/arm-gnu-toolchain/bin/../lib/gcc/arm-none-eabi/5.3.1/armv6-m\libgcc.a(_arm_cmpsf2.o)
                              src/ASF/thirdparty/sensor/mpu9250_kriswiner/quaternion_ahrs.o (__aeabi_fcmpeq)
c:/program files (x86)/atmel/studio/7.0/toolchain/arm/arm-gnu-toolchain/bin/../lib/gcc/arm-none-eabi/5.3.1/armv6-m\libgcc.a(_muldi3.o)
                              src/sms_v_0_2/src/sms_pressure.o (__aeabi_lmul)
c:/program files (x86)/atmel/studio/7.0/toolchain/arm/arm-gnu-toolchain/bin/../lib/gcc/arm-none-eabi/5.3.1/armv6-m\libgcc.a(_fixunssfsi.o)
                              src/sms_v_0_2/src/sms_ble.o (__aeabi_f2uiz)
c:/program files (x86)/atmel/studio/7.0/toolchain/arm/arm-gnu-toolchain/bin/../lib/gcc/arm-none-eabi/5.3.1/armv6-m\libgcc.a(_fixunsdfsi.o)
                              src/ASF/thirdparty/wireless/ble_smart_sdk/services/uart/console_serial.o (__aeabi_d2uiz)
c:/program files (x86)/atmel/studio/7.0/toolchain/arm/arm-gnu-toolchain/bin/../lib/gcc/arm-none-eabi/5.3.1/armv6-m\libgcc.a(addsf3.o)
                              src/ASF/thirdparty/sensor/mpu9250_kriswiner/quaternion_ahrs.o (__aeabi_fadd)
c:/program files (x86)/atmel/studio/7.0/toolchain/arm/arm-gnu-toolchain/bin/../lib/gcc/arm-none-eabi/5.3.1/armv6-m\libgcc.a(divsf3.o)
                              src/ASF/thirdparty/sensor/mpu9250_kriswiner/quaternion_ahrs.o (__aeabi_fdiv)
c:/program files (x86)/atmel/studio/7.0/toolchain/arm/arm-gnu-toolchain/bin/../lib/gcc/arm-none-eabi/5.3.1/armv6-m\libgcc.a(eqsf2.o)
                              c:/program files (x86)/atmel/studio/7.0/toolchain/arm/arm-gnu-toolchain/bin/../lib/gcc/arm-none-eabi/5.3.1/armv6-m\libgcc.a(_arm_cmpsf2.o) (__eqsf2)
c:/program files (x86)/atmel/studio/7.0/toolchain/arm/arm-gnu-toolchain/bin/../lib/gcc/arm-none-eabi/5.3.1/armv6-m\libgcc.a(gesf2.o)
                              c:/program files (x86)/atmel/studio/7.0/toolchain/arm/arm-gnu-toolchain/bin/../lib/gcc/arm-none-eabi/5.3.1/armv6-m\libgcc.a(_arm_cmpsf2.o) (__gesf2)
c:/program files (x86)/atmel/studio/7.0/toolchain/arm/arm-gnu-toolchain/bin/../lib/gcc/arm-none-eabi/5.3.1/armv6-m\libgcc.a(lesf2.o)
                              c:/program files (x86)/atmel/studio/7.0/toolchain/arm/arm-gnu-toolchain/bin/../lib/gcc/arm-none-eabi/5.3.1/armv6-m\libgcc.a(_arm_cmpsf2.o) (__lesf2)
c:/program files (x86)/atmel/studio/7.0/toolchain/arm/arm-gnu-toolchain/bin/../lib/gcc/arm-none-eabi/5.3.1/armv6-m\libgcc.a(mulsf3.o)
                              src/ASF/thirdparty/sensor/mpu9250_kriswiner/quaternion_ahrs.o (__aeabi_fmul)
c:/program files (x86)/atmel/studio/7.0/toolchain/arm/arm-gnu-toolchain/bin/../lib/gcc/arm-none-eabi/5.3.1/armv6-m\libgcc.a(subsf3.o)
                              src/ASF/thirdparty/sensor/mpu9250_kriswiner/quaternion_ahrs.o (__aeabi_fsub)
c:/program files (x86)/atmel/studio/7.0/toolchain/arm/arm-gnu-toolchain/bin/../lib/gcc/arm-none-eabi/5.3.1/armv6-m\libgcc.a(unordsf2.o)
                              c:/program files (x86)/atmel/studio/7.0/toolchain/arm/arm-gnu-toolchain/bin/../lib/gcc/arm-none-eabi/5.3.1/../../../../arm-none-eabi/lib/armv6-m\libm.a(lib_a-wf_sqrt.o) (__aeabi_fcmpun)
c:/program files (x86)/atmel/studio/7.0/toolchain/arm/arm-gnu-toolchain/bin/../lib/gcc/arm-none-eabi/5.3.1/armv6-m\libgcc.a(fixsfsi.o)
                              c:/program files (x86)/atmel/studio/7.0/toolchain/arm/arm-gnu-toolchain/bin/../lib/gcc/arm-none-eabi/5.3.1/armv6-m\libgcc.a(_fixunssfsi.o) (__aeabi_f2iz)
c:/program files (x86)/atmel/studio/7.0/toolchain/arm/arm-gnu-toolchain/bin/../lib/gcc/arm-none-eabi/5.3.1/armv6-m\libgcc.a(floatsisf.o)
                              src/sms_v_0_2/src/sms_mpu.o (__aeabi_i2f)
c:/program files (x86)/atmel/studio/7.0/toolchain/arm/arm-gnu-toolchain/bin/../lib/gcc/arm-none-eabi/5.3.1/armv6-m\libgcc.a(floatunsisf.o)
                              src/sms_v_0_2/src/sms_mpu.o (__aeabi_ui2f)
c:/program files (x86)/atmel/studio/7.0/toolchain/arm/arm-gnu-toolchain/bin/../lib/gcc/arm-none-eabi/5.3.1/armv6-m\libgcc.a(adddf3.o)
                              src/sms_v_0_2/src/sms_mpu.o (__aeabi_dadd)
c:/program files (x86)/atmel/studio/7.0/toolchain/arm/arm-gnu-toolchain/bin/../lib/gcc/arm-none-eabi/5.3.1/armv6-m\libgcc.a(divdf3.o)
                              src/sms_v_0_2/src/sms_mpu.o (__aeabi_ddiv)
c:/program files (x86)/atmel/studio/7.0/toolchain/arm/arm-gnu-toolchain/bin/../lib/gcc/arm-none-eabi/5.3.1/armv6-m\libgcc.a(eqdf2.o)
                              c:/program files (x86)/atmel/studio/7.0/toolchain/arm/arm-gnu-toolchain/bin/../lib/gcc/arm-none-eabi/5.3.1/armv6-m\libgcc.a(_arm_cmpdf2.o) (__eqdf2)
c:/program files (x86)/atmel/studio/7.0/toolchain/arm/arm-gnu-toolchain/bin/../lib/gcc/arm-none-eabi/5.3.1/armv6-m\libgcc.a(gedf2.o)
                              c:/program files (x86)/atmel/studio/7.0/toolchain/arm/arm-gnu-toolchain/bin/../lib/gcc/arm-none-eabi/5.3.1/armv6-m\libgcc.a(_arm_cmpdf2.o) (__gedf2)
c:/program files (x86)/atmel/studio/7.0/toolchain/arm/arm-gnu-toolchain/bin/../lib/gcc/arm-none-eabi/5.3.1/armv6-m\libgcc.a(ledf2.o)
                              c:/program files (x86)/atmel/studio/7.0/toolchain/arm/arm-gnu-toolchain/bin/../lib/gcc/arm-none-eabi/5.3.1/armv6-m\libgcc.a(_arm_cmpdf2.o) (__ledf2)
c:/program files (x86)/atmel/studio/7.0/toolchain/arm/arm-gnu-toolchain/bin/../lib/gcc/arm-none-eabi/5.3.1/armv6-m\libgcc.a(muldf3.o)
                              src/ASF/thirdparty/sensor/mpu9250_kriswiner/quaternion_ahrs.o (__aeabi_dmul)
c:/program files (x86)/atmel/studio/7.0/toolchain/arm/arm-gnu-toolchain/bin/../lib/gcc/arm-none-eabi/5.3.1/armv6-m\libgcc.a(subdf3.o)
                              src/ASF/thirdparty/sensor/mpu9250_kriswiner/quaternion_ahrs.o (__aeabi_dsub)
c:/program files (x86)/atmel/studio/7.0/toolchain/arm/arm-gnu-toolchain/bin/../lib/gcc/arm-none-eabi/5.3.1/armv6-m\libgcc.a(unorddf2.o)
                              c:/program files (x86)/atmel/studio/7.0/toolchain/arm/arm-gnu-toolchain/bin/../lib/gcc/arm-none-eabi/5.3.1/../../../../arm-none-eabi/lib/armv6-m\libm.a(lib_a-w_pow.o) (__aeabi_dcmpun)
c:/program files (x86)/atmel/studio/7.0/toolchain/arm/arm-gnu-toolchain/bin/../lib/gcc/arm-none-eabi/5.3.1/armv6-m\libgcc.a(fixdfsi.o)
                              c:/program files (x86)/atmel/studio/7.0/toolchain/arm/arm-gnu-toolchain/bin/../lib/gcc/arm-none-eabi/5.3.1/armv6-m\libgcc.a(_fixunsdfsi.o) (__aeabi_d2iz)
c:/program files (x86)/atmel/studio/7.0/toolchain/arm/arm-gnu-toolchain/bin/../lib/gcc/arm-none-eabi/5.3.1/armv6-m\libgcc.a(floatsidf.o)
                              c:/program files (x86)/atmel/studio/7.0/toolchain/arm/arm-gnu-toolchain/bin/../lib/gcc/arm-none-eabi/5.3.1/../../../../arm-none-eabi/lib/armv6-m\libm.a(lib_a-e_pow.o) (__aeabi_i2d)
c:/program files (x86)/atmel/studio/7.0/toolchain/arm/arm-gnu-toolchain/bin/../lib/gcc/arm-none-eabi/5.3.1/armv6-m\libgcc.a(floatunsidf.o)
                              src/ASF/thirdparty/wireless/ble_smart_sdk/services/uart/console_serial.o (__aeabi_ui2d)
c:/program files (x86)/atmel/studio/7.0/toolchain/arm/arm-gnu-toolchain/bin/../lib/gcc/arm-none-eabi/5.3.1/armv6-m\libgcc.a(extendsfdf2.o)
                              src/ASF/thirdparty/sensor/mpu9250_kriswiner/quaternion_ahrs.o (__aeabi_f2d)
c:/program files (x86)/atmel/studio/7.0/toolchain/arm/arm-gnu-toolchain/bin/../lib/gcc/arm-none-eabi/5.3.1/armv6-m\libgcc.a(truncdfsf2.o)
                              src/ASF/thirdparty/sensor/mpu9250_kriswiner/quaternion_ahrs.o (__aeabi_d2f)
c:/program files (x86)/atmel/studio/7.0/toolchain/arm/arm-gnu-toolchain/bin/../lib/gcc/arm-none-eabi/5.3.1/armv6-m\libgcc.a(_clzsi2.o)
                              c:/program files (x86)/atmel/studio/7.0/toolchain/arm/arm-gnu-toolchain/bin/../lib/gcc/arm-none-eabi/5.3.1/armv6-m\libgcc.a(addsf3.o) (__clzsi2)
c:/program files (x86)/atmel/studio/7.0/toolchain/arm/arm-gnu-toolchain/bin/../lib/gcc/arm-none-eabi/5.3.1/../../../../arm-none-eabi/lib/armv6-m\libc_nano.a(lib_a-errno.o)
                              c:/program files (x86)/atmel/studio/7.0/toolchain/arm/arm-gnu-toolchain/bin/../lib/gcc/arm-none-eabi/5.3.1/../../../../arm-none-eabi/lib/armv6-m\libm.a(lib_a-w_pow.o) (__errno)
c:/program files (x86)/atmel/studio/7.0/toolchain/arm/arm-gnu-toolchain/bin/../lib/gcc/arm-none-eabi/5.3.1/../../../../arm-none-eabi/lib/armv6-m\libc_nano.a(lib_a-exit.o)
                              c:/program files (x86)/atmel/studio/7.0/toolchain/arm/arm-gnu-toolchain/bin/../lib/gcc/arm-none-eabi/5.3.1/../../../../arm-none-eabi/lib/armv6-m/crt0.o (exit)
c:/program files (x86)/atmel/studio/7.0/toolchain/arm/arm-gnu-toolchain/bin/../lib/gcc/arm-none-eabi/5.3.1/../../../../arm-none-eabi/lib/armv6-m\libc_nano.a(lib_a-impure.o)
                              c:/program files (x86)/atmel/studio/7.0/toolchain/arm/arm-gnu-toolchain/bin/../lib/gcc/arm-none-eabi/5.3.1/../../../../arm-none-eabi/lib/armv6-m\libc_nano.a(lib_a-exit.o) (_global_impure_ptr)
c:/program files (x86)/atmel/studio/7.0/toolchain/arm/arm-gnu-toolchain/bin/../lib/gcc/arm-none-eabi/5.3.1/../../../../arm-none-eabi/lib/armv6-m\libc_nano.a(lib_a-init.o)
                              c:/program files (x86)/atmel/studio/7.0/toolchain/arm/arm-gnu-toolchain/bin/../lib/gcc/arm-none-eabi/5.3.1/../../../../arm-none-eabi/lib/armv6-m/crt0.o (__libc_init_array)
c:/program files (x86)/atmel/studio/7.0/toolchain/arm/arm-gnu-toolchain/bin/../lib/gcc/arm-none-eabi/5.3.1/../../../../arm-none-eabi/lib/armv6-m\libc_nano.a(lib_a-malloc.o)
                              src/sms_v_0_2/src/sms_i2c.o (malloc)
c:/program files (x86)/atmel/studio/7.0/toolchain/arm/arm-gnu-toolchain/bin/../lib/gcc/arm-none-eabi/5.3.1/../../../../arm-none-eabi/lib/armv6-m\libc_nano.a(lib_a-memcmp.o)
                              src/ASF/thirdparty/wireless/ble_smart_sdk/ble_services/ble_mgr/ble_manager.o (memcmp)
c:/program files (x86)/atmel/studio/7.0/toolchain/arm/arm-gnu-toolchain/bin/../lib/gcc/arm-none-eabi/5.3.1/../../../../arm-none-eabi/lib/armv6-m\libc_nano.a(lib_a-memcpy-stub.o)
                              src/ASF/thirdparty/wireless/ble_smart_sdk/ble_profiles/pxp_reporter/pxp_reporter.o (memcpy)
c:/program files (x86)/atmel/studio/7.0/toolchain/arm/arm-gnu-toolchain/bin/../lib/gcc/arm-none-eabi/5.3.1/../../../../arm-none-eabi/lib/armv6-m\libc_nano.a(lib_a-memset.o)
                              c:/program files (x86)/atmel/studio/7.0/toolchain/arm/arm-gnu-toolchain/bin/../lib/gcc/arm-none-eabi/5.3.1/../../../../arm-none-eabi/lib/armv6-m/crt0.o (memset)
c:/program files (x86)/atmel/studio/7.0/toolchain/arm/arm-gnu-toolchain/bin/../lib/gcc/arm-none-eabi/5.3.1/../../../../arm-none-eabi/lib/armv6-m\libc_nano.a(lib_a-nano-freer.o)
                              c:/program files (x86)/atmel/studio/7.0/toolchain/arm/arm-gnu-toolchain/bin/../lib/gcc/arm-none-eabi/5.3.1/../../../../arm-none-eabi/lib/armv6-m\libc_nano.a(lib_a-malloc.o) (_free_r)
c:/program files (x86)/atmel/studio/7.0/toolchain/arm/arm-gnu-toolchain/bin/../lib/gcc/arm-none-eabi/5.3.1/../../../../arm-none-eabi/lib/armv6-m\libc_nano.a(lib_a-nano-mallocr.o)
                              c:/program files (x86)/atmel/studio/7.0/toolchain/arm/arm-gnu-toolchain/bin/../lib/gcc/arm-none-eabi/5.3.1/../../../../arm-none-eabi/lib/armv6-m\libc_nano.a(lib_a-malloc.o) (_malloc_r)
c:/program files (x86)/atmel/studio/7.0/toolchain/arm/arm-gnu-toolchain/bin/../lib/gcc/arm-none-eabi/5.3.1/../../../../arm-none-eabi/lib/armv6-m\libc_nano.a(lib_a-rand.o)
                              src/ASF/thirdparty/wireless/ble_smart_sdk/ble_services/ble_mgr/ble_manager.o (rand)
c:/program files (x86)/atmel/studio/7.0/toolchain/arm/arm-gnu-toolchain/bin/../lib/gcc/arm-none-eabi/5.3.1/../../../../arm-none-eabi/lib/armv6-m\libc_nano.a(lib_a-sbrkr.o)
                              c:/program files (x86)/atmel/studio/7.0/toolchain/arm/arm-gnu-toolchain/bin/../lib/gcc/arm-none-eabi/5.3.1/../../../../arm-none-eabi/lib/armv6-m\libc_nano.a(lib_a-nano-mallocr.o) (_sbrk_r)
c:/program files (x86)/atmel/studio/7.0/toolchain/arm/arm-gnu-toolchain/bin/../lib/gcc/arm-none-eabi/5.3.1/../../../../arm-none-eabi/lib/armv6-m\libc_nano.a(lib_a-setbuf.o)
                              src/ASF/thirdparty/wireless/ble_smart_sdk/services/uart/console_serial.o (setbuf)
c:/program files (x86)/atmel/studio/7.0/toolchain/arm/arm-gnu-toolchain/bin/../lib/gcc/arm-none-eabi/5.3.1/../../../../arm-none-eabi/lib/armv6-m\libc_nano.a(lib_a-setvbuf.o)
                              c:/program files (x86)/atmel/studio/7.0/toolchain/arm/arm-gnu-toolchain/bin/../lib/gcc/arm-none-eabi/5.3.1/../../../../arm-none-eabi/lib/armv6-m\libc_nano.a(lib_a-setbuf.o) (setvbuf)
c:/program files (x86)/atmel/studio/7.0/toolchain/arm/arm-gnu-toolchain/bin/../lib/gcc/arm-none-eabi/5.3.1/../../../../arm-none-eabi/lib/armv6-m\libc_nano.a(lib_a-fflush.o)
                              c:/program files (x86)/atmel/studio/7.0/toolchain/arm/arm-gnu-toolchain/bin/../lib/gcc/arm-none-eabi/5.3.1/../../../../arm-none-eabi/lib/armv6-m\libc_nano.a(lib_a-setvbuf.o) (_fflush_r)
c:/program files (x86)/atmel/studio/7.0/toolchain/arm/arm-gnu-toolchain/bin/../lib/gcc/arm-none-eabi/5.3.1/../../../../arm-none-eabi/lib/armv6-m\libc_nano.a(lib_a-findfp.o)
                              c:/program files (x86)/atmel/studio/7.0/toolchain/arm/arm-gnu-toolchain/bin/../lib/gcc/arm-none-eabi/5.3.1/../../../../arm-none-eabi/lib/armv6-m\libc_nano.a(lib_a-setvbuf.o) (__sinit)
c:/program files (x86)/atmel/studio/7.0/toolchain/arm/arm-gnu-toolchain/bin/../lib/gcc/arm-none-eabi/5.3.1/../../../../arm-none-eabi/lib/armv6-m\libc_nano.a(lib_a-fwalk.o)
                              c:/program files (x86)/atmel/studio/7.0/toolchain/arm/arm-gnu-toolchain/bin/../lib/gcc/arm-none-eabi/5.3.1/../../../../arm-none-eabi/lib/armv6-m\libc_nano.a(lib_a-findfp.o) (_fwalk)
c:/program files (x86)/atmel/studio/7.0/toolchain/arm/arm-gnu-toolchain/bin/../lib/gcc/arm-none-eabi/5.3.1/../../../../arm-none-eabi/lib/armv6-m\libc_nano.a(lib_a-makebuf.o)
                              c:/program files (x86)/atmel/studio/7.0/toolchain/arm/arm-gnu-toolchain/bin/../lib/gcc/arm-none-eabi/5.3.1/../../../../arm-none-eabi/lib/armv6-m\libc_nano.a(lib_a-setvbuf.o) (__swhatbuf_r)
c:/program files (x86)/atmel/studio/7.0/toolchain/arm/arm-gnu-toolchain/bin/../lib/gcc/arm-none-eabi/5.3.1/../../../../arm-none-eabi/lib/armv6-m\libc_nano.a(lib_a-reent.o)
                              c:/program files (x86)/atmel/studio/7.0/toolchain/arm/arm-gnu-toolchain/bin/../lib/gcc/arm-none-eabi/5.3.1/../../../../arm-none-eabi/lib/armv6-m\libc_nano.a(lib_a-sbrkr.o) (errno)
c:/program files (x86)/atmel/studio/7.0/toolchain/arm/arm-gnu-toolchain/bin/../lib/gcc/arm-none-eabi/5.3.1/../../../../arm-none-eabi/lib/armv6-m\libc_nano.a(lib_a-stdio.o)
                              c:/program files (x86)/atmel/studio/7.0/toolchain/arm/arm-gnu-toolchain/bin/../lib/gcc/arm-none-eabi/5.3.1/../../../../arm-none-eabi/lib/armv6-m\libc_nano.a(lib_a-findfp.o) (__sread)
c:/program files (x86)/atmel/studio/7.0/toolchain/arm/arm-gnu-toolchain/bin/../lib/gcc/arm-none-eabi/5.3.1/../../../../arm-none-eabi/lib/armv6-m\libc_nano.a(lib_a-writer.o)
                              c:/program files (x86)/atmel/studio/7.0/toolchain/arm/arm-gnu-toolchain/bin/../lib/gcc/arm-none-eabi/5.3.1/../../../../arm-none-eabi/lib/armv6-m\libc_nano.a(lib_a-stdio.o) (_write_r)
c:/program files (x86)/atmel/studio/7.0/toolchain/arm/arm-gnu-toolchain/bin/../lib/gcc/arm-none-eabi/5.3.1/../../../../arm-none-eabi/lib/armv6-m\libc_nano.a(lib_a-closer.o)
                              c:/program files (x86)/atmel/studio/7.0/toolchain/arm/arm-gnu-toolchain/bin/../lib/gcc/arm-none-eabi/5.3.1/../../../../arm-none-eabi/lib/armv6-m\libc_nano.a(lib_a-stdio.o) (_close_r)
c:/program files (x86)/atmel/studio/7.0/toolchain/arm/arm-gnu-toolchain/bin/../lib/gcc/arm-none-eabi/5.3.1/../../../../arm-none-eabi/lib/armv6-m\libc_nano.a(lib_a-fstatr.o)
                              c:/program files (x86)/atmel/studio/7.0/toolchain/arm/arm-gnu-toolchain/bin/../lib/gcc/arm-none-eabi/5.3.1/../../../../arm-none-eabi/lib/armv6-m\libc_nano.a(lib_a-makebuf.o) (_fstat_r)
c:/program files (x86)/atmel/studio/7.0/toolchain/arm/arm-gnu-toolchain/bin/../lib/gcc/arm-none-eabi/5.3.1/../../../../arm-none-eabi/lib/armv6-m\libc_nano.a(lib_a-isattyr.o)
                              c:/program files (x86)/atmel/studio/7.0/toolchain/arm/arm-gnu-toolchain/bin/../lib/gcc/arm-none-eabi/5.3.1/../../../../arm-none-eabi/lib/armv6-m\libc_nano.a(lib_a-makebuf.o) (_isatty_r)
c:/program files (x86)/atmel/studio/7.0/toolchain/arm/arm-gnu-toolchain/bin/../lib/gcc/arm-none-eabi/5.3.1/../../../../arm-none-eabi/lib/armv6-m\libc_nano.a(lib_a-lseekr.o)
                              c:/program files (x86)/atmel/studio/7.0/toolchain/arm/arm-gnu-toolchain/bin/../lib/gcc/arm-none-eabi/5.3.1/../../../../arm-none-eabi/lib/armv6-m\libc_nano.a(lib_a-stdio.o) (_lseek_r)
c:/program files (x86)/atmel/studio/7.0/toolchain/arm/arm-gnu-toolchain/bin/../lib/gcc/arm-none-eabi/5.3.1/../../../../arm-none-eabi/lib/armv6-m\libc_nano.a(lib_a-readr.o)
                              c:/program files (x86)/atmel/studio/7.0/toolchain/arm/arm-gnu-toolchain/bin/../lib/gcc/arm-none-eabi/5.3.1/../../../../arm-none-eabi/lib/armv6-m\libc_nano.a(lib_a-stdio.o) (_read_r)

Allocating common symbols
Common symbol       size              file

default_samb11_clock_init
                    0x8               src/ASF/thirdparty/wireless/ble_smart_sdk/src/platform_drv.o
event_param_buff_index
                    0x4               ../src/ASF/thirdparty/wireless/ble_smart_sdk/lib/cm0/gcc\libblusdk.a(interface.o)
app_task_type       0x2               ../src/ASF/thirdparty/wireless/ble_smart_sdk/lib/cm0/gcc\libblusdk.a(gap.o)
pathloss_cb         0x4               src/ASF/thirdparty/wireless/ble_smart_sdk/ble_profiles/pxp_reporter/pxp_reporter.o
timer1_current_mode
                    0x1               src/ASF/thirdparty/sensor/mpu9250_kriswiner/quaternion_ahrs.o
dummy_buffer_buff   0x200             ../src/ASF/thirdparty/wireless/ble_smart_sdk/lib/cm0/gcc\libblusdk.a(interface.o)
ble_mgr_htpt_event_cb
                    0x4               src/ASF/thirdparty/wireless/ble_smart_sdk/ble_services/ble_mgr/ble_manager.o
interface_send_msg  0x200             ../src/ASF/thirdparty/wireless/ble_smart_sdk/lib/cm0/gcc\libblusdk.a(interface.o)
rwip_prevent_sleep_set
                    0x4               src/ASF/thirdparty/wireless/ble_smart_sdk/src/platform_drv.o
platform_unregister_isr
                    0x4               src/ASF/thirdparty/wireless/ble_smart_sdk/src/platform_drv.o
system_clock_value  0x4               src/ASF/sam0/drivers/system/system_sam_b.o
uart_instance       0x24              src/ASF/thirdparty/wireless/ble_smart_sdk/services/uart/console_serial.o
errno               0x4               c:/program files (x86)/atmel/studio/7.0/toolchain/arm/arm-gnu-toolchain/bin/../lib/gcc/arm-none-eabi/5.3.1/../../../../arm-none-eabi/lib/armv6-m\libc_nano.a(lib_a-reent.o)
mpu_device          0xe0              src/ASF/thirdparty/sensor/mpu9250_kriswiner/quaternion_ahrs.o
sms_ble_timeout     0x4               src/ASF/thirdparty/sensor/mpu9250_kriswiner/quaternion_ahrs.o
sms_working_mode    0x1               src/ASF/thirdparty/sensor/mpu9250_kriswiner/quaternion_ahrs.o
lls_handle          0x50              src/ASF/thirdparty/wireless/ble_smart_sdk/ble_profiles/pxp_reporter/pxp_reporter.o
ias_handle          0x50              src/ASF/thirdparty/wireless/ble_smart_sdk/ble_profiles/pxp_reporter/pxp_reporter.o
ble_mgr_gatt_server_event_cb
                    0x14              src/ASF/thirdparty/wireless/ble_smart_sdk/ble_services/ble_mgr/ble_manager.o
wakeup_event_pending
                    0x4               src/ASF/thirdparty/wireless/ble_smart_sdk/src/platform_drv.o
ulp_ready           0x1               src/ASF/thirdparty/sensor/mpu9250_kriswiner/quaternion_ahrs.o
ble_instance        0x2               src/ASF/thirdparty/sensor/mpu9250_kriswiner/quaternion_ahrs.o
linkloss_cb         0x4               src/ASF/thirdparty/wireless/ble_smart_sdk/ble_profiles/pxp_reporter/pxp_reporter.o
watched_event       0xc               ../src/ASF/thirdparty/wireless/ble_smart_sdk/lib/cm0/gcc\libblusdk.a(event.o)
sms_connection_handle
                    0x2               src/ASF/thirdparty/sensor/mpu9250_kriswiner/quaternion_ahrs.o
rwip_prevent_sleep_clear
                    0x4               src/ASF/thirdparty/wireless/ble_smart_sdk/src/platform_drv.o
_gpio_instances     0xd8              src/ASF/sam0/drivers/gpio/gpio.o
ptr_get             0x4               src/ASF/sam0/utils/stdio/read.o
ble_dev_info        0x26c             src/ASF/thirdparty/wireless/ble_smart_sdk/ble_services/ble_mgr/ble_manager.o
actualfreq          0x4               src/ASF/thirdparty/wireless/ble_smart_sdk/src/platform_drv.o
connected_cb        0x4               src/ASF/thirdparty/wireless/ble_smart_sdk/ble_profiles/pxp_reporter/pxp_reporter.o
ptr_put             0x4               src/ASF/sam0/utils/stdio/write.o
port_list           0x32              src/ASF/thirdparty/wireless/ble_smart_sdk/src/platform_drv.o
ble_device_count    0x1               src/ASF/thirdparty/wireless/ble_smart_sdk/ble_services/ble_mgr/ble_manager.o
_uart_instances     0x8               src/ASF/sam0/drivers/uart/uart.o
rx_buffer           0x280             src/ASF/thirdparty/wireless/ble_smart_sdk/src/platform_drv.o
button_instance     0x60              src/ASF/thirdparty/sensor/mpu9250_kriswiner/quaternion_ahrs.o
ble_mgr_dtm_event_cb
                    0x14              src/ASF/thirdparty/wireless/ble_smart_sdk/ble_services/ble_mgr/ble_manager.o
linkloss_current_alert_level
                    0x1               src/ASF/thirdparty/wireless/ble_smart_sdk/ble_profiles/pxp_reporter/pxp_reporter.o
ble_mgr_gap_event_cb
                    0x14              src/ASF/thirdparty/wireless/ble_smart_sdk/ble_services/ble_mgr/ble_manager.o
spi_rdata           0x10              src/ASF/thirdparty/sensor/mpu9250_kriswiner/quaternion_ahrs.o
ble_mgr_gatt_client_event_cb
                    0x14              src/ASF/thirdparty/wireless/ble_smart_sdk/ble_services/ble_mgr/ble_manager.o
connected_state_info
                    0x12              src/ASF/thirdparty/wireless/ble_smart_sdk/ble_services/ble_mgr/ble_manager.o
timer1_instance     0x3               src/ASF/thirdparty/sensor/mpu9250_kriswiner/quaternion_ahrs.o
spi_wdata           0x10              src/ASF/thirdparty/sensor/mpu9250_kriswiner/quaternion_ahrs.o
pressure_device     0x84              src/ASF/thirdparty/sensor/mpu9250_kriswiner/quaternion_ahrs.o
gstrConnData        0x90              ../src/ASF/thirdparty/wireless/ble_smart_sdk/lib/cm0/gcc\libblusdk.a(gap.o)
pf_cfg              0x1c              src/ASF/thirdparty/wireless/ble_smart_sdk/ble_services/ble_mgr/ble_manager.o
i2c_rpacket         0x8               src/ASF/thirdparty/sensor/mpu9250_kriswiner/quaternion_ahrs.o
sensors_active      0x1               src/ASF/thirdparty/sensor/mpu9250_kriswiner/quaternion_ahrs.o
sms_ble_ind_retry   0x1               src/ASF/thirdparty/sensor/mpu9250_kriswiner/quaternion_ahrs.o
platform_register_isr
                    0x4               src/ASF/thirdparty/wireless/ble_smart_sdk/src/platform_drv.o
config_uart         0x28              src/ASF/thirdparty/wireless/ble_smart_sdk/services/uart/console_serial.o
sms_ble_conn_handle
                    0x2               src/ASF/thirdparty/sensor/mpu9250_kriswiner/quaternion_ahrs.o
i2c_master_instance
                    0x8               src/ASF/thirdparty/sensor/mpu9250_kriswiner/quaternion_ahrs.o
timer2_instance     0x3               src/ASF/thirdparty/sensor/mpu9250_kriswiner/quaternion_ahrs.o
stdio_base          0x4               src/ASF/sam0/utils/stdio/write.o
presentation_format
                    0x8               src/ASF/thirdparty/wireless/ble_smart_sdk/ble_services/battery/battery.o
handle_ext_wakeup_isr
                    0x4               src/ASF/thirdparty/wireless/ble_smart_sdk/src/platform_drv.o
event               0x1               src/ASF/thirdparty/wireless/ble_smart_sdk/ble_services/ble_mgr/ble_manager.o
ble_mgr_l2cap_event_cb
                    0x4               src/ASF/thirdparty/wireless/ble_smart_sdk/ble_services/ble_mgr/ble_manager.o
timer2_current_mode
                    0x1               src/ASF/thirdparty/sensor/mpu9250_kriswiner/quaternion_ahrs.o
scan_info           0x334             src/ASF/thirdparty/wireless/ble_smart_sdk/ble_services/ble_mgr/ble_manager.o
spi_slave_ms58_instance
                    0x3               src/ASF/thirdparty/sensor/mpu9250_kriswiner/quaternion_ahrs.o
wakeup_source_active_cb
                    0x4               src/ASF/thirdparty/wireless/ble_smart_sdk/src/platform_drv.o
ulp_active          0x1               src/ASF/thirdparty/sensor/mpu9250_kriswiner/quaternion_ahrs.o
i2c_wpacket         0x8               src/ASF/thirdparty/sensor/mpu9250_kriswiner/quaternion_ahrs.o
spi_master_ms58_instance
                    0x8               src/ASF/thirdparty/sensor/mpu9250_kriswiner/quaternion_ahrs.o
samb11_app_resume_cb
                    0x4               src/ASF/thirdparty/wireless/ble_smart_sdk/src/platform_drv.o
updateuartbr_fp     0x4               src/ASF/thirdparty/wireless/ble_smart_sdk/src/platform_drv.o
txps_handle         0x50              src/ASF/thirdparty/wireless/ble_smart_sdk/ble_profiles/pxp_reporter/pxp_reporter.o
apps_resume_cb      0x4               src/ASF/thirdparty/wireless/ble_smart_sdk/src/platform_drv.o
msp                 0x4               src/ASF/thirdparty/sensor/mpu9250_kriswiner/quaternion_ahrs.o
ble_event_params    0x20c             src/ASF/thirdparty/wireless/ble_smart_sdk/ble_services/ble_mgr/ble_manager.o
device              0xd8              ../src/ASF/thirdparty/wireless/ble_smart_sdk/lib/cm0/gcc\libblusdk.a(gap.o)
sms_ble_send_cnt    0x2               src/ASF/thirdparty/sensor/mpu9250_kriswiner/quaternion_ahrs.o
wakeup_source_callback
                    0xc               src/ASF/thirdparty/wireless/ble_smart_sdk/src/port_from_sdk.o
sms_btn_cnt         0x1               src/ASF/thirdparty/sensor/mpu9250_kriswiner/quaternion_ahrs.o
ble_mgr_custom_event_cb
                    0x4               src/ASF/thirdparty/wireless/ble_smart_sdk/ble_services/ble_mgr/ble_manager.o
plf_event_buff_index
                    0x2               src/ASF/thirdparty/wireless/ble_smart_sdk/src/platform_drv.o
psp                 0x4               src/ASF/thirdparty/sensor/mpu9250_kriswiner/quaternion_ahrs.o
sms_led_blink_cnt   0x1               src/ASF/thirdparty/sensor/mpu9250_kriswiner/quaternion_ahrs.o

Discarded input sections

 .text          0x00000000        0x0 c:/program files (x86)/atmel/studio/7.0/toolchain/arm/arm-gnu-toolchain/bin/../lib/gcc/arm-none-eabi/5.3.1/armv6-m/crti.o
 .data          0x00000000        0x0 c:/program files (x86)/atmel/studio/7.0/toolchain/arm/arm-gnu-toolchain/bin/../lib/gcc/arm-none-eabi/5.3.1/armv6-m/crti.o
 .bss           0x00000000        0x0 c:/program files (x86)/atmel/studio/7.0/toolchain/arm/arm-gnu-toolchain/bin/../lib/gcc/arm-none-eabi/5.3.1/armv6-m/crti.o
 .data          0x00000000        0x4 c:/program files (x86)/atmel/studio/7.0/toolchain/arm/arm-gnu-toolchain/bin/../lib/gcc/arm-none-eabi/5.3.1/armv6-m/crtbegin.o
 .text          0x00000000       0x78 c:/program files (x86)/atmel/studio/7.0/toolchain/arm/arm-gnu-toolchain/bin/../lib/gcc/arm-none-eabi/5.3.1/../../../../arm-none-eabi/lib/armv6-m/crt0.o
 .data          0x00000000        0x0 c:/program files (x86)/atmel/studio/7.0/toolchain/arm/arm-gnu-toolchain/bin/../lib/gcc/arm-none-eabi/5.3.1/../../../../arm-none-eabi/lib/armv6-m/crt0.o
 .bss           0x00000000        0x0 c:/program files (x86)/atmel/studio/7.0/toolchain/arm/arm-gnu-toolchain/bin/../lib/gcc/arm-none-eabi/5.3.1/../../../../arm-none-eabi/lib/armv6-m/crt0.o
 .ARM.extab     0x00000000        0x0 c:/program files (x86)/atmel/studio/7.0/toolchain/arm/arm-gnu-toolchain/bin/../lib/gcc/arm-none-eabi/5.3.1/../../../../arm-none-eabi/lib/armv6-m/crt0.o
 .ARM.exidx     0x00000000        0x8 c:/program files (x86)/atmel/studio/7.0/toolchain/arm/arm-gnu-toolchain/bin/../lib/gcc/arm-none-eabi/5.3.1/../../../../arm-none-eabi/lib/armv6-m/crt0.o
 .ARM.attributes
                0x00000000       0x1b c:/program files (x86)/atmel/studio/7.0/toolchain/arm/arm-gnu-toolchain/bin/../lib/gcc/arm-none-eabi/5.3.1/../../../../arm-none-eabi/lib/armv6-m/crt0.o
 .text          0x00000000        0x0 src/ASF/common/utils/interrupt/interrupt_sam_nvic.o
 .data          0x00000000        0x0 src/ASF/common/utils/interrupt/interrupt_sam_nvic.o
 .bss           0x00000000        0x0 src/ASF/common/utils/interrupt/interrupt_sam_nvic.o
 .text.cpu_irq_enter_critical
                0x00000000       0x34 src/ASF/common/utils/interrupt/interrupt_sam_nvic.o
 .text.cpu_irq_leave_critical
                0x00000000       0x30 src/ASF/common/utils/interrupt/interrupt_sam_nvic.o
 .data.g_interrupt_enabled
                0x00000000        0x1 src/ASF/common/utils/interrupt/interrupt_sam_nvic.o
 .bss.cpu_irq_critical_section_counter
                0x00000000        0x4 src/ASF/common/utils/interrupt/interrupt_sam_nvic.o
 .bss.cpu_irq_prev_interrupt_state
                0x00000000        0x1 src/ASF/common/utils/interrupt/interrupt_sam_nvic.o
 .comment       0x00000000       0x5a src/ASF/common/utils/interrupt/interrupt_sam_nvic.o
 .ARM.attributes
                0x00000000       0x31 src/ASF/common/utils/interrupt/interrupt_sam_nvic.o
 .text          0x00000000        0x0 src/ASF/sam0/boards/samb11_xplained_pro/board_init.o
 .data          0x00000000        0x0 src/ASF/sam0/boards/samb11_xplained_pro/board_init.o
 .bss           0x00000000        0x0 src/ASF/sam0/boards/samb11_xplained_pro/board_init.o
 .text.system_board_init
                0x00000000        0x2 src/ASF/sam0/boards/samb11_xplained_pro/board_init.o
 .bss.cpu_irq_critical_section_counter
                0x00000000        0x4 src/ASF/sam0/boards/samb11_xplained_pro/board_init.o
 .bss.cpu_irq_prev_interrupt_state
                0x00000000        0x1 src/ASF/sam0/boards/samb11_xplained_pro/board_init.o
 .comment       0x00000000       0x5a src/ASF/sam0/boards/samb11_xplained_pro/board_init.o
 .ARM.attributes
                0x00000000       0x31 src/ASF/sam0/boards/samb11_xplained_pro/board_init.o
 .text          0x00000000        0x0 src/ASF/sam0/drivers/aon_sleep_timer/aon_sleep_timer.o
 .data          0x00000000        0x0 src/ASF/sam0/drivers/aon_sleep_timer/aon_sleep_timer.o
 .bss           0x00000000        0x0 src/ASF/sam0/drivers/aon_sleep_timer/aon_sleep_timer.o
 .text.aon_sleep_timer_get_current_value
                0x00000000        0xc src/ASF/sam0/drivers/aon_sleep_timer/aon_sleep_timer.o
 .text.aon_sleep_timer_sleep_timer_active
                0x00000000       0x10 src/ASF/sam0/drivers/aon_sleep_timer/aon_sleep_timer.o
 .bss.cpu_irq_critical_section_counter
                0x00000000        0x4 src/ASF/sam0/drivers/aon_sleep_timer/aon_sleep_timer.o
 .bss.cpu_irq_prev_interrupt_state
                0x00000000        0x1 src/ASF/sam0/drivers/aon_sleep_timer/aon_sleep_timer.o
 .text          0x00000000        0x0 src/ASF/sam0/drivers/i2c/i2c_master.o
 .data          0x00000000        0x0 src/ASF/sam0/drivers/i2c/i2c_master.o
 .bss           0x00000000        0x0 src/ASF/sam0/drivers/i2c/i2c_master.o
 .text.i2c_master_read_packet_wait_no_stop
                0x00000000       0x20 src/ASF/sam0/drivers/i2c/i2c_master.o
 .text.i2c_master_send_stop
                0x00000000       0x18 src/ASF/sam0/drivers/i2c/i2c_master.o
 .text.i2c_master_send_start
                0x00000000       0x18 src/ASF/sam0/drivers/i2c/i2c_master.o
 .text.i2c_master_read_byte
                0x00000000       0x18 src/ASF/sam0/drivers/i2c/i2c_master.o
 .text.i2c_master_write_address
                0x00000000       0x24 src/ASF/sam0/drivers/i2c/i2c_master.o
 .text.i2c_master_write_byte
                0x00000000       0x18 src/ASF/sam0/drivers/i2c/i2c_master.o
 .bss.cpu_irq_critical_section_counter
                0x00000000        0x4 src/ASF/sam0/drivers/i2c/i2c_master.o
 .bss.cpu_irq_prev_interrupt_state
                0x00000000        0x1 src/ASF/sam0/drivers/i2c/i2c_master.o
 .text          0x00000000        0x0 src/ASF/sam0/utils/cmsis/samb11/source/gcc/startup_samb11.o
 .data          0x00000000        0x0 src/ASF/sam0/utils/cmsis/samb11/source/gcc/startup_samb11.o
 .bss           0x00000000        0x0 src/ASF/sam0/utils/cmsis/samb11/source/gcc/startup_samb11.o
 .text          0x00000000        0x0 src/ASF/sam0/utils/cmsis/samb11/source/system_samb11.o
 .data          0x00000000        0x0 src/ASF/sam0/utils/cmsis/samb11/source/system_samb11.o
 .bss           0x00000000        0x0 src/ASF/sam0/utils/cmsis/samb11/source/system_samb11.o
 .text.SystemInit
                0x00000000       0x10 src/ASF/sam0/utils/cmsis/samb11/source/system_samb11.o
 .text.SystemCoreClockUpdate
                0x00000000       0x10 src/ASF/sam0/utils/cmsis/samb11/source/system_samb11.o
 .data.SystemCoreClock
                0x00000000        0x4 src/ASF/sam0/utils/cmsis/samb11/source/system_samb11.o
 .comment       0x00000000       0x5a src/ASF/sam0/utils/cmsis/samb11/source/system_samb11.o
 .ARM.attributes
                0x00000000       0x31 src/ASF/sam0/utils/cmsis/samb11/source/system_samb11.o
 .text          0x00000000        0x0 src/ASF/sam0/utils/syscalls/gcc/syscalls.o
 .data          0x00000000        0x0 src/ASF/sam0/utils/syscalls/gcc/syscalls.o
 .bss           0x00000000        0x0 src/ASF/sam0/utils/syscalls/gcc/syscalls.o
 .text.link     0x00000000        0x6 src/ASF/sam0/utils/syscalls/gcc/syscalls.o
 .text._isatty  0x00000000        0x4 src/ASF/sam0/utils/syscalls/gcc/syscalls.o
 .text._exit    0x00000000        0x4 src/ASF/sam0/utils/syscalls/gcc/syscalls.o
 .text._kill    0x00000000        0x2 src/ASF/sam0/utils/syscalls/gcc/syscalls.o
 .text._getpid  0x00000000        0x6 src/ASF/sam0/utils/syscalls/gcc/syscalls.o
 .text          0x00000000        0x0 src/ASF/thirdparty/sensor/mpu9250_kriswiner/quaternion_ahrs.o
 .data          0x00000000        0x0 src/ASF/thirdparty/sensor/mpu9250_kriswiner/quaternion_ahrs.o
 .bss           0x00000000        0x0 src/ASF/thirdparty/sensor/mpu9250_kriswiner/quaternion_ahrs.o
 .bss.cpu_irq_critical_section_counter
                0x00000000        0x4 src/ASF/thirdparty/sensor/mpu9250_kriswiner/quaternion_ahrs.o
 .bss.cpu_irq_prev_interrupt_state
                0x00000000        0x1 src/ASF/thirdparty/sensor/mpu9250_kriswiner/quaternion_ahrs.o
 .text          0x00000000        0x0 src/sms_v_0_2/src/sms_ble.o
 .data          0x00000000        0x0 src/sms_v_0_2/src/sms_ble.o
 .bss           0x00000000        0x0 src/sms_v_0_2/src/sms_ble.o
 .bss.cpu_irq_critical_section_counter
                0x00000000        0x4 src/sms_v_0_2/src/sms_ble.o
 .bss.cpu_irq_prev_interrupt_state
                0x00000000        0x1 src/sms_v_0_2/src/sms_ble.o
 .text          0x00000000        0x0 src/sms_v_0_2/src/sms_button.o
 .data          0x00000000        0x0 src/sms_v_0_2/src/sms_button.o
 .bss           0x00000000        0x0 src/sms_v_0_2/src/sms_button.o
 .bss.cpu_irq_critical_section_counter
                0x00000000        0x4 src/sms_v_0_2/src/sms_button.o
 .bss.cpu_irq_prev_interrupt_state
                0x00000000        0x1 src/sms_v_0_2/src/sms_button.o
 .text          0x00000000        0x0 src/sms_v_0_2/src/sms_common.o
 .data          0x00000000        0x0 src/sms_v_0_2/src/sms_common.o
 .bss           0x00000000        0x0 src/sms_v_0_2/src/sms_common.o
 .bss.cpu_irq_critical_section_counter
                0x00000000        0x4 src/sms_v_0_2/src/sms_common.o
 .bss.cpu_irq_prev_interrupt_state
                0x00000000        0x1 src/sms_v_0_2/src/sms_common.o
 .text          0x00000000        0x0 src/sms_v_0_2/src/sms_i2c.o
 .data          0x00000000        0x0 src/sms_v_0_2/src/sms_i2c.o
 .bss           0x00000000        0x0 src/sms_v_0_2/src/sms_i2c.o
 .bss.cpu_irq_critical_section_counter
                0x00000000        0x4 src/sms_v_0_2/src/sms_i2c.o
 .bss.cpu_irq_prev_interrupt_state
                0x00000000        0x1 src/sms_v_0_2/src/sms_i2c.o
 .text          0x00000000        0x0 src/sms_v_0_2/src/sms_mpu.o
 .data          0x00000000        0x0 src/sms_v_0_2/src/sms_mpu.o
 .bss           0x00000000        0x0 src/sms_v_0_2/src/sms_mpu.o
 .text.sms_mpu_unregister_callbacks
                0x00000000       0x10 src/sms_v_0_2/src/sms_mpu.o
 .text.read_temp_data
                0x00000000       0x20 src/sms_v_0_2/src/sms_mpu.o
 .text.get_Gres
                0x00000000       0x14 src/sms_v_0_2/src/sms_mpu.o
 .text.readBytes
                0x00000000        0xc src/sms_v_0_2/src/sms_mpu.o
 .bss.cpu_irq_critical_section_counter
                0x00000000        0x4 src/sms_v_0_2/src/sms_mpu.o
 .bss.cpu_irq_prev_interrupt_state
                0x00000000        0x1 src/sms_v_0_2/src/sms_mpu.o
 .text          0x00000000        0x0 src/sms_v_0_2/src/sms_led.o
 .data          0x00000000        0x0 src/sms_v_0_2/src/sms_led.o
 .bss           0x00000000        0x0 src/sms_v_0_2/src/sms_led.o
 .text.sms_led_get_state
                0x00000000        0xc src/sms_v_0_2/src/sms_led.o
 .bss.cpu_irq_critical_section_counter
                0x00000000        0x4 src/sms_v_0_2/src/sms_led.o
 .bss.cpu_irq_prev_interrupt_state
                0x00000000        0x1 src/sms_v_0_2/src/sms_led.o
 .text          0x00000000        0x0 src/sms_v_0_2/src/sms_pressure.o
 .data          0x00000000        0x0 src/sms_v_0_2/src/sms_pressure.o
 .bss           0x00000000        0x0 src/sms_v_0_2/src/sms_pressure.o
 .text.sms_pressure_configure_gpio
                0x00000000       0x2c src/sms_v_0_2/src/sms_pressure.o
 .text.sms_pressure_ms58_read_data
                0x00000000       0xc4 src/sms_v_0_2/src/sms_pressure.o
 .text.sms_pressure_ms58_calculate
                0x00000000       0xa4 src/sms_v_0_2/src/sms_pressure.o
 .text.sms_pressure_poll_data
                0x00000000       0x3c src/sms_v_0_2/src/sms_pressure.o
 .bss.cpu_irq_critical_section_counter
                0x00000000        0x4 src/sms_v_0_2/src/sms_pressure.o
 .bss.cpu_irq_prev_interrupt_state
                0x00000000        0x1 src/sms_v_0_2/src/sms_pressure.o
 .text          0x00000000        0x0 src/sms_v_0_2/src/sms_sensors.o
 .data          0x00000000        0x0 src/sms_v_0_2/src/sms_sensors.o
 .bss           0x00000000        0x0 src/sms_v_0_2/src/sms_sensors.o
 .bss.cpu_irq_critical_section_counter
                0x00000000        0x4 src/sms_v_0_2/src/sms_sensors.o
 .bss.cpu_irq_prev_interrupt_state
                0x00000000        0x1 src/sms_v_0_2/src/sms_sensors.o
 .text          0x00000000        0x0 src/sms_v_0_2/src/sms_spi.o
 .data          0x00000000        0x0 src/sms_v_0_2/src/sms_spi.o
 .bss           0x00000000        0x0 src/sms_v_0_2/src/sms_spi.o
 .bss.cpu_irq_critical_section_counter
                0x00000000        0x4 src/sms_v_0_2/src/sms_spi.o
 .bss.cpu_irq_prev_interrupt_state
                0x00000000        0x1 src/sms_v_0_2/src/sms_spi.o
 .text          0x00000000        0x0 src/sms_v_0_2/src/sms_timer.o
 .data          0x00000000        0x0 src/sms_v_0_2/src/sms_timer.o
 .bss           0x00000000        0x0 src/sms_v_0_2/src/sms_timer.o
 .text.sms_timer_aon_get_ms
                0x00000000        0x2 src/sms_v_0_2/src/sms_timer.o
 .text.sms_dualtimer2_cb
                0x00000000       0x1c src/sms_v_0_2/src/sms_timer.o
 .bss.cpu_irq_critical_section_counter
                0x00000000        0x4 src/sms_v_0_2/src/sms_timer.o
 .bss.cpu_irq_prev_interrupt_state
                0x00000000        0x1 src/sms_v_0_2/src/sms_timer.o
 .text          0x00000000        0x0 src/ASF/sam0/drivers/spi/spi.o
 .data          0x00000000        0x0 src/ASF/sam0/drivers/spi/spi.o
 .bss           0x00000000        0x0 src/ASF/sam0/drivers/spi/spi.o
 .text.spi_lock
                0x00000000       0x14 src/ASF/sam0/drivers/spi/spi.o
 .text.spi_unlock
                0x00000000        0x6 src/ASF/sam0/drivers/spi/spi.o
 .text.spi_write
                0x00000000       0x10 src/ASF/sam0/drivers/spi/spi.o
 .text.spi_read
                0x00000000       0x1a src/ASF/sam0/drivers/spi/spi.o
 .text.spi_transceive_wait
                0x00000000       0x10 src/ASF/sam0/drivers/spi/spi.o
 .text.spi_read_buffer_wait
                0x00000000       0x14 src/ASF/sam0/drivers/spi/spi.o
 .text.spi_write_buffer_wait
                0x00000000       0x10 src/ASF/sam0/drivers/spi/spi.o
 .bss.cpu_irq_critical_section_counter
                0x00000000        0x4 src/ASF/sam0/drivers/spi/spi.o
 .bss.cpu_irq_prev_interrupt_state
                0x00000000        0x1 src/ASF/sam0/drivers/spi/spi.o
 .text          0x00000000        0x0 src/ASF/thirdparty/wireless/ble_smart_sdk/ble_profiles/pxp_reporter/pxp_reporter.o
 .data          0x00000000        0x0 src/ASF/thirdparty/wireless/ble_smart_sdk/ble_profiles/pxp_reporter/pxp_reporter.o
 .bss           0x00000000        0x0 src/ASF/thirdparty/wireless/ble_smart_sdk/ble_profiles/pxp_reporter/pxp_reporter.o
 .text.pxp_reporter_char_changed_handler
                0x00000000       0x64 src/ASF/thirdparty/wireless/ble_smart_sdk/ble_profiles/pxp_reporter/pxp_reporter.o
 .text.pxp_reporter_connected_state_handler
                0x00000000       0x44 src/ASF/thirdparty/wireless/ble_smart_sdk/ble_profiles/pxp_reporter/pxp_reporter.o
 .text.pxp_reporter_disconnect_event_handler
                0x00000000       0x40 src/ASF/thirdparty/wireless/ble_smart_sdk/ble_profiles/pxp_reporter/pxp_reporter.o
 .text.pxp_service_init
                0x00000000       0x30 src/ASF/thirdparty/wireless/ble_smart_sdk/ble_profiles/pxp_reporter/pxp_reporter.o
 .text.register_pathloss_handler
                0x00000000        0xc src/ASF/thirdparty/wireless/ble_smart_sdk/ble_profiles/pxp_reporter/pxp_reporter.o
 .text.register_linkloss_handler
                0x00000000        0xc src/ASF/thirdparty/wireless/ble_smart_sdk/ble_profiles/pxp_reporter/pxp_reporter.o
 .text.register_state_handler
                0x00000000        0xc src/ASF/thirdparty/wireless/ble_smart_sdk/ble_profiles/pxp_reporter/pxp_reporter.o
 .text.pxp_service_define
                0x00000000       0x30 src/ASF/thirdparty/wireless/ble_smart_sdk/ble_profiles/pxp_reporter/pxp_reporter.o
 .text.pxp_reporter_adv
                0x00000000       0x2c src/ASF/thirdparty/wireless/ble_smart_sdk/ble_profiles/pxp_reporter/pxp_reporter.o
 .text.pxp_reporter_init
                0x00000000       0x3c src/ASF/thirdparty/wireless/ble_smart_sdk/ble_profiles/pxp_reporter/pxp_reporter.o
 .data.pathloss_alert_value
                0x00000000        0x1 src/ASF/thirdparty/wireless/ble_smart_sdk/ble_profiles/pxp_reporter/pxp_reporter.o
 .bss.cpu_irq_critical_section_counter
                0x00000000        0x4 src/ASF/thirdparty/wireless/ble_smart_sdk/ble_profiles/pxp_reporter/pxp_reporter.o
 .rodata.pxp_gatt_server_handle
                0x00000000       0x28 src/ASF/thirdparty/wireless/ble_smart_sdk/ble_profiles/pxp_reporter/pxp_reporter.o
 .bss.cpu_irq_prev_interrupt_state
                0x00000000        0x1 src/ASF/thirdparty/wireless/ble_smart_sdk/ble_profiles/pxp_reporter/pxp_reporter.o
 .rodata.pxp_gap_handle
                0x00000000       0x4c src/ASF/thirdparty/wireless/ble_smart_sdk/ble_profiles/pxp_reporter/pxp_reporter.o
 .data.scan_rsp_data
                0x00000000        0xa src/ASF/thirdparty/wireless/ble_smart_sdk/ble_profiles/pxp_reporter/pxp_reporter.o
 .comment       0x00000000       0x5a src/ASF/thirdparty/wireless/ble_smart_sdk/ble_profiles/pxp_reporter/pxp_reporter.o
 .ARM.attributes
                0x00000000       0x31 src/ASF/thirdparty/wireless/ble_smart_sdk/ble_profiles/pxp_reporter/pxp_reporter.o
 COMMON         0x00000000      0x100 src/ASF/thirdparty/wireless/ble_smart_sdk/ble_profiles/pxp_reporter/pxp_reporter.o
 .text          0x00000000        0x0 src/ASF/thirdparty/wireless/ble_smart_sdk/ble_services/battery/battery.o
 .data          0x00000000        0x0 src/ASF/thirdparty/wireless/ble_smart_sdk/ble_services/battery/battery.o
 .bss           0x00000000        0x0 src/ASF/thirdparty/wireless/ble_smart_sdk/ble_services/battery/battery.o
 .text.bat_init_service
                0x00000000       0x64 src/ASF/thirdparty/wireless/ble_smart_sdk/ble_services/battery/battery.o
 .text.bat_primary_service_define
                0x00000000       0x20 src/ASF/thirdparty/wireless/ble_smart_sdk/ble_services/battery/battery.o
 .text.bat_update_char_value
                0x00000000       0x40 src/ASF/thirdparty/wireless/ble_smart_sdk/ble_services/battery/battery.o
 .text.bat_char_changed_event
                0x00000000       0x64 src/ASF/thirdparty/wireless/ble_smart_sdk/ble_services/battery/battery.o
 .bss.cpu_irq_critical_section_counter
                0x00000000        0x4 src/ASF/thirdparty/wireless/ble_smart_sdk/ble_services/battery/battery.o
 .bss.bat_notification_flag
                0x00000000        0x1 src/ASF/thirdparty/wireless/ble_smart_sdk/ble_services/battery/battery.o
 .bss.cpu_irq_prev_interrupt_state
                0x00000000        0x1 src/ASF/thirdparty/wireless/ble_smart_sdk/ble_services/battery/battery.o
 .data.battery_init_value
                0x00000000        0x1 src/ASF/thirdparty/wireless/ble_smart_sdk/ble_services/battery/battery.o
 .comment       0x00000000       0x5a src/ASF/thirdparty/wireless/ble_smart_sdk/ble_services/battery/battery.o
 .ARM.attributes
                0x00000000       0x31 src/ASF/thirdparty/wireless/ble_smart_sdk/ble_services/battery/battery.o
 COMMON         0x00000000        0x8 src/ASF/thirdparty/wireless/ble_smart_sdk/ble_services/battery/battery.o
 .text          0x00000000        0x0 src/ASF/thirdparty/wireless/ble_smart_sdk/ble_services/immediate_alert/immediate_alert.o
 .data          0x00000000        0x0 src/ASF/thirdparty/wireless/ble_smart_sdk/ble_services/immediate_alert/immediate_alert.o
 .bss           0x00000000        0x0 src/ASF/thirdparty/wireless/ble_smart_sdk/ble_services/immediate_alert/immediate_alert.o
 .text.init_immediate_alert_service
                0x00000000       0x4c src/ASF/thirdparty/wireless/ble_smart_sdk/ble_services/immediate_alert/immediate_alert.o
 .text.ias_primary_service_define
                0x00000000       0x20 src/ASF/thirdparty/wireless/ble_smart_sdk/ble_services/immediate_alert/immediate_alert.o
 .text.ias_set_alert_value
                0x00000000       0x12 src/ASF/thirdparty/wireless/ble_smart_sdk/ble_services/immediate_alert/immediate_alert.o
 .bss.immediate_alert_initial_value
                0x00000000        0x1 src/ASF/thirdparty/wireless/ble_smart_sdk/ble_services/immediate_alert/immediate_alert.o
 .bss.cpu_irq_critical_section_counter
                0x00000000        0x4 src/ASF/thirdparty/wireless/ble_smart_sdk/ble_services/immediate_alert/immediate_alert.o
 .bss.cpu_irq_prev_interrupt_state
                0x00000000        0x1 src/ASF/thirdparty/wireless/ble_smart_sdk/ble_services/immediate_alert/immediate_alert.o
 .comment       0x00000000       0x5a src/ASF/thirdparty/wireless/ble_smart_sdk/ble_services/immediate_alert/immediate_alert.o
 .ARM.attributes
                0x00000000       0x31 src/ASF/thirdparty/wireless/ble_smart_sdk/ble_services/immediate_alert/immediate_alert.o
 .text          0x00000000        0x0 src/ASF/thirdparty/wireless/ble_smart_sdk/ble_services/link_loss/link_loss.o
 .data          0x00000000        0x0 src/ASF/thirdparty/wireless/ble_smart_sdk/ble_services/link_loss/link_loss.o
 .bss           0x00000000        0x0 src/ASF/thirdparty/wireless/ble_smart_sdk/ble_services/link_loss/link_loss.o
 .text.init_linkloss_service
                0x00000000       0x4c src/ASF/thirdparty/wireless/ble_smart_sdk/ble_services/link_loss/link_loss.o
 .text.lls_primary_service_define
                0x00000000       0x20 src/ASF/thirdparty/wireless/ble_smart_sdk/ble_services/link_loss/link_loss.o
 .text.lls_set_alert_value
                0x00000000       0x18 src/ASF/thirdparty/wireless/ble_smart_sdk/ble_services/link_loss/link_loss.o
 .bss.linkloss_initial_value
                0x00000000        0x1 src/ASF/thirdparty/wireless/ble_smart_sdk/ble_services/link_loss/link_loss.o
 .bss.cpu_irq_critical_section_counter
                0x00000000        0x4 src/ASF/thirdparty/wireless/ble_smart_sdk/ble_services/link_loss/link_loss.o
 .bss.cpu_irq_prev_interrupt_state
                0x00000000        0x1 src/ASF/thirdparty/wireless/ble_smart_sdk/ble_services/link_loss/link_loss.o
 .comment       0x00000000       0x5a src/ASF/thirdparty/wireless/ble_smart_sdk/ble_services/link_loss/link_loss.o
 .ARM.attributes
                0x00000000       0x31 src/ASF/thirdparty/wireless/ble_smart_sdk/ble_services/link_loss/link_loss.o
 .text          0x00000000        0x0 src/ASF/thirdparty/wireless/ble_smart_sdk/ble_services/tx_power/tx_power.o
 .data          0x00000000        0x0 src/ASF/thirdparty/wireless/ble_smart_sdk/ble_services/tx_power/tx_power.o
 .bss           0x00000000        0x0 src/ASF/thirdparty/wireless/ble_smart_sdk/ble_services/tx_power/tx_power.o
 .text.init_tx_power_service
                0x00000000       0x50 src/ASF/thirdparty/wireless/ble_smart_sdk/ble_services/tx_power/tx_power.o
 .text.txps_primary_service_define
                0x00000000       0x20 src/ASF/thirdparty/wireless/ble_smart_sdk/ble_services/tx_power/tx_power.o
 .bss.tx_power_initial_value
                0x00000000        0x1 src/ASF/thirdparty/wireless/ble_smart_sdk/ble_services/tx_power/tx_power.o
 .bss.cpu_irq_critical_section_counter
                0x00000000        0x4 src/ASF/thirdparty/wireless/ble_smart_sdk/ble_services/tx_power/tx_power.o
 .bss.cpu_irq_prev_interrupt_state
                0x00000000        0x1 src/ASF/thirdparty/wireless/ble_smart_sdk/ble_services/tx_power/tx_power.o
 .comment       0x00000000       0x5a src/ASF/thirdparty/wireless/ble_smart_sdk/ble_services/tx_power/tx_power.o
 .ARM.attributes
                0x00000000       0x31 src/ASF/thirdparty/wireless/ble_smart_sdk/ble_services/tx_power/tx_power.o
 .text          0x00000000        0x0 src/ASF/sam0/drivers/dualtimer/dualtimer.o
 .data          0x00000000        0x0 src/ASF/sam0/drivers/dualtimer/dualtimer.o
 .bss           0x00000000        0x0 src/ASF/sam0/drivers/dualtimer/dualtimer.o
 .text.dualtimer_get_status
                0x00000000       0x1c src/ASF/sam0/drivers/dualtimer/dualtimer.o
 .text.dualtimer_get_interrupt_status
                0x00000000       0x1c src/ASF/sam0/drivers/dualtimer/dualtimer.o
 .text.dualtimer_clear_interrupt_status
                0x00000000       0x1c src/ASF/sam0/drivers/dualtimer/dualtimer.o
 .text.dualtimer_unregister_callback
                0x00000000       0x1c src/ASF/sam0/drivers/dualtimer/dualtimer.o
 .bss.cpu_irq_critical_section_counter
                0x00000000        0x4 src/ASF/sam0/drivers/dualtimer/dualtimer.o
 .bss.cpu_irq_prev_interrupt_state
                0x00000000        0x1 src/ASF/sam0/drivers/dualtimer/dualtimer.o
 .text          0x00000000        0x0 src/ASF/sam0/drivers/gpio/gpio.o
 .data          0x00000000        0x0 src/ASF/sam0/drivers/gpio/gpio.o
 .bss           0x00000000        0x0 src/ASF/sam0/drivers/gpio/gpio.o
 .text.gpio_pin_toggle_output_level
                0x00000000       0x40 src/ASF/sam0/drivers/gpio/gpio.o
 .text.gpio_unregister_callback
                0x00000000       0x44 src/ASF/sam0/drivers/gpio/gpio.o
 .bss.cpu_irq_critical_section_counter
                0x00000000        0x4 src/ASF/sam0/drivers/gpio/gpio.o
 .bss.cpu_irq_prev_interrupt_state
                0x00000000        0x1 src/ASF/sam0/drivers/gpio/gpio.o
 .text          0x00000000        0x0 src/ASF/sam0/drivers/system/system_sam_b.o
 .data          0x00000000        0x0 src/ASF/sam0/drivers/system/system_sam_b.o
 .bss           0x00000000        0x0 src/ASF/sam0/drivers/system/system_sam_b.o
 .text.system_clock_peripheral_freq_config
                0x00000000      0x128 src/ASF/sam0/drivers/system/system_sam_b.o
 .text.system_global_reset
                0x00000000       0x18 src/ASF/sam0/drivers/system/system_sam_b.o
 .text.system_unregister_isr
                0x00000000        0xe src/ASF/sam0/drivers/system/system_sam_b.o
 .text.system_calibration_get_config_defaults
                0x00000000       0x12 src/ASF/sam0/drivers/system/system_sam_b.o
 .text.system_calibration_set_config
                0x00000000       0x2c src/ASF/sam0/drivers/system/system_sam_b.o
 .text.system_calibration_get_interrupt_status
                0x00000000       0x80 src/ASF/sam0/drivers/system/system_sam_b.o
 .text.system_osc_calibration_enable
                0x00000000       0x10 src/ASF/sam0/drivers/system/system_sam_b.o
 .text.system_osc_calibration_disable
                0x00000000       0x10 src/ASF/sam0/drivers/system/system_sam_b.o
 .text.system_osc_calibration_get_status
                0x00000000       0x18 src/ASF/sam0/drivers/system/system_sam_b.o
 .text.system_osc_calibration_clear_status
                0x00000000        0x2 src/ASF/sam0/drivers/system/system_sam_b.o
 .text.system_osc_calibration_result
                0x00000000       0x18 src/ASF/sam0/drivers/system/system_sam_b.o
 .text.system_rtc_calibration_enable
                0x00000000       0x10 src/ASF/sam0/drivers/system/system_sam_b.o
 .text.system_rtc_calibration_disable
                0x00000000       0x10 src/ASF/sam0/drivers/system/system_sam_b.o
 .text.system_rtc_calibration_get_status
                0x00000000       0x18 src/ASF/sam0/drivers/system/system_sam_b.o
 .text.system_rtc_calibration_clear_status
                0x00000000        0x2 src/ASF/sam0/drivers/system/system_sam_b.o
 .text.system_rtc_calibration_result
                0x00000000       0x18 src/ASF/sam0/drivers/system/system_sam_b.o
 .text.system_clock_aon_config
                0x00000000       0xb8 src/ASF/sam0/drivers/system/system_sam_b.o
 .text.system_clock_peripheral_aon_enable
                0x00000000       0x30 src/ASF/sam0/drivers/system/system_sam_b.o
 .text.system_clock_peripheral_aon_disable
                0x00000000       0x34 src/ASF/sam0/drivers/system/system_sam_b.o
 .bss.cpu_irq_critical_section_counter
                0x00000000        0x4 src/ASF/sam0/drivers/system/system_sam_b.o
 .bss.cpu_irq_prev_interrupt_state
                0x00000000        0x1 src/ASF/sam0/drivers/system/system_sam_b.o
 .text          0x00000000        0x0 src/ASF/sam0/drivers/timer/timer.o
 .data          0x00000000        0x0 src/ASF/sam0/drivers/timer/timer.o
 .bss           0x00000000        0x0 src/ASF/sam0/drivers/timer/timer.o
 .text.timer_get_config_defaults
                0x00000000        0xa src/ASF/sam0/drivers/timer/timer.o
 .text.timer_get_value
                0x00000000        0x8 src/ASF/sam0/drivers/timer/timer.o
 .text.timer_set_value
                0x00000000        0x8 src/ASF/sam0/drivers/timer/timer.o
 .text.timer_get_interrupt_status
                0x00000000        0xa src/ASF/sam0/drivers/timer/timer.o
 .text.timer_clear_interrupt_status
                0x00000000       0x10 src/ASF/sam0/drivers/timer/timer.o
 .text.timer_isr_handler
                0x00000000       0x24 src/ASF/sam0/drivers/timer/timer.o
 .text.timer_enable
                0x00000000        0xe src/ASF/sam0/drivers/timer/timer.o
 .text.timer_disable
                0x00000000        0xe src/ASF/sam0/drivers/timer/timer.o
 .text.timer_register_callback
                0x00000000        0xc src/ASF/sam0/drivers/timer/timer.o
 .text.timer_unregister_callback
                0x00000000        0xc src/ASF/sam0/drivers/timer/timer.o
 .text.timer_init
                0x00000000       0x3c src/ASF/sam0/drivers/timer/timer.o
 .bss.cpu_irq_critical_section_counter
                0x00000000        0x4 src/ASF/sam0/drivers/timer/timer.o
 .bss.cpu_irq_prev_interrupt_state
                0x00000000        0x1 src/ASF/sam0/drivers/timer/timer.o
 .bss.timer_callback
                0x00000000        0x4 src/ASF/sam0/drivers/timer/timer.o
 .comment       0x00000000       0x5a src/ASF/sam0/drivers/timer/timer.o
 .ARM.attributes
                0x00000000       0x31 src/ASF/sam0/drivers/timer/timer.o
 .text          0x00000000        0x0 src/ASF/sam0/drivers/uart/uart.o
 .data          0x00000000        0x0 src/ASF/sam0/drivers/uart/uart.o
 .bss           0x00000000        0x0 src/ASF/sam0/drivers/uart/uart.o
 .text.uart_write_buffer_wait
                0x00000000       0x20 src/ASF/sam0/drivers/uart/uart.o
 .text.uart_read_buffer_wait
                0x00000000       0x20 src/ASF/sam0/drivers/uart/uart.o
 .text.uart_write_buffer_job
                0x00000000       0x28 src/ASF/sam0/drivers/uart/uart.o
 .text.uart_unregister_callback
                0x00000000       0x16 src/ASF/sam0/drivers/uart/uart.o
 .text.uart_enable_transmit_dma
                0x00000000       0x30 src/ASF/sam0/drivers/uart/uart.o
 .text.uart_disable_transmit_dma
                0x00000000       0x30 src/ASF/sam0/drivers/uart/uart.o
 .text.uart_enable_receive_dma
                0x00000000       0x30 src/ASF/sam0/drivers/uart/uart.o
 .text.uart_disable_receive_dma
                0x00000000       0x30 src/ASF/sam0/drivers/uart/uart.o
 .bss.cpu_irq_critical_section_counter
                0x00000000        0x4 src/ASF/sam0/drivers/uart/uart.o
 .bss.cpu_irq_prev_interrupt_state
                0x00000000        0x1 src/ASF/sam0/drivers/uart/uart.o
 .text          0x00000000        0x0 src/ASF/sam0/utils/stdio/read.o
 .data          0x00000000        0x0 src/ASF/sam0/utils/stdio/read.o
 .bss           0x00000000        0x0 src/ASF/sam0/utils/stdio/read.o
 .bss.cpu_irq_critical_section_counter
                0x00000000        0x4 src/ASF/sam0/utils/stdio/read.o
 .bss.cpu_irq_prev_interrupt_state
                0x00000000        0x1 src/ASF/sam0/utils/stdio/read.o
 .text          0x00000000        0x0 src/ASF/sam0/utils/stdio/write.o
 .data          0x00000000        0x0 src/ASF/sam0/utils/stdio/write.o
 .bss           0x00000000        0x0 src/ASF/sam0/utils/stdio/write.o
 .bss.cpu_irq_critical_section_counter
                0x00000000        0x4 src/ASF/sam0/utils/stdio/write.o
 .bss.cpu_irq_prev_interrupt_state
                0x00000000        0x1 src/ASF/sam0/utils/stdio/write.o
 .text          0x00000000        0x0 src/ASF/thirdparty/wireless/ble_smart_sdk/ble_services/ble_mgr/ble_manager.o
 .data          0x00000000        0x0 src/ASF/thirdparty/wireless/ble_smart_sdk/ble_services/ble_mgr/ble_manager.o
 .bss           0x00000000        0x0 src/ASF/thirdparty/wireless/ble_smart_sdk/ble_services/ble_mgr/ble_manager.o
 .text.ble_set_ulp_mode
                0x00000000        0xc src/ASF/thirdparty/wireless/ble_smart_sdk/ble_services/ble_mgr/ble_manager.o
 .text.ble_get_ulp_status
                0x00000000        0xc src/ASF/thirdparty/wireless/ble_smart_sdk/ble_services/ble_mgr/ble_manager.o
 .text.gap_dev_connect
                0x00000000       0x48 src/ASF/thirdparty/wireless/ble_smart_sdk/ble_services/ble_mgr/ble_manager.o
 .text.gap_dev_scan
                0x00000000       0x3c src/ASF/thirdparty/wireless/ble_smart_sdk/ble_services/ble_mgr/ble_manager.o
 .text.scan_info_parse
                0x00000000       0xd0 src/ASF/thirdparty/wireless/ble_smart_sdk/ble_services/ble_mgr/ble_manager.o
 .text.ble_connected_device_role
                0x00000000       0x34 src/ASF/thirdparty/wireless/ble_smart_sdk/ble_services/ble_mgr/ble_manager.o
 .text.ble_check_ispheripheral
                0x00000000       0x24 src/ASF/thirdparty/wireless/ble_smart_sdk/ble_services/ble_mgr/ble_manager.o
 .text.ble_check_iscentral
                0x00000000       0x28 src/ASF/thirdparty/wireless/ble_smart_sdk/ble_services/ble_mgr/ble_manager.o
 .text.ble_disconnected_device_role
                0x00000000       0x34 src/ASF/thirdparty/wireless/ble_smart_sdk/ble_services/ble_mgr/ble_manager.o
 .text.ble_check_disconnected_iscentral
                0x00000000       0x24 src/ASF/thirdparty/wireless/ble_smart_sdk/ble_services/ble_mgr/ble_manager.o
 .text.ble_check_device_state
                0x00000000       0x30 src/ASF/thirdparty/wireless/ble_smart_sdk/ble_services/ble_mgr/ble_manager.o
 .text.register_ble_user_event_cb
                0x00000000        0xc src/ASF/thirdparty/wireless/ble_smart_sdk/ble_services/ble_mgr/ble_manager.o
 .bss.cpu_irq_prev_interrupt_state
                0x00000000        0x1 src/ASF/thirdparty/wireless/ble_smart_sdk/ble_services/ble_mgr/ble_manager.o
 .bss.cpu_irq_critical_section_counter
                0x00000000        0x4 src/ASF/thirdparty/wireless/ble_smart_sdk/ble_services/ble_mgr/ble_manager.o
 .text          0x00000000        0x0 src/ASF/thirdparty/wireless/ble_smart_sdk/services/dualtimer/timer_hw.o
 .data          0x00000000        0x0 src/ASF/thirdparty/wireless/ble_smart_sdk/services/dualtimer/timer_hw.o
 .bss           0x00000000        0x0 src/ASF/thirdparty/wireless/ble_smart_sdk/services/dualtimer/timer_hw.o
 .text.dualtimer_callback2
                0x00000000        0x2 src/ASF/thirdparty/wireless/ble_smart_sdk/services/dualtimer/timer_hw.o
 .text.hw_timer_init
                0x00000000       0x2c src/ASF/thirdparty/wireless/ble_smart_sdk/services/dualtimer/timer_hw.o
 .text.hw_timer_register_callback
                0x00000000       0x34 src/ASF/thirdparty/wireless/ble_smart_sdk/services/dualtimer/timer_hw.o
 .text.hw_timer_start
                0x00000000       0x2c src/ASF/thirdparty/wireless/ble_smart_sdk/services/dualtimer/timer_hw.o
 .text.hw_timer_stop
                0x00000000       0x10 src/ASF/thirdparty/wireless/ble_smart_sdk/services/dualtimer/timer_hw.o
 .bss.cpu_irq_critical_section_counter
                0x00000000        0x4 src/ASF/thirdparty/wireless/ble_smart_sdk/services/dualtimer/timer_hw.o
 .bss.cpu_irq_prev_interrupt_state
                0x00000000        0x1 src/ASF/thirdparty/wireless/ble_smart_sdk/services/dualtimer/timer_hw.o
 .comment       0x00000000       0x5a src/ASF/thirdparty/wireless/ble_smart_sdk/services/dualtimer/timer_hw.o
 .ARM.attributes
                0x00000000       0x31 src/ASF/thirdparty/wireless/ble_smart_sdk/services/dualtimer/timer_hw.o
 .text          0x00000000        0x0 src/ASF/thirdparty/wireless/ble_smart_sdk/services/gpio/button.o
 .data          0x00000000        0x0 src/ASF/thirdparty/wireless/ble_smart_sdk/services/gpio/button.o
 .bss           0x00000000        0x0 src/ASF/thirdparty/wireless/ble_smart_sdk/services/gpio/button.o
 .text.button_callback
                0x00000000       0x28 src/ASF/thirdparty/wireless/ble_smart_sdk/services/gpio/button.o
 .text.button_init
                0x00000000       0x24 src/ASF/thirdparty/wireless/ble_smart_sdk/services/gpio/button.o
 .text.button_register_callback
                0x00000000       0x38 src/ASF/thirdparty/wireless/ble_smart_sdk/services/gpio/button.o
 .bss.cpu_irq_critical_section_counter
                0x00000000        0x4 src/ASF/thirdparty/wireless/ble_smart_sdk/services/gpio/button.o
 .bss.cpu_irq_prev_interrupt_state
                0x00000000        0x1 src/ASF/thirdparty/wireless/ble_smart_sdk/services/gpio/button.o
 .bss.button_cb_func
                0x00000000        0x4 src/ASF/thirdparty/wireless/ble_smart_sdk/services/gpio/button.o
 .comment       0x00000000       0x5a src/ASF/thirdparty/wireless/ble_smart_sdk/services/gpio/button.o
 .ARM.attributes
                0x00000000       0x31 src/ASF/thirdparty/wireless/ble_smart_sdk/services/gpio/button.o
 .text          0x00000000        0x0 src/ASF/thirdparty/wireless/ble_smart_sdk/services/gpio/led.o
 .data          0x00000000        0x0 src/ASF/thirdparty/wireless/ble_smart_sdk/services/gpio/led.o
 .bss           0x00000000        0x0 src/ASF/thirdparty/wireless/ble_smart_sdk/services/gpio/led.o
 .text.led_init
                0x00000000       0x24 src/ASF/thirdparty/wireless/ble_smart_sdk/services/gpio/led.o
 .bss.cpu_irq_critical_section_counter
                0x00000000        0x4 src/ASF/thirdparty/wireless/ble_smart_sdk/services/gpio/led.o
 .bss.cpu_irq_prev_interrupt_state
                0x00000000        0x1 src/ASF/thirdparty/wireless/ble_smart_sdk/services/gpio/led.o
 .comment       0x00000000       0x5a src/ASF/thirdparty/wireless/ble_smart_sdk/services/gpio/led.o
 .ARM.attributes
                0x00000000       0x31 src/ASF/thirdparty/wireless/ble_smart_sdk/services/gpio/led.o
 .text          0x00000000        0x0 src/ASF/thirdparty/wireless/ble_smart_sdk/services/uart/console_serial.o
 .data          0x00000000        0x0 src/ASF/thirdparty/wireless/ble_smart_sdk/services/uart/console_serial.o
 .bss           0x00000000        0x0 src/ASF/thirdparty/wireless/ble_smart_sdk/services/uart/console_serial.o
 .text.getchar_b11
                0x00000000       0x50 src/ASF/thirdparty/wireless/ble_smart_sdk/services/uart/console_serial.o
 .text.register_uart_callback
                0x00000000       0x30 src/ASF/thirdparty/wireless/ble_smart_sdk/services/uart/console_serial.o
 .bss.cpu_irq_critical_section_counter
                0x00000000        0x4 src/ASF/thirdparty/wireless/ble_smart_sdk/services/uart/console_serial.o
 .bss.cpu_irq_prev_interrupt_state
                0x00000000        0x1 src/ASF/thirdparty/wireless/ble_smart_sdk/services/uart/console_serial.o
 .text          0x00000000        0x0 src/ASF/thirdparty/wireless/ble_smart_sdk/src/event_handler.o
 .data          0x00000000        0x0 src/ASF/thirdparty/wireless/ble_smart_sdk/src/event_handler.o
 .bss           0x00000000        0x0 src/ASF/thirdparty/wireless/ble_smart_sdk/src/event_handler.o
 .text.platform_event_get
                0x00000000       0x58 src/ASF/thirdparty/wireless/ble_smart_sdk/src/event_handler.o
 .text          0x00000000        0x0 src/ASF/thirdparty/wireless/ble_smart_sdk/src/platform_drv.o
 .data          0x00000000        0x0 src/ASF/thirdparty/wireless/ble_smart_sdk/src/platform_drv.o
 .bss           0x00000000        0x0 src/ASF/thirdparty/wireless/ble_smart_sdk/src/platform_drv.o
 .text.platform_chip_reset
                0x00000000       0x84 src/ASF/thirdparty/wireless/ble_smart_sdk/src/platform_drv.o
 .bss.cpu_irq_prev_interrupt_state
                0x00000000        0x1 src/ASF/thirdparty/wireless/ble_smart_sdk/src/platform_drv.o
 .bss.cpu_irq_critical_section_counter
                0x00000000        0x4 src/ASF/thirdparty/wireless/ble_smart_sdk/src/platform_drv.o
 .text          0x00000000        0x0 src/ASF/thirdparty/wireless/ble_smart_sdk/src/port_from_sdk.o
 .data          0x00000000        0x0 src/ASF/thirdparty/wireless/ble_smart_sdk/src/port_from_sdk.o
 .bss           0x00000000        0x0 src/ASF/thirdparty/wireless/ble_smart_sdk/src/port_from_sdk.o
 .bss.cpu_irq_critical_section_counter
                0x00000000        0x4 src/ASF/thirdparty/wireless/ble_smart_sdk/src/port_from_sdk.o
 .bss.cpu_irq_prev_interrupt_state
                0x00000000        0x1 src/ASF/thirdparty/wireless/ble_smart_sdk/src/port_from_sdk.o
 .text          0x00000000        0x0 src/sms_peripheral1.o
 .data          0x00000000        0x0 src/sms_peripheral1.o
 .bss           0x00000000        0x0 src/sms_peripheral1.o
 .bss.cpu_irq_critical_section_counter
                0x00000000        0x4 src/sms_peripheral1.o
 .bss.cpu_irq_prev_interrupt_state
                0x00000000        0x1 src/sms_peripheral1.o
 .text          0x00000000        0x0 ../src/ASF/thirdparty/wireless/ble_smart_sdk/lib/cm0/gcc\libblusdk.a(event.o)
 .data          0x00000000        0x0 ../src/ASF/thirdparty/wireless/ble_smart_sdk/lib/cm0/gcc\libblusdk.a(event.o)
 .bss           0x00000000        0x0 ../src/ASF/thirdparty/wireless/ble_smart_sdk/lib/cm0/gcc\libblusdk.a(event.o)
 .text.at_ble_event_user_defined_post
                0x00000000       0x24 ../src/ASF/thirdparty/wireless/ble_smart_sdk/lib/cm0/gcc\libblusdk.a(event.o)
 .bss.gu8UserDefinedEvent
                0x00000000        0x1 ../src/ASF/thirdparty/wireless/ble_smart_sdk/lib/cm0/gcc\libblusdk.a(event.o)
 .text          0x00000000        0x0 ../src/ASF/thirdparty/wireless/ble_smart_sdk/lib/cm0/gcc\libblusdk.a(gap.o)
 .data          0x00000000        0x0 ../src/ASF/thirdparty/wireless/ble_smart_sdk/lib/cm0/gcc\libblusdk.a(gap.o)
 .bss           0x00000000        0x0 ../src/ASF/thirdparty/wireless/ble_smart_sdk/lib/cm0/gcc\libblusdk.a(gap.o)
 .text.at_ble_gap_get_peer_deviceinfo
                0x00000000       0x2e ../src/ASF/thirdparty/wireless/ble_smart_sdk/lib/cm0/gcc\libblusdk.a(gap.o)
 .text.at_ble_set_privacy_key
                0x00000000       0x34 ../src/ASF/thirdparty/wireless/ble_smart_sdk/lib/cm0/gcc\libblusdk.a(gap.o)
 .text.at_ble_set_gap_deviceinfo
                0x00000000       0x78 ../src/ASF/thirdparty/wireless/ble_smart_sdk/lib/cm0/gcc\libblusdk.a(gap.o)
 .text.at_ble_set_att_config
                0x00000000       0x30 ../src/ASF/thirdparty/wireless/ble_smart_sdk/lib/cm0/gcc\libblusdk.a(gap.o)
 .text.at_ble_set_channel_map
                0x00000000       0x18 ../src/ASF/thirdparty/wireless/ble_smart_sdk/lib/cm0/gcc\libblusdk.a(gap.o)
 .text.at_ble_set_adv_channel_Map
                0x00000000       0x1c ../src/ASF/thirdparty/wireless/ble_smart_sdk/lib/cm0/gcc\libblusdk.a(gap.o)
 .text.at_ble_scan_start
                0x00000000       0x90 ../src/ASF/thirdparty/wireless/ble_smart_sdk/lib/cm0/gcc\libblusdk.a(gap.o)
 .text.at_ble_set_conn_mode
                0x00000000       0x18 ../src/ASF/thirdparty/wireless/ble_smart_sdk/lib/cm0/gcc\libblusdk.a(gap.o)
 .text.at_ble_connect
                0x00000000       0xd8 ../src/ASF/thirdparty/wireless/ble_smart_sdk/lib/cm0/gcc\libblusdk.a(gap.o)
 .text.at_ble_whitelist_add
                0x00000000       0x20 ../src/ASF/thirdparty/wireless/ble_smart_sdk/lib/cm0/gcc\libblusdk.a(gap.o)
 .text.at_ble_whitelist_remove
                0x00000000       0x20 ../src/ASF/thirdparty/wireless/ble_smart_sdk/lib/cm0/gcc\libblusdk.a(gap.o)
 .text.at_ble_whitelist_clear
                0x00000000       0x14 ../src/ASF/thirdparty/wireless/ble_smart_sdk/lib/cm0/gcc\libblusdk.a(gap.o)
 .text.at_ble_get_whitelist_size
                0x00000000       0x18 ../src/ASF/thirdparty/wireless/ble_smart_sdk/lib/cm0/gcc\libblusdk.a(gap.o)
 .text.at_ble_connection_param_update
                0x00000000       0x64 ../src/ASF/thirdparty/wireless/ble_smart_sdk/lib/cm0/gcc\libblusdk.a(gap.o)
 .text.at_ble_send_sec_config
                0x00000000       0x3c ../src/ASF/thirdparty/wireless/ble_smart_sdk/lib/cm0/gcc\libblusdk.a(gap.o)
 .text.at_ble_connect_cancel
                0x00000000       0x14 ../src/ASF/thirdparty/wireless/ble_smart_sdk/lib/cm0/gcc\libblusdk.a(gap.o)
 .text.at_ble_rx_power_get
                0x00000000       0x28 ../src/ASF/thirdparty/wireless/ble_smart_sdk/lib/cm0/gcc\libblusdk.a(gap.o)
 .text.at_ble_tx_power_set
                0x00000000       0x24 ../src/ASF/thirdparty/wireless/ble_smart_sdk/lib/cm0/gcc\libblusdk.a(gap.o)
 .text.at_ble_tx_power_get
                0x00000000       0x28 ../src/ASF/thirdparty/wireless/ble_smart_sdk/lib/cm0/gcc\libblusdk.a(gap.o)
 .text.at_ble_chip_id_get
                0x00000000       0x18 ../src/ASF/thirdparty/wireless/ble_smart_sdk/lib/cm0/gcc\libblusdk.a(gap.o)
 .text.read_32_from_BTLC1000
                0x00000000       0x10 ../src/ASF/thirdparty/wireless/ble_smart_sdk/lib/cm0/gcc\libblusdk.a(gap.o)
 .text.at_ble_firmware_version_get
                0x00000000        0x8 ../src/ASF/thirdparty/wireless/ble_smart_sdk/lib/cm0/gcc\libblusdk.a(gap.o)
 .text.at_ble_ll_reset
                0x00000000        0xc ../src/ASF/thirdparty/wireless/ble_smart_sdk/lib/cm0/gcc\libblusdk.a(gap.o)
 .text.at_ble_calib_config
                0x00000000        0xc ../src/ASF/thirdparty/wireless/ble_smart_sdk/lib/cm0/gcc\libblusdk.a(gap.o)
 .text.at_ble_calib_get_voltage
                0x00000000        0xc ../src/ASF/thirdparty/wireless/ble_smart_sdk/lib/cm0/gcc\libblusdk.a(gap.o)
 .text.at_ble_calib_get_temp
                0x00000000        0xc ../src/ASF/thirdparty/wireless/ble_smart_sdk/lib/cm0/gcc\libblusdk.a(gap.o)
 .text          0x00000000        0x0 ../src/ASF/thirdparty/wireless/ble_smart_sdk/lib/cm0/gcc\libblusdk.a(gatt_client.o)
 .data          0x00000000        0x0 ../src/ASF/thirdparty/wireless/ble_smart_sdk/lib/cm0/gcc\libblusdk.a(gatt_client.o)
 .bss           0x00000000        0x0 ../src/ASF/thirdparty/wireless/ble_smart_sdk/lib/cm0/gcc\libblusdk.a(gatt_client.o)
 .text.at_ble_primary_service_discover_all
                0x00000000       0x28 ../src/ASF/thirdparty/wireless/ble_smart_sdk/lib/cm0/gcc\libblusdk.a(gatt_client.o)
 .text.at_ble_primary_service_discover_by_uuid
                0x00000000       0x58 ../src/ASF/thirdparty/wireless/ble_smart_sdk/lib/cm0/gcc\libblusdk.a(gatt_client.o)
 .text.at_ble_included_service_discover_all
                0x00000000       0x28 ../src/ASF/thirdparty/wireless/ble_smart_sdk/lib/cm0/gcc\libblusdk.a(gatt_client.o)
 .text.at_ble_characteristic_discover_all
                0x00000000       0x28 ../src/ASF/thirdparty/wireless/ble_smart_sdk/lib/cm0/gcc\libblusdk.a(gatt_client.o)
 .text.at_ble_characteristic_discover_by_uuid
                0x00000000       0x58 ../src/ASF/thirdparty/wireless/ble_smart_sdk/lib/cm0/gcc\libblusdk.a(gatt_client.o)
 .text.at_ble_descriptor_discover_all
                0x00000000       0x28 ../src/ASF/thirdparty/wireless/ble_smart_sdk/lib/cm0/gcc\libblusdk.a(gatt_client.o)
 .text.at_ble_characteristic_write
                0x00000000       0x4c ../src/ASF/thirdparty/wireless/ble_smart_sdk/lib/cm0/gcc\libblusdk.a(gatt_client.o)
 .text.at_ble_characteristic_reliable_write_prepare
                0x00000000       0x2c ../src/ASF/thirdparty/wireless/ble_smart_sdk/lib/cm0/gcc\libblusdk.a(gatt_client.o)
 .text.at_ble_characteristic_reliable_write_execute
                0x00000000       0x14 ../src/ASF/thirdparty/wireless/ble_smart_sdk/lib/cm0/gcc\libblusdk.a(gatt_client.o)
 .text.at_ble_characteristic_reliable_write_cancel
                0x00000000       0x14 ../src/ASF/thirdparty/wireless/ble_smart_sdk/lib/cm0/gcc\libblusdk.a(gatt_client.o)
 .text.at_ble_exchange_mtu
                0x00000000       0x10 ../src/ASF/thirdparty/wireless/ble_smart_sdk/lib/cm0/gcc\libblusdk.a(gatt_client.o)
 .text.at_ble_characteristic_read_by_uuid
                0x00000000       0x50 ../src/ASF/thirdparty/wireless/ble_smart_sdk/lib/cm0/gcc\libblusdk.a(gatt_client.o)
 .text.at_ble_characteristic_read
                0x00000000       0x34 ../src/ASF/thirdparty/wireless/ble_smart_sdk/lib/cm0/gcc\libblusdk.a(gatt_client.o)
 .text.at_ble_characteristic_read_long
                0x00000000       0x34 ../src/ASF/thirdparty/wireless/ble_smart_sdk/lib/cm0/gcc\libblusdk.a(gatt_client.o)
 .text.at_ble_characteristic_read_multiple
                0x00000000       0x30 ../src/ASF/thirdparty/wireless/ble_smart_sdk/lib/cm0/gcc\libblusdk.a(gatt_client.o)
 .text          0x00000000        0x0 ../src/ASF/thirdparty/wireless/ble_smart_sdk/lib/cm0/gcc\libblusdk.a(gatt_server.o)
 .data          0x00000000        0x0 ../src/ASF/thirdparty/wireless/ble_smart_sdk/lib/cm0/gcc\libblusdk.a(gatt_server.o)
 .bss           0x00000000        0x0 ../src/ASF/thirdparty/wireless/ble_smart_sdk/lib/cm0/gcc\libblusdk.a(gatt_server.o)
 .text.at_ble_service_define
                0x00000000      0x4d0 ../src/ASF/thirdparty/wireless/ble_smart_sdk/lib/cm0/gcc\libblusdk.a(gatt_server.o)
 .text.at_ble_secondary_service_define
                0x00000000       0x20 ../src/ASF/thirdparty/wireless/ble_smart_sdk/lib/cm0/gcc\libblusdk.a(gatt_server.o)
 .text.at_ble_descriptor_value_set
                0x00000000        0xc ../src/ASF/thirdparty/wireless/ble_smart_sdk/lib/cm0/gcc\libblusdk.a(gatt_server.o)
 .text.at_ble_descriptor_value_get
                0x00000000        0xc ../src/ASF/thirdparty/wireless/ble_smart_sdk/lib/cm0/gcc\libblusdk.a(gatt_server.o)
 .text.at_ble_read_authorize_reply
                0x00000000       0x28 ../src/ASF/thirdparty/wireless/ble_smart_sdk/lib/cm0/gcc\libblusdk.a(gatt_server.o)
 .text.at_ble_indication_send
                0x00000000       0x74 ../src/ASF/thirdparty/wireless/ble_smart_sdk/lib/cm0/gcc\libblusdk.a(gatt_server.o)
 .text.at_ble_send_service_changed_indication
                0x00000000       0x18 ../src/ASF/thirdparty/wireless/ble_smart_sdk/lib/cm0/gcc\libblusdk.a(gatt_server.o)
 .rodata.primary_service_uuid
                0x00000000        0x2 ../src/ASF/thirdparty/wireless/ble_smart_sdk/lib/cm0/gcc\libblusdk.a(gatt_server.o)
 .rodata.secondary_service_uuid
                0x00000000        0x2 ../src/ASF/thirdparty/wireless/ble_smart_sdk/lib/cm0/gcc\libblusdk.a(gatt_server.o)
 .text          0x00000000        0x0 ../src/ASF/thirdparty/wireless/ble_smart_sdk/lib/cm0/gcc\libblusdk.a(l2cc_task.o)
 .data          0x00000000        0x0 ../src/ASF/thirdparty/wireless/ble_smart_sdk/lib/cm0/gcc\libblusdk.a(l2cc_task.o)
 .bss           0x00000000        0x0 ../src/ASF/thirdparty/wireless/ble_smart_sdk/lib/cm0/gcc\libblusdk.a(l2cc_task.o)
 .text.l2cc_pdu_send_req_handler
                0x00000000       0x74 ../src/ASF/thirdparty/wireless/ble_smart_sdk/lib/cm0/gcc\libblusdk.a(l2cc_task.o)
 .text          0x00000000        0x0 ../src/ASF/thirdparty/wireless/ble_smart_sdk/lib/cm0/gcc\libblusdk.a(security.o)
 .data          0x00000000        0x0 ../src/ASF/thirdparty/wireless/ble_smart_sdk/lib/cm0/gcc\libblusdk.a(security.o)
 .bss           0x00000000        0x0 ../src/ASF/thirdparty/wireless/ble_smart_sdk/lib/cm0/gcc\libblusdk.a(security.o)
 .text          0x00000000        0x0 ../src/ASF/thirdparty/wireless/ble_smart_sdk/lib/cm0/gcc\libblusdk.a(interface.o)
 .data          0x00000000        0x0 ../src/ASF/thirdparty/wireless/ble_smart_sdk/lib/cm0/gcc\libblusdk.a(interface.o)
 .bss           0x00000000        0x0 ../src/ASF/thirdparty/wireless/ble_smart_sdk/lib/cm0/gcc\libblusdk.a(interface.o)
 .bss.event_flag
                0x00000000        0x4 ../src/ASF/thirdparty/wireless/ble_smart_sdk/lib/cm0/gcc\libblusdk.a(interface.o)
 .text          0x00000000        0x0 ../src/ASF/thirdparty/wireless/ble_smart_sdk/lib/cm0/gcc\libblusdk.a(calib_task.o)
 .data          0x00000000        0x0 ../src/ASF/thirdparty/wireless/ble_smart_sdk/lib/cm0/gcc\libblusdk.a(calib_task.o)
 .bss           0x00000000        0x0 ../src/ASF/thirdparty/wireless/ble_smart_sdk/lib/cm0/gcc\libblusdk.a(calib_task.o)
 .text.calib_config
                0x00000000       0x64 ../src/ASF/thirdparty/wireless/ble_smart_sdk/lib/cm0/gcc\libblusdk.a(calib_task.o)
 .text.calib_get_temp
                0x00000000       0x7c ../src/ASF/thirdparty/wireless/ble_smart_sdk/lib/cm0/gcc\libblusdk.a(calib_task.o)
 .text.calib_get_voltage
                0x00000000       0x94 ../src/ASF/thirdparty/wireless/ble_smart_sdk/lib/cm0/gcc\libblusdk.a(calib_task.o)
 .comment       0x00000000       0x5c ../src/ASF/thirdparty/wireless/ble_smart_sdk/lib/cm0/gcc\libblusdk.a(calib_task.o)
 .ARM.attributes
                0x00000000       0x31 ../src/ASF/thirdparty/wireless/ble_smart_sdk/lib/cm0/gcc\libblusdk.a(calib_task.o)
 .text          0x00000000        0x0 ../src/ASF/thirdparty/wireless/ble_smart_sdk/lib/cm0/gcc\libblusdk.a(dbg_task.o)
 .data          0x00000000        0x0 ../src/ASF/thirdparty/wireless/ble_smart_sdk/lib/cm0/gcc\libblusdk.a(dbg_task.o)
 .bss           0x00000000        0x0 ../src/ASF/thirdparty/wireless/ble_smart_sdk/lib/cm0/gcc\libblusdk.a(dbg_task.o)
 .text.dbg_wr_mem_req_handler
                0x00000000       0xb8 ../src/ASF/thirdparty/wireless/ble_smart_sdk/lib/cm0/gcc\libblusdk.a(dbg_task.o)
 .text.dbg_rd_mem_req_handler
                0x00000000       0xa4 ../src/ASF/thirdparty/wireless/ble_smart_sdk/lib/cm0/gcc\libblusdk.a(dbg_task.o)
 .text          0x00000000        0x0 ../src/ASF/thirdparty/wireless/ble_smart_sdk/lib/cm0/gcc\libblusdk.a(gapc_task.o)
 .data          0x00000000        0x0 ../src/ASF/thirdparty/wireless/ble_smart_sdk/lib/cm0/gcc\libblusdk.a(gapc_task.o)
 .bss           0x00000000        0x0 ../src/ASF/thirdparty/wireless/ble_smart_sdk/lib/cm0/gcc\libblusdk.a(gapc_task.o)
 .text.gapc_param_update_cmd_handler
                0x00000000       0x7c ../src/ASF/thirdparty/wireless/ble_smart_sdk/lib/cm0/gcc\libblusdk.a(gapc_task.o)
 .text.gapc_get_info_cmd_handler
                0x00000000       0xe0 ../src/ASF/thirdparty/wireless/ble_smart_sdk/lib/cm0/gcc\libblusdk.a(gapc_task.o)
 .text.gapc_lecb_create_handler
                0x00000000       0x94 ../src/ASF/thirdparty/wireless/ble_smart_sdk/lib/cm0/gcc\libblusdk.a(gapc_task.o)
 .text.gapc_lecb_destroy_handler
                0x00000000       0x6c ../src/ASF/thirdparty/wireless/ble_smart_sdk/lib/cm0/gcc\libblusdk.a(gapc_task.o)
 .text.gapc_lecb_connect_cmd_handler
                0x00000000       0x50 ../src/ASF/thirdparty/wireless/ble_smart_sdk/lib/cm0/gcc\libblusdk.a(gapc_task.o)
 .text.gapc_lecb_connect_cfm_handler
                0x00000000       0x48 ../src/ASF/thirdparty/wireless/ble_smart_sdk/lib/cm0/gcc\libblusdk.a(gapc_task.o)
 .text.gapc_lecb_disconnect_cmd_handler
                0x00000000       0x44 ../src/ASF/thirdparty/wireless/ble_smart_sdk/lib/cm0/gcc\libblusdk.a(gapc_task.o)
 .text.gapc_lecb_add_cmd_handler
                0x00000000       0x74 ../src/ASF/thirdparty/wireless/ble_smart_sdk/lib/cm0/gcc\libblusdk.a(gapc_task.o)
 .text          0x00000000        0x0 ../src/ASF/thirdparty/wireless/ble_smart_sdk/lib/cm0/gcc\libblusdk.a(gapm_task.o)
 .data          0x00000000        0x0 ../src/ASF/thirdparty/wireless/ble_smart_sdk/lib/cm0/gcc\libblusdk.a(gapm_task.o)
 .bss           0x00000000        0x0 ../src/ASF/thirdparty/wireless/ble_smart_sdk/lib/cm0/gcc\libblusdk.a(gapm_task.o)
 .text.gapm_set_channel_map_cmd_handler
                0x00000000       0x88 ../src/ASF/thirdparty/wireless/ble_smart_sdk/lib/cm0/gcc\libblusdk.a(gapm_task.o)
 .text.gapm_start_scan_cmd_handler
                0x00000000       0x98 ../src/ASF/thirdparty/wireless/ble_smart_sdk/lib/cm0/gcc\libblusdk.a(gapm_task.o)
 .text.gapm_start_connection_cmd_handler
                0x00000000      0x11c ../src/ASF/thirdparty/wireless/ble_smart_sdk/lib/cm0/gcc\libblusdk.a(gapm_task.o)
 .text.gapm_white_list_mgm_cmd
                0x00000000      0x108 ../src/ASF/thirdparty/wireless/ble_smart_sdk/lib/cm0/gcc\libblusdk.a(gapm_task.o)
 .text.gapm_profile_task_add_cmd_handler
                0x00000000       0xe8 ../src/ASF/thirdparty/wireless/ble_smart_sdk/lib/cm0/gcc\libblusdk.a(gapm_task.o)
 .text          0x00000000        0x0 ../src/ASF/thirdparty/wireless/ble_smart_sdk/lib/cm0/gcc\libblusdk.a(gattc_task.o)
 .data          0x00000000        0x0 ../src/ASF/thirdparty/wireless/ble_smart_sdk/lib/cm0/gcc\libblusdk.a(gattc_task.o)
 .bss           0x00000000        0x0 ../src/ASF/thirdparty/wireless/ble_smart_sdk/lib/cm0/gcc\libblusdk.a(gattc_task.o)
 .text.gattc_disc_cmd_handler
                0x00000000       0x90 ../src/ASF/thirdparty/wireless/ble_smart_sdk/lib/cm0/gcc\libblusdk.a(gattc_task.o)
 .text.gattc_reg_to_peer_handler
                0x00000000       0x4c ../src/ASF/thirdparty/wireless/ble_smart_sdk/lib/cm0/gcc\libblusdk.a(gattc_task.o)
 .text.gattc_write_execute_cmd_handler
                0x00000000       0x54 ../src/ASF/thirdparty/wireless/ble_smart_sdk/lib/cm0/gcc\libblusdk.a(gattc_task.o)
 .text.gattc_write_cmd_handler
                0x00000000       0x88 ../src/ASF/thirdparty/wireless/ble_smart_sdk/lib/cm0/gcc\libblusdk.a(gattc_task.o)
 .text.gattc_read_cmd_handler_by_uuid
                0x00000000       0x6c ../src/ASF/thirdparty/wireless/ble_smart_sdk/lib/cm0/gcc\libblusdk.a(gattc_task.o)
 .text.gattc_read_cmd_handler_simple_read
                0x00000000       0x50 ../src/ASF/thirdparty/wireless/ble_smart_sdk/lib/cm0/gcc\libblusdk.a(gattc_task.o)
 .text.gattc_read_cmd_handler_multible
                0x00000000       0x68 ../src/ASF/thirdparty/wireless/ble_smart_sdk/lib/cm0/gcc\libblusdk.a(gattc_task.o)
 .text.gattc_mtu_cmd_handler
                0x00000000       0x50 ../src/ASF/thirdparty/wireless/ble_smart_sdk/lib/cm0/gcc\libblusdk.a(gattc_task.o)
 .text.gattc_read_cmd_handler
                0x00000000       0x98 ../src/ASF/thirdparty/wireless/ble_smart_sdk/lib/cm0/gcc\libblusdk.a(gattc_task.o)
 .text.gattc_read_multiple_handler
                0x00000000       0x80 ../src/ASF/thirdparty/wireless/ble_smart_sdk/lib/cm0/gcc\libblusdk.a(gattc_task.o)
 .text.gattc_svc_changed_ind_cmd_handler
                0x00000000       0x60 ../src/ASF/thirdparty/wireless/ble_smart_sdk/lib/cm0/gcc\libblusdk.a(gattc_task.o)
 .text          0x00000000        0x0 ../src/ASF/thirdparty/wireless/ble_smart_sdk/lib/cm0/gcc\libblusdk.a(gattm_task.o)
 .data          0x00000000        0x0 ../src/ASF/thirdparty/wireless/ble_smart_sdk/lib/cm0/gcc\libblusdk.a(gattm_task.o)
 .bss           0x00000000        0x0 ../src/ASF/thirdparty/wireless/ble_smart_sdk/lib/cm0/gcc\libblusdk.a(gattm_task.o)
 .text.init_gattm_task_module
                0x00000000        0xc ../src/ASF/thirdparty/wireless/ble_smart_sdk/lib/cm0/gcc\libblusdk.a(gattm_task.o)
 .text          0x00000000        0x0 ../src/ASF/thirdparty/wireless/ble_smart_sdk/lib/cm0/gcc\libblusdk.a(htpt_task.o)
 .data          0x00000000        0x0 ../src/ASF/thirdparty/wireless/ble_smart_sdk/lib/cm0/gcc\libblusdk.a(htpt_task.o)
 .bss           0x00000000        0x0 ../src/ASF/thirdparty/wireless/ble_smart_sdk/lib/cm0/gcc\libblusdk.a(htpt_task.o)
 .text.htpt_create_db_req_handler
                0x00000000       0x40 ../src/ASF/thirdparty/wireless/ble_smart_sdk/lib/cm0/gcc\libblusdk.a(htpt_task.o)
 .text.htpt_enable_req_handler
                0x00000000       0x40 ../src/ASF/thirdparty/wireless/ble_smart_sdk/lib/cm0/gcc\libblusdk.a(htpt_task.o)
 .text.htpt_temp_send_req_handler
                0x00000000       0x78 ../src/ASF/thirdparty/wireless/ble_smart_sdk/lib/cm0/gcc\libblusdk.a(htpt_task.o)
 .text.htpt_meas_intv_upd_req_handler
                0x00000000       0x44 ../src/ASF/thirdparty/wireless/ble_smart_sdk/lib/cm0/gcc\libblusdk.a(htpt_task.o)
 .text.htpt_meas_intv_chg_cfm_handler
                0x00000000       0x40 ../src/ASF/thirdparty/wireless/ble_smart_sdk/lib/cm0/gcc\libblusdk.a(htpt_task.o)
 .text          0x00000000        0x0 c:/program files (x86)/atmel/studio/7.0/toolchain/arm/arm-gnu-toolchain/bin/../lib/gcc/arm-none-eabi/5.3.1/../../../../arm-none-eabi/lib/armv6-m\libm.a(lib_a-w_pow.o)
 .data          0x00000000        0x0 c:/program files (x86)/atmel/studio/7.0/toolchain/arm/arm-gnu-toolchain/bin/../lib/gcc/arm-none-eabi/5.3.1/../../../../arm-none-eabi/lib/armv6-m\libm.a(lib_a-w_pow.o)
 .bss           0x00000000        0x0 c:/program files (x86)/atmel/studio/7.0/toolchain/arm/arm-gnu-toolchain/bin/../lib/gcc/arm-none-eabi/5.3.1/../../../../arm-none-eabi/lib/armv6-m\libm.a(lib_a-w_pow.o)
 .text          0x00000000        0x0 c:/program files (x86)/atmel/studio/7.0/toolchain/arm/arm-gnu-toolchain/bin/../lib/gcc/arm-none-eabi/5.3.1/../../../../arm-none-eabi/lib/armv6-m\libm.a(lib_a-wf_sqrt.o)
 .data          0x00000000        0x0 c:/program files (x86)/atmel/studio/7.0/toolchain/arm/arm-gnu-toolchain/bin/../lib/gcc/arm-none-eabi/5.3.1/../../../../arm-none-eabi/lib/armv6-m\libm.a(lib_a-wf_sqrt.o)
 .bss           0x00000000        0x0 c:/program files (x86)/atmel/studio/7.0/toolchain/arm/arm-gnu-toolchain/bin/../lib/gcc/arm-none-eabi/5.3.1/../../../../arm-none-eabi/lib/armv6-m\libm.a(lib_a-wf_sqrt.o)
 .text          0x00000000        0x0 c:/program files (x86)/atmel/studio/7.0/toolchain/arm/arm-gnu-toolchain/bin/../lib/gcc/arm-none-eabi/5.3.1/../../../../arm-none-eabi/lib/armv6-m\libm.a(lib_a-e_pow.o)
 .data          0x00000000        0x0 c:/program files (x86)/atmel/studio/7.0/toolchain/arm/arm-gnu-toolchain/bin/../lib/gcc/arm-none-eabi/5.3.1/../../../../arm-none-eabi/lib/armv6-m\libm.a(lib_a-e_pow.o)
 .bss           0x00000000        0x0 c:/program files (x86)/atmel/studio/7.0/toolchain/arm/arm-gnu-toolchain/bin/../lib/gcc/arm-none-eabi/5.3.1/../../../../arm-none-eabi/lib/armv6-m\libm.a(lib_a-e_pow.o)
 .text          0x00000000        0x0 c:/program files (x86)/atmel/studio/7.0/toolchain/arm/arm-gnu-toolchain/bin/../lib/gcc/arm-none-eabi/5.3.1/../../../../arm-none-eabi/lib/armv6-m\libm.a(lib_a-e_sqrt.o)
 .data          0x00000000        0x0 c:/program files (x86)/atmel/studio/7.0/toolchain/arm/arm-gnu-toolchain/bin/../lib/gcc/arm-none-eabi/5.3.1/../../../../arm-none-eabi/lib/armv6-m\libm.a(lib_a-e_sqrt.o)
 .bss           0x00000000        0x0 c:/program files (x86)/atmel/studio/7.0/toolchain/arm/arm-gnu-toolchain/bin/../lib/gcc/arm-none-eabi/5.3.1/../../../../arm-none-eabi/lib/armv6-m\libm.a(lib_a-e_sqrt.o)
 .text          0x00000000        0x0 c:/program files (x86)/atmel/studio/7.0/toolchain/arm/arm-gnu-toolchain/bin/../lib/gcc/arm-none-eabi/5.3.1/../../../../arm-none-eabi/lib/armv6-m\libm.a(lib_a-ef_sqrt.o)
 .data          0x00000000        0x0 c:/program files (x86)/atmel/studio/7.0/toolchain/arm/arm-gnu-toolchain/bin/../lib/gcc/arm-none-eabi/5.3.1/../../../../arm-none-eabi/lib/armv6-m\libm.a(lib_a-ef_sqrt.o)
 .bss           0x00000000        0x0 c:/program files (x86)/atmel/studio/7.0/toolchain/arm/arm-gnu-toolchain/bin/../lib/gcc/arm-none-eabi/5.3.1/../../../../arm-none-eabi/lib/armv6-m\libm.a(lib_a-ef_sqrt.o)
 .text          0x00000000        0x0 c:/program files (x86)/atmel/studio/7.0/toolchain/arm/arm-gnu-toolchain/bin/../lib/gcc/arm-none-eabi/5.3.1/../../../../arm-none-eabi/lib/armv6-m\libm.a(lib_a-s_fabs.o)
 .data          0x00000000        0x0 c:/program files (x86)/atmel/studio/7.0/toolchain/arm/arm-gnu-toolchain/bin/../lib/gcc/arm-none-eabi/5.3.1/../../../../arm-none-eabi/lib/armv6-m\libm.a(lib_a-s_fabs.o)
 .bss           0x00000000        0x0 c:/program files (x86)/atmel/studio/7.0/toolchain/arm/arm-gnu-toolchain/bin/../lib/gcc/arm-none-eabi/5.3.1/../../../../arm-none-eabi/lib/armv6-m\libm.a(lib_a-s_fabs.o)
 .text          0x00000000        0x0 c:/program files (x86)/atmel/studio/7.0/toolchain/arm/arm-gnu-toolchain/bin/../lib/gcc/arm-none-eabi/5.3.1/../../../../arm-none-eabi/lib/armv6-m\libm.a(lib_a-s_finite.o)
 .data          0x00000000        0x0 c:/program files (x86)/atmel/studio/7.0/toolchain/arm/arm-gnu-toolchain/bin/../lib/gcc/arm-none-eabi/5.3.1/../../../../arm-none-eabi/lib/armv6-m\libm.a(lib_a-s_finite.o)
 .bss           0x00000000        0x0 c:/program files (x86)/atmel/studio/7.0/toolchain/arm/arm-gnu-toolchain/bin/../lib/gcc/arm-none-eabi/5.3.1/../../../../arm-none-eabi/lib/armv6-m\libm.a(lib_a-s_finite.o)
 .text          0x00000000        0x0 c:/program files (x86)/atmel/studio/7.0/toolchain/arm/arm-gnu-toolchain/bin/../lib/gcc/arm-none-eabi/5.3.1/../../../../arm-none-eabi/lib/armv6-m\libm.a(lib_a-s_lib_ver.o)
 .data          0x00000000        0x0 c:/program files (x86)/atmel/studio/7.0/toolchain/arm/arm-gnu-toolchain/bin/../lib/gcc/arm-none-eabi/5.3.1/../../../../arm-none-eabi/lib/armv6-m\libm.a(lib_a-s_lib_ver.o)
 .bss           0x00000000        0x0 c:/program files (x86)/atmel/studio/7.0/toolchain/arm/arm-gnu-toolchain/bin/../lib/gcc/arm-none-eabi/5.3.1/../../../../arm-none-eabi/lib/armv6-m\libm.a(lib_a-s_lib_ver.o)
 .text          0x00000000        0x0 c:/program files (x86)/atmel/studio/7.0/toolchain/arm/arm-gnu-toolchain/bin/../lib/gcc/arm-none-eabi/5.3.1/../../../../arm-none-eabi/lib/armv6-m\libm.a(lib_a-s_matherr.o)
 .data          0x00000000        0x0 c:/program files (x86)/atmel/studio/7.0/toolchain/arm/arm-gnu-toolchain/bin/../lib/gcc/arm-none-eabi/5.3.1/../../../../arm-none-eabi/lib/armv6-m\libm.a(lib_a-s_matherr.o)
 .bss           0x00000000        0x0 c:/program files (x86)/atmel/studio/7.0/toolchain/arm/arm-gnu-toolchain/bin/../lib/gcc/arm-none-eabi/5.3.1/../../../../arm-none-eabi/lib/armv6-m\libm.a(lib_a-s_matherr.o)
 .text          0x00000000        0x0 c:/program files (x86)/atmel/studio/7.0/toolchain/arm/arm-gnu-toolchain/bin/../lib/gcc/arm-none-eabi/5.3.1/../../../../arm-none-eabi/lib/armv6-m\libm.a(lib_a-s_nan.o)
 .data          0x00000000        0x0 c:/program files (x86)/atmel/studio/7.0/toolchain/arm/arm-gnu-toolchain/bin/../lib/gcc/arm-none-eabi/5.3.1/../../../../arm-none-eabi/lib/armv6-m\libm.a(lib_a-s_nan.o)
 .bss           0x00000000        0x0 c:/program files (x86)/atmel/studio/7.0/toolchain/arm/arm-gnu-toolchain/bin/../lib/gcc/arm-none-eabi/5.3.1/../../../../arm-none-eabi/lib/armv6-m\libm.a(lib_a-s_nan.o)
 .text          0x00000000        0x0 c:/program files (x86)/atmel/studio/7.0/toolchain/arm/arm-gnu-toolchain/bin/../lib/gcc/arm-none-eabi/5.3.1/../../../../arm-none-eabi/lib/armv6-m\libm.a(lib_a-s_rint.o)
 .data          0x00000000        0x0 c:/program files (x86)/atmel/studio/7.0/toolchain/arm/arm-gnu-toolchain/bin/../lib/gcc/arm-none-eabi/5.3.1/../../../../arm-none-eabi/lib/armv6-m\libm.a(lib_a-s_rint.o)
 .bss           0x00000000        0x0 c:/program files (x86)/atmel/studio/7.0/toolchain/arm/arm-gnu-toolchain/bin/../lib/gcc/arm-none-eabi/5.3.1/../../../../arm-none-eabi/lib/armv6-m\libm.a(lib_a-s_rint.o)
 .text          0x00000000        0x0 c:/program files (x86)/atmel/studio/7.0/toolchain/arm/arm-gnu-toolchain/bin/../lib/gcc/arm-none-eabi/5.3.1/../../../../arm-none-eabi/lib/armv6-m\libm.a(lib_a-s_scalbn.o)
 .data          0x00000000        0x0 c:/program files (x86)/atmel/studio/7.0/toolchain/arm/arm-gnu-toolchain/bin/../lib/gcc/arm-none-eabi/5.3.1/../../../../arm-none-eabi/lib/armv6-m\libm.a(lib_a-s_scalbn.o)
 .bss           0x00000000        0x0 c:/program files (x86)/atmel/studio/7.0/toolchain/arm/arm-gnu-toolchain/bin/../lib/gcc/arm-none-eabi/5.3.1/../../../../arm-none-eabi/lib/armv6-m\libm.a(lib_a-s_scalbn.o)
 .text          0x00000000        0x0 c:/program files (x86)/atmel/studio/7.0/toolchain/arm/arm-gnu-toolchain/bin/../lib/gcc/arm-none-eabi/5.3.1/../../../../arm-none-eabi/lib/armv6-m\libm.a(lib_a-s_copysign.o)
 .data          0x00000000        0x0 c:/program files (x86)/atmel/studio/7.0/toolchain/arm/arm-gnu-toolchain/bin/../lib/gcc/arm-none-eabi/5.3.1/../../../../arm-none-eabi/lib/armv6-m\libm.a(lib_a-s_copysign.o)
 .bss           0x00000000        0x0 c:/program files (x86)/atmel/studio/7.0/toolchain/arm/arm-gnu-toolchain/bin/../lib/gcc/arm-none-eabi/5.3.1/../../../../arm-none-eabi/lib/armv6-m\libm.a(lib_a-s_copysign.o)
 .data          0x00000000        0x0 c:/program files (x86)/atmel/studio/7.0/toolchain/arm/arm-gnu-toolchain/bin/../lib/gcc/arm-none-eabi/5.3.1/armv6-m\libgcc.a(_thumb1_case_sqi.o)
 .bss           0x00000000        0x0 c:/program files (x86)/atmel/studio/7.0/toolchain/arm/arm-gnu-toolchain/bin/../lib/gcc/arm-none-eabi/5.3.1/armv6-m\libgcc.a(_thumb1_case_sqi.o)
 .data          0x00000000        0x0 c:/program files (x86)/atmel/studio/7.0/toolchain/arm/arm-gnu-toolchain/bin/../lib/gcc/arm-none-eabi/5.3.1/armv6-m\libgcc.a(_thumb1_case_uqi.o)
 .bss           0x00000000        0x0 c:/program files (x86)/atmel/studio/7.0/toolchain/arm/arm-gnu-toolchain/bin/../lib/gcc/arm-none-eabi/5.3.1/armv6-m\libgcc.a(_thumb1_case_uqi.o)
 .data          0x00000000        0x0 c:/program files (x86)/atmel/studio/7.0/toolchain/arm/arm-gnu-toolchain/bin/../lib/gcc/arm-none-eabi/5.3.1/armv6-m\libgcc.a(_thumb1_case_uhi.o)
 .bss           0x00000000        0x0 c:/program files (x86)/atmel/studio/7.0/toolchain/arm/arm-gnu-toolchain/bin/../lib/gcc/arm-none-eabi/5.3.1/armv6-m\libgcc.a(_thumb1_case_uhi.o)
 .data          0x00000000        0x0 c:/program files (x86)/atmel/studio/7.0/toolchain/arm/arm-gnu-toolchain/bin/../lib/gcc/arm-none-eabi/5.3.1/armv6-m\libgcc.a(_udivsi3.o)
 .bss           0x00000000        0x0 c:/program files (x86)/atmel/studio/7.0/toolchain/arm/arm-gnu-toolchain/bin/../lib/gcc/arm-none-eabi/5.3.1/armv6-m\libgcc.a(_udivsi3.o)
 .data          0x00000000        0x0 c:/program files (x86)/atmel/studio/7.0/toolchain/arm/arm-gnu-toolchain/bin/../lib/gcc/arm-none-eabi/5.3.1/armv6-m\libgcc.a(_divsi3.o)
 .bss           0x00000000        0x0 c:/program files (x86)/atmel/studio/7.0/toolchain/arm/arm-gnu-toolchain/bin/../lib/gcc/arm-none-eabi/5.3.1/armv6-m\libgcc.a(_divsi3.o)
 .data          0x00000000        0x0 c:/program files (x86)/atmel/studio/7.0/toolchain/arm/arm-gnu-toolchain/bin/../lib/gcc/arm-none-eabi/5.3.1/armv6-m\libgcc.a(_dvmd_tls.o)
 .bss           0x00000000        0x0 c:/program files (x86)/atmel/studio/7.0/toolchain/arm/arm-gnu-toolchain/bin/../lib/gcc/arm-none-eabi/5.3.1/armv6-m\libgcc.a(_dvmd_tls.o)
 .data          0x00000000        0x0 c:/program files (x86)/atmel/studio/7.0/toolchain/arm/arm-gnu-toolchain/bin/../lib/gcc/arm-none-eabi/5.3.1/armv6-m\libgcc.a(_arm_cmpdf2.o)
 .bss           0x00000000        0x0 c:/program files (x86)/atmel/studio/7.0/toolchain/arm/arm-gnu-toolchain/bin/../lib/gcc/arm-none-eabi/5.3.1/armv6-m\libgcc.a(_arm_cmpdf2.o)
 .data          0x00000000        0x0 c:/program files (x86)/atmel/studio/7.0/toolchain/arm/arm-gnu-toolchain/bin/../lib/gcc/arm-none-eabi/5.3.1/armv6-m\libgcc.a(_arm_cmpsf2.o)
 .bss           0x00000000        0x0 c:/program files (x86)/atmel/studio/7.0/toolchain/arm/arm-gnu-toolchain/bin/../lib/gcc/arm-none-eabi/5.3.1/armv6-m\libgcc.a(_arm_cmpsf2.o)
 .data          0x00000000        0x0 c:/program files (x86)/atmel/studio/7.0/toolchain/arm/arm-gnu-toolchain/bin/../lib/gcc/arm-none-eabi/5.3.1/armv6-m\libgcc.a(_muldi3.o)
 .bss           0x00000000        0x0 c:/program files (x86)/atmel/studio/7.0/toolchain/arm/arm-gnu-toolchain/bin/../lib/gcc/arm-none-eabi/5.3.1/armv6-m\libgcc.a(_muldi3.o)
 .data          0x00000000        0x0 c:/program files (x86)/atmel/studio/7.0/toolchain/arm/arm-gnu-toolchain/bin/../lib/gcc/arm-none-eabi/5.3.1/armv6-m\libgcc.a(_fixunssfsi.o)
 .bss           0x00000000        0x0 c:/program files (x86)/atmel/studio/7.0/toolchain/arm/arm-gnu-toolchain/bin/../lib/gcc/arm-none-eabi/5.3.1/armv6-m\libgcc.a(_fixunssfsi.o)
 .data          0x00000000        0x0 c:/program files (x86)/atmel/studio/7.0/toolchain/arm/arm-gnu-toolchain/bin/../lib/gcc/arm-none-eabi/5.3.1/armv6-m\libgcc.a(_fixunsdfsi.o)
 .bss           0x00000000        0x0 c:/program files (x86)/atmel/studio/7.0/toolchain/arm/arm-gnu-toolchain/bin/../lib/gcc/arm-none-eabi/5.3.1/armv6-m\libgcc.a(_fixunsdfsi.o)
 .data          0x00000000        0x0 c:/program files (x86)/atmel/studio/7.0/toolchain/arm/arm-gnu-toolchain/bin/../lib/gcc/arm-none-eabi/5.3.1/armv6-m\libgcc.a(addsf3.o)
 .bss           0x00000000        0x0 c:/program files (x86)/atmel/studio/7.0/toolchain/arm/arm-gnu-toolchain/bin/../lib/gcc/arm-none-eabi/5.3.1/armv6-m\libgcc.a(addsf3.o)
 .data          0x00000000        0x0 c:/program files (x86)/atmel/studio/7.0/toolchain/arm/arm-gnu-toolchain/bin/../lib/gcc/arm-none-eabi/5.3.1/armv6-m\libgcc.a(divsf3.o)
 .bss           0x00000000        0x0 c:/program files (x86)/atmel/studio/7.0/toolchain/arm/arm-gnu-toolchain/bin/../lib/gcc/arm-none-eabi/5.3.1/armv6-m\libgcc.a(divsf3.o)
 .data          0x00000000        0x0 c:/program files (x86)/atmel/studio/7.0/toolchain/arm/arm-gnu-toolchain/bin/../lib/gcc/arm-none-eabi/5.3.1/armv6-m\libgcc.a(eqsf2.o)
 .bss           0x00000000        0x0 c:/program files (x86)/atmel/studio/7.0/toolchain/arm/arm-gnu-toolchain/bin/../lib/gcc/arm-none-eabi/5.3.1/armv6-m\libgcc.a(eqsf2.o)
 .data          0x00000000        0x0 c:/program files (x86)/atmel/studio/7.0/toolchain/arm/arm-gnu-toolchain/bin/../lib/gcc/arm-none-eabi/5.3.1/armv6-m\libgcc.a(gesf2.o)
 .bss           0x00000000        0x0 c:/program files (x86)/atmel/studio/7.0/toolchain/arm/arm-gnu-toolchain/bin/../lib/gcc/arm-none-eabi/5.3.1/armv6-m\libgcc.a(gesf2.o)
 .data          0x00000000        0x0 c:/program files (x86)/atmel/studio/7.0/toolchain/arm/arm-gnu-toolchain/bin/../lib/gcc/arm-none-eabi/5.3.1/armv6-m\libgcc.a(lesf2.o)
 .bss           0x00000000        0x0 c:/program files (x86)/atmel/studio/7.0/toolchain/arm/arm-gnu-toolchain/bin/../lib/gcc/arm-none-eabi/5.3.1/armv6-m\libgcc.a(lesf2.o)
 .data          0x00000000        0x0 c:/program files (x86)/atmel/studio/7.0/toolchain/arm/arm-gnu-toolchain/bin/../lib/gcc/arm-none-eabi/5.3.1/armv6-m\libgcc.a(mulsf3.o)
 .bss           0x00000000        0x0 c:/program files (x86)/atmel/studio/7.0/toolchain/arm/arm-gnu-toolchain/bin/../lib/gcc/arm-none-eabi/5.3.1/armv6-m\libgcc.a(mulsf3.o)
 .data          0x00000000        0x0 c:/program files (x86)/atmel/studio/7.0/toolchain/arm/arm-gnu-toolchain/bin/../lib/gcc/arm-none-eabi/5.3.1/armv6-m\libgcc.a(subsf3.o)
 .bss           0x00000000        0x0 c:/program files (x86)/atmel/studio/7.0/toolchain/arm/arm-gnu-toolchain/bin/../lib/gcc/arm-none-eabi/5.3.1/armv6-m\libgcc.a(subsf3.o)
 .data          0x00000000        0x0 c:/program files (x86)/atmel/studio/7.0/toolchain/arm/arm-gnu-toolchain/bin/../lib/gcc/arm-none-eabi/5.3.1/armv6-m\libgcc.a(unordsf2.o)
 .bss           0x00000000        0x0 c:/program files (x86)/atmel/studio/7.0/toolchain/arm/arm-gnu-toolchain/bin/../lib/gcc/arm-none-eabi/5.3.1/armv6-m\libgcc.a(unordsf2.o)
 .data          0x00000000        0x0 c:/program files (x86)/atmel/studio/7.0/toolchain/arm/arm-gnu-toolchain/bin/../lib/gcc/arm-none-eabi/5.3.1/armv6-m\libgcc.a(fixsfsi.o)
 .bss           0x00000000        0x0 c:/program files (x86)/atmel/studio/7.0/toolchain/arm/arm-gnu-toolchain/bin/../lib/gcc/arm-none-eabi/5.3.1/armv6-m\libgcc.a(fixsfsi.o)
 .data          0x00000000        0x0 c:/program files (x86)/atmel/studio/7.0/toolchain/arm/arm-gnu-toolchain/bin/../lib/gcc/arm-none-eabi/5.3.1/armv6-m\libgcc.a(floatsisf.o)
 .bss           0x00000000        0x0 c:/program files (x86)/atmel/studio/7.0/toolchain/arm/arm-gnu-toolchain/bin/../lib/gcc/arm-none-eabi/5.3.1/armv6-m\libgcc.a(floatsisf.o)
 .data          0x00000000        0x0 c:/program files (x86)/atmel/studio/7.0/toolchain/arm/arm-gnu-toolchain/bin/../lib/gcc/arm-none-eabi/5.3.1/armv6-m\libgcc.a(floatunsisf.o)
 .bss           0x00000000        0x0 c:/program files (x86)/atmel/studio/7.0/toolchain/arm/arm-gnu-toolchain/bin/../lib/gcc/arm-none-eabi/5.3.1/armv6-m\libgcc.a(floatunsisf.o)
 .data          0x00000000        0x0 c:/program files (x86)/atmel/studio/7.0/toolchain/arm/arm-gnu-toolchain/bin/../lib/gcc/arm-none-eabi/5.3.1/armv6-m\libgcc.a(adddf3.o)
 .bss           0x00000000        0x0 c:/program files (x86)/atmel/studio/7.0/toolchain/arm/arm-gnu-toolchain/bin/../lib/gcc/arm-none-eabi/5.3.1/armv6-m\libgcc.a(adddf3.o)
 .data          0x00000000        0x0 c:/program files (x86)/atmel/studio/7.0/toolchain/arm/arm-gnu-toolchain/bin/../lib/gcc/arm-none-eabi/5.3.1/armv6-m\libgcc.a(divdf3.o)
 .bss           0x00000000        0x0 c:/program files (x86)/atmel/studio/7.0/toolchain/arm/arm-gnu-toolchain/bin/../lib/gcc/arm-none-eabi/5.3.1/armv6-m\libgcc.a(divdf3.o)
 .data          0x00000000        0x0 c:/program files (x86)/atmel/studio/7.0/toolchain/arm/arm-gnu-toolchain/bin/../lib/gcc/arm-none-eabi/5.3.1/armv6-m\libgcc.a(eqdf2.o)
 .bss           0x00000000        0x0 c:/program files (x86)/atmel/studio/7.0/toolchain/arm/arm-gnu-toolchain/bin/../lib/gcc/arm-none-eabi/5.3.1/armv6-m\libgcc.a(eqdf2.o)
 .data          0x00000000        0x0 c:/program files (x86)/atmel/studio/7.0/toolchain/arm/arm-gnu-toolchain/bin/../lib/gcc/arm-none-eabi/5.3.1/armv6-m\libgcc.a(gedf2.o)
 .bss           0x00000000        0x0 c:/program files (x86)/atmel/studio/7.0/toolchain/arm/arm-gnu-toolchain/bin/../lib/gcc/arm-none-eabi/5.3.1/armv6-m\libgcc.a(gedf2.o)
 .data          0x00000000        0x0 c:/program files (x86)/atmel/studio/7.0/toolchain/arm/arm-gnu-toolchain/bin/../lib/gcc/arm-none-eabi/5.3.1/armv6-m\libgcc.a(ledf2.o)
 .bss           0x00000000        0x0 c:/program files (x86)/atmel/studio/7.0/toolchain/arm/arm-gnu-toolchain/bin/../lib/gcc/arm-none-eabi/5.3.1/armv6-m\libgcc.a(ledf2.o)
 .data          0x00000000        0x0 c:/program files (x86)/atmel/studio/7.0/toolchain/arm/arm-gnu-toolchain/bin/../lib/gcc/arm-none-eabi/5.3.1/armv6-m\libgcc.a(muldf3.o)
 .bss           0x00000000        0x0 c:/program files (x86)/atmel/studio/7.0/toolchain/arm/arm-gnu-toolchain/bin/../lib/gcc/arm-none-eabi/5.3.1/armv6-m\libgcc.a(muldf3.o)
 .data          0x00000000        0x0 c:/program files (x86)/atmel/studio/7.0/toolchain/arm/arm-gnu-toolchain/bin/../lib/gcc/arm-none-eabi/5.3.1/armv6-m\libgcc.a(subdf3.o)
 .bss           0x00000000        0x0 c:/program files (x86)/atmel/studio/7.0/toolchain/arm/arm-gnu-toolchain/bin/../lib/gcc/arm-none-eabi/5.3.1/armv6-m\libgcc.a(subdf3.o)
 .data          0x00000000        0x0 c:/program files (x86)/atmel/studio/7.0/toolchain/arm/arm-gnu-toolchain/bin/../lib/gcc/arm-none-eabi/5.3.1/armv6-m\libgcc.a(unorddf2.o)
 .bss           0x00000000        0x0 c:/program files (x86)/atmel/studio/7.0/toolchain/arm/arm-gnu-toolchain/bin/../lib/gcc/arm-none-eabi/5.3.1/armv6-m\libgcc.a(unorddf2.o)
 .data          0x00000000        0x0 c:/program files (x86)/atmel/studio/7.0/toolchain/arm/arm-gnu-toolchain/bin/../lib/gcc/arm-none-eabi/5.3.1/armv6-m\libgcc.a(fixdfsi.o)
 .bss           0x00000000        0x0 c:/program files (x86)/atmel/studio/7.0/toolchain/arm/arm-gnu-toolchain/bin/../lib/gcc/arm-none-eabi/5.3.1/armv6-m\libgcc.a(fixdfsi.o)
 .data          0x00000000        0x0 c:/program files (x86)/atmel/studio/7.0/toolchain/arm/arm-gnu-toolchain/bin/../lib/gcc/arm-none-eabi/5.3.1/armv6-m\libgcc.a(floatsidf.o)
 .bss           0x00000000        0x0 c:/program files (x86)/atmel/studio/7.0/toolchain/arm/arm-gnu-toolchain/bin/../lib/gcc/arm-none-eabi/5.3.1/armv6-m\libgcc.a(floatsidf.o)
 .data          0x00000000        0x0 c:/program files (x86)/atmel/studio/7.0/toolchain/arm/arm-gnu-toolchain/bin/../lib/gcc/arm-none-eabi/5.3.1/armv6-m\libgcc.a(floatunsidf.o)
 .bss           0x00000000        0x0 c:/program files (x86)/atmel/studio/7.0/toolchain/arm/arm-gnu-toolchain/bin/../lib/gcc/arm-none-eabi/5.3.1/armv6-m\libgcc.a(floatunsidf.o)
 .data          0x00000000        0x0 c:/program files (x86)/atmel/studio/7.0/toolchain/arm/arm-gnu-toolchain/bin/../lib/gcc/arm-none-eabi/5.3.1/armv6-m\libgcc.a(extendsfdf2.o)
 .bss           0x00000000        0x0 c:/program files (x86)/atmel/studio/7.0/toolchain/arm/arm-gnu-toolchain/bin/../lib/gcc/arm-none-eabi/5.3.1/armv6-m\libgcc.a(extendsfdf2.o)
 .data          0x00000000        0x0 c:/program files (x86)/atmel/studio/7.0/toolchain/arm/arm-gnu-toolchain/bin/../lib/gcc/arm-none-eabi/5.3.1/armv6-m\libgcc.a(truncdfsf2.o)
 .bss           0x00000000        0x0 c:/program files (x86)/atmel/studio/7.0/toolchain/arm/arm-gnu-toolchain/bin/../lib/gcc/arm-none-eabi/5.3.1/armv6-m\libgcc.a(truncdfsf2.o)
 .data          0x00000000        0x0 c:/program files (x86)/atmel/studio/7.0/toolchain/arm/arm-gnu-toolchain/bin/../lib/gcc/arm-none-eabi/5.3.1/armv6-m\libgcc.a(_clzsi2.o)
 .bss           0x00000000        0x0 c:/program files (x86)/atmel/studio/7.0/toolchain/arm/arm-gnu-toolchain/bin/../lib/gcc/arm-none-eabi/5.3.1/armv6-m\libgcc.a(_clzsi2.o)
 .text          0x00000000        0x0 c:/program files (x86)/atmel/studio/7.0/toolchain/arm/arm-gnu-toolchain/bin/../lib/gcc/arm-none-eabi/5.3.1/../../../../arm-none-eabi/lib/armv6-m\libc_nano.a(lib_a-errno.o)
 .data          0x00000000        0x0 c:/program files (x86)/atmel/studio/7.0/toolchain/arm/arm-gnu-toolchain/bin/../lib/gcc/arm-none-eabi/5.3.1/../../../../arm-none-eabi/lib/armv6-m\libc_nano.a(lib_a-errno.o)
 .bss           0x00000000        0x0 c:/program files (x86)/atmel/studio/7.0/toolchain/arm/arm-gnu-toolchain/bin/../lib/gcc/arm-none-eabi/5.3.1/../../../../arm-none-eabi/lib/armv6-m\libc_nano.a(lib_a-errno.o)
 .text          0x00000000        0x0 c:/program files (x86)/atmel/studio/7.0/toolchain/arm/arm-gnu-toolchain/bin/../lib/gcc/arm-none-eabi/5.3.1/../../../../arm-none-eabi/lib/armv6-m\libc_nano.a(lib_a-exit.o)
 .data          0x00000000        0x0 c:/program files (x86)/atmel/studio/7.0/toolchain/arm/arm-gnu-toolchain/bin/../lib/gcc/arm-none-eabi/5.3.1/../../../../arm-none-eabi/lib/armv6-m\libc_nano.a(lib_a-exit.o)
 .bss           0x00000000        0x0 c:/program files (x86)/atmel/studio/7.0/toolchain/arm/arm-gnu-toolchain/bin/../lib/gcc/arm-none-eabi/5.3.1/../../../../arm-none-eabi/lib/armv6-m\libc_nano.a(lib_a-exit.o)
 .text.exit     0x00000000       0x2c c:/program files (x86)/atmel/studio/7.0/toolchain/arm/arm-gnu-toolchain/bin/../lib/gcc/arm-none-eabi/5.3.1/../../../../arm-none-eabi/lib/armv6-m\libc_nano.a(lib_a-exit.o)
 .debug_frame   0x00000000       0x28 c:/program files (x86)/atmel/studio/7.0/toolchain/arm/arm-gnu-toolchain/bin/../lib/gcc/arm-none-eabi/5.3.1/../../../../arm-none-eabi/lib/armv6-m\libc_nano.a(lib_a-exit.o)
 .ARM.attributes
                0x00000000       0x2c c:/program files (x86)/atmel/studio/7.0/toolchain/arm/arm-gnu-toolchain/bin/../lib/gcc/arm-none-eabi/5.3.1/../../../../arm-none-eabi/lib/armv6-m\libc_nano.a(lib_a-exit.o)
 .text          0x00000000        0x0 c:/program files (x86)/atmel/studio/7.0/toolchain/arm/arm-gnu-toolchain/bin/../lib/gcc/arm-none-eabi/5.3.1/../../../../arm-none-eabi/lib/armv6-m\libc_nano.a(lib_a-impure.o)
 .data          0x00000000        0x0 c:/program files (x86)/atmel/studio/7.0/toolchain/arm/arm-gnu-toolchain/bin/../lib/gcc/arm-none-eabi/5.3.1/../../../../arm-none-eabi/lib/armv6-m\libc_nano.a(lib_a-impure.o)
 .bss           0x00000000        0x0 c:/program files (x86)/atmel/studio/7.0/toolchain/arm/arm-gnu-toolchain/bin/../lib/gcc/arm-none-eabi/5.3.1/../../../../arm-none-eabi/lib/armv6-m\libc_nano.a(lib_a-impure.o)
 .text          0x00000000        0x0 c:/program files (x86)/atmel/studio/7.0/toolchain/arm/arm-gnu-toolchain/bin/../lib/gcc/arm-none-eabi/5.3.1/../../../../arm-none-eabi/lib/armv6-m\libc_nano.a(lib_a-init.o)
 .data          0x00000000        0x0 c:/program files (x86)/atmel/studio/7.0/toolchain/arm/arm-gnu-toolchain/bin/../lib/gcc/arm-none-eabi/5.3.1/../../../../arm-none-eabi/lib/armv6-m\libc_nano.a(lib_a-init.o)
 .bss           0x00000000        0x0 c:/program files (x86)/atmel/studio/7.0/toolchain/arm/arm-gnu-toolchain/bin/../lib/gcc/arm-none-eabi/5.3.1/../../../../arm-none-eabi/lib/armv6-m\libc_nano.a(lib_a-init.o)
 .text          0x00000000        0x0 c:/program files (x86)/atmel/studio/7.0/toolchain/arm/arm-gnu-toolchain/bin/../lib/gcc/arm-none-eabi/5.3.1/../../../../arm-none-eabi/lib/armv6-m\libc_nano.a(lib_a-malloc.o)
 .data          0x00000000        0x0 c:/program files (x86)/atmel/studio/7.0/toolchain/arm/arm-gnu-toolchain/bin/../lib/gcc/arm-none-eabi/5.3.1/../../../../arm-none-eabi/lib/armv6-m\libc_nano.a(lib_a-malloc.o)
 .bss           0x00000000        0x0 c:/program files (x86)/atmel/studio/7.0/toolchain/arm/arm-gnu-toolchain/bin/../lib/gcc/arm-none-eabi/5.3.1/../../../../arm-none-eabi/lib/armv6-m\libc_nano.a(lib_a-malloc.o)
 .text.free     0x00000000       0x14 c:/program files (x86)/atmel/studio/7.0/toolchain/arm/arm-gnu-toolchain/bin/../lib/gcc/arm-none-eabi/5.3.1/../../../../arm-none-eabi/lib/armv6-m\libc_nano.a(lib_a-malloc.o)
 .text          0x00000000        0x0 c:/program files (x86)/atmel/studio/7.0/toolchain/arm/arm-gnu-toolchain/bin/../lib/gcc/arm-none-eabi/5.3.1/../../../../arm-none-eabi/lib/armv6-m\libc_nano.a(lib_a-memcmp.o)
 .data          0x00000000        0x0 c:/program files (x86)/atmel/studio/7.0/toolchain/arm/arm-gnu-toolchain/bin/../lib/gcc/arm-none-eabi/5.3.1/../../../../arm-none-eabi/lib/armv6-m\libc_nano.a(lib_a-memcmp.o)
 .bss           0x00000000        0x0 c:/program files (x86)/atmel/studio/7.0/toolchain/arm/arm-gnu-toolchain/bin/../lib/gcc/arm-none-eabi/5.3.1/../../../../arm-none-eabi/lib/armv6-m\libc_nano.a(lib_a-memcmp.o)
 .text          0x00000000        0x0 c:/program files (x86)/atmel/studio/7.0/toolchain/arm/arm-gnu-toolchain/bin/../lib/gcc/arm-none-eabi/5.3.1/../../../../arm-none-eabi/lib/armv6-m\libc_nano.a(lib_a-memcpy-stub.o)
 .data          0x00000000        0x0 c:/program files (x86)/atmel/studio/7.0/toolchain/arm/arm-gnu-toolchain/bin/../lib/gcc/arm-none-eabi/5.3.1/../../../../arm-none-eabi/lib/armv6-m\libc_nano.a(lib_a-memcpy-stub.o)
 .bss           0x00000000        0x0 c:/program files (x86)/atmel/studio/7.0/toolchain/arm/arm-gnu-toolchain/bin/../lib/gcc/arm-none-eabi/5.3.1/../../../../arm-none-eabi/lib/armv6-m\libc_nano.a(lib_a-memcpy-stub.o)
 .text          0x00000000        0x0 c:/program files (x86)/atmel/studio/7.0/toolchain/arm/arm-gnu-toolchain/bin/../lib/gcc/arm-none-eabi/5.3.1/../../../../arm-none-eabi/lib/armv6-m\libc_nano.a(lib_a-memset.o)
 .data          0x00000000        0x0 c:/program files (x86)/atmel/studio/7.0/toolchain/arm/arm-gnu-toolchain/bin/../lib/gcc/arm-none-eabi/5.3.1/../../../../arm-none-eabi/lib/armv6-m\libc_nano.a(lib_a-memset.o)
 .bss           0x00000000        0x0 c:/program files (x86)/atmel/studio/7.0/toolchain/arm/arm-gnu-toolchain/bin/../lib/gcc/arm-none-eabi/5.3.1/../../../../arm-none-eabi/lib/armv6-m\libc_nano.a(lib_a-memset.o)
 .text          0x00000000        0x0 c:/program files (x86)/atmel/studio/7.0/toolchain/arm/arm-gnu-toolchain/bin/../lib/gcc/arm-none-eabi/5.3.1/../../../../arm-none-eabi/lib/armv6-m\libc_nano.a(lib_a-nano-freer.o)
 .data          0x00000000        0x0 c:/program files (x86)/atmel/studio/7.0/toolchain/arm/arm-gnu-toolchain/bin/../lib/gcc/arm-none-eabi/5.3.1/../../../../arm-none-eabi/lib/armv6-m\libc_nano.a(lib_a-nano-freer.o)
 .bss           0x00000000        0x0 c:/program files (x86)/atmel/studio/7.0/toolchain/arm/arm-gnu-toolchain/bin/../lib/gcc/arm-none-eabi/5.3.1/../../../../arm-none-eabi/lib/armv6-m\libc_nano.a(lib_a-nano-freer.o)
 .text          0x00000000        0x0 c:/program files (x86)/atmel/studio/7.0/toolchain/arm/arm-gnu-toolchain/bin/../lib/gcc/arm-none-eabi/5.3.1/../../../../arm-none-eabi/lib/armv6-m\libc_nano.a(lib_a-nano-mallocr.o)
 .data          0x00000000        0x0 c:/program files (x86)/atmel/studio/7.0/toolchain/arm/arm-gnu-toolchain/bin/../lib/gcc/arm-none-eabi/5.3.1/../../../../arm-none-eabi/lib/armv6-m\libc_nano.a(lib_a-nano-mallocr.o)
 .bss           0x00000000        0x0 c:/program files (x86)/atmel/studio/7.0/toolchain/arm/arm-gnu-toolchain/bin/../lib/gcc/arm-none-eabi/5.3.1/../../../../arm-none-eabi/lib/armv6-m\libc_nano.a(lib_a-nano-mallocr.o)
 .text          0x00000000        0x0 c:/program files (x86)/atmel/studio/7.0/toolchain/arm/arm-gnu-toolchain/bin/../lib/gcc/arm-none-eabi/5.3.1/../../../../arm-none-eabi/lib/armv6-m\libc_nano.a(lib_a-rand.o)
 .data          0x00000000        0x0 c:/program files (x86)/atmel/studio/7.0/toolchain/arm/arm-gnu-toolchain/bin/../lib/gcc/arm-none-eabi/5.3.1/../../../../arm-none-eabi/lib/armv6-m\libc_nano.a(lib_a-rand.o)
 .bss           0x00000000        0x0 c:/program files (x86)/atmel/studio/7.0/toolchain/arm/arm-gnu-toolchain/bin/../lib/gcc/arm-none-eabi/5.3.1/../../../../arm-none-eabi/lib/armv6-m\libc_nano.a(lib_a-rand.o)
 .text.srand    0x00000000       0x5c c:/program files (x86)/atmel/studio/7.0/toolchain/arm/arm-gnu-toolchain/bin/../lib/gcc/arm-none-eabi/5.3.1/../../../../arm-none-eabi/lib/armv6-m\libc_nano.a(lib_a-rand.o)
 .text          0x00000000        0x0 c:/program files (x86)/atmel/studio/7.0/toolchain/arm/arm-gnu-toolchain/bin/../lib/gcc/arm-none-eabi/5.3.1/../../../../arm-none-eabi/lib/armv6-m\libc_nano.a(lib_a-sbrkr.o)
 .data          0x00000000        0x0 c:/program files (x86)/atmel/studio/7.0/toolchain/arm/arm-gnu-toolchain/bin/../lib/gcc/arm-none-eabi/5.3.1/../../../../arm-none-eabi/lib/armv6-m\libc_nano.a(lib_a-sbrkr.o)
 .bss           0x00000000        0x0 c:/program files (x86)/atmel/studio/7.0/toolchain/arm/arm-gnu-toolchain/bin/../lib/gcc/arm-none-eabi/5.3.1/../../../../arm-none-eabi/lib/armv6-m\libc_nano.a(lib_a-sbrkr.o)
 .text          0x00000000        0x0 c:/program files (x86)/atmel/studio/7.0/toolchain/arm/arm-gnu-toolchain/bin/../lib/gcc/arm-none-eabi/5.3.1/../../../../arm-none-eabi/lib/armv6-m\libc_nano.a(lib_a-setbuf.o)
 .data          0x00000000        0x0 c:/program files (x86)/atmel/studio/7.0/toolchain/arm/arm-gnu-toolchain/bin/../lib/gcc/arm-none-eabi/5.3.1/../../../../arm-none-eabi/lib/armv6-m\libc_nano.a(lib_a-setbuf.o)
 .bss           0x00000000        0x0 c:/program files (x86)/atmel/studio/7.0/toolchain/arm/arm-gnu-toolchain/bin/../lib/gcc/arm-none-eabi/5.3.1/../../../../arm-none-eabi/lib/armv6-m\libc_nano.a(lib_a-setbuf.o)
 .text          0x00000000        0x0 c:/program files (x86)/atmel/studio/7.0/toolchain/arm/arm-gnu-toolchain/bin/../lib/gcc/arm-none-eabi/5.3.1/../../../../arm-none-eabi/lib/armv6-m\libc_nano.a(lib_a-setvbuf.o)
 .data          0x00000000        0x0 c:/program files (x86)/atmel/studio/7.0/toolchain/arm/arm-gnu-toolchain/bin/../lib/gcc/arm-none-eabi/5.3.1/../../../../arm-none-eabi/lib/armv6-m\libc_nano.a(lib_a-setvbuf.o)
 .bss           0x00000000        0x0 c:/program files (x86)/atmel/studio/7.0/toolchain/arm/arm-gnu-toolchain/bin/../lib/gcc/arm-none-eabi/5.3.1/../../../../arm-none-eabi/lib/armv6-m\libc_nano.a(lib_a-setvbuf.o)
 .text          0x00000000        0x0 c:/program files (x86)/atmel/studio/7.0/toolchain/arm/arm-gnu-toolchain/bin/../lib/gcc/arm-none-eabi/5.3.1/../../../../arm-none-eabi/lib/armv6-m\libc_nano.a(lib_a-fflush.o)
 .data          0x00000000        0x0 c:/program files (x86)/atmel/studio/7.0/toolchain/arm/arm-gnu-toolchain/bin/../lib/gcc/arm-none-eabi/5.3.1/../../../../arm-none-eabi/lib/armv6-m\libc_nano.a(lib_a-fflush.o)
 .bss           0x00000000        0x0 c:/program files (x86)/atmel/studio/7.0/toolchain/arm/arm-gnu-toolchain/bin/../lib/gcc/arm-none-eabi/5.3.1/../../../../arm-none-eabi/lib/armv6-m\libc_nano.a(lib_a-fflush.o)
 .text.fflush   0x00000000       0x28 c:/program files (x86)/atmel/studio/7.0/toolchain/arm/arm-gnu-toolchain/bin/../lib/gcc/arm-none-eabi/5.3.1/../../../../arm-none-eabi/lib/armv6-m\libc_nano.a(lib_a-fflush.o)
 .text          0x00000000        0x0 c:/program files (x86)/atmel/studio/7.0/toolchain/arm/arm-gnu-toolchain/bin/../lib/gcc/arm-none-eabi/5.3.1/../../../../arm-none-eabi/lib/armv6-m\libc_nano.a(lib_a-findfp.o)
 .data          0x00000000        0x0 c:/program files (x86)/atmel/studio/7.0/toolchain/arm/arm-gnu-toolchain/bin/../lib/gcc/arm-none-eabi/5.3.1/../../../../arm-none-eabi/lib/armv6-m\libc_nano.a(lib_a-findfp.o)
 .bss           0x00000000        0x0 c:/program files (x86)/atmel/studio/7.0/toolchain/arm/arm-gnu-toolchain/bin/../lib/gcc/arm-none-eabi/5.3.1/../../../../arm-none-eabi/lib/armv6-m\libc_nano.a(lib_a-findfp.o)
 .text.__fp_unlock
                0x00000000        0x4 c:/program files (x86)/atmel/studio/7.0/toolchain/arm/arm-gnu-toolchain/bin/../lib/gcc/arm-none-eabi/5.3.1/../../../../arm-none-eabi/lib/armv6-m\libc_nano.a(lib_a-findfp.o)
 .text.__fp_lock
                0x00000000        0x4 c:/program files (x86)/atmel/studio/7.0/toolchain/arm/arm-gnu-toolchain/bin/../lib/gcc/arm-none-eabi/5.3.1/../../../../arm-none-eabi/lib/armv6-m\libc_nano.a(lib_a-findfp.o)
 .text._cleanup
                0x00000000       0x10 c:/program files (x86)/atmel/studio/7.0/toolchain/arm/arm-gnu-toolchain/bin/../lib/gcc/arm-none-eabi/5.3.1/../../../../arm-none-eabi/lib/armv6-m\libc_nano.a(lib_a-findfp.o)
 .text.__sfp_lock_acquire
                0x00000000        0x2 c:/program files (x86)/atmel/studio/7.0/toolchain/arm/arm-gnu-toolchain/bin/../lib/gcc/arm-none-eabi/5.3.1/../../../../arm-none-eabi/lib/armv6-m\libc_nano.a(lib_a-findfp.o)
 .text.__sfp_lock_release
                0x00000000        0x2 c:/program files (x86)/atmel/studio/7.0/toolchain/arm/arm-gnu-toolchain/bin/../lib/gcc/arm-none-eabi/5.3.1/../../../../arm-none-eabi/lib/armv6-m\libc_nano.a(lib_a-findfp.o)
 .text.__sinit_lock_acquire
                0x00000000        0x2 c:/program files (x86)/atmel/studio/7.0/toolchain/arm/arm-gnu-toolchain/bin/../lib/gcc/arm-none-eabi/5.3.1/../../../../arm-none-eabi/lib/armv6-m\libc_nano.a(lib_a-findfp.o)
 .text.__sinit_lock_release
                0x00000000        0x2 c:/program files (x86)/atmel/studio/7.0/toolchain/arm/arm-gnu-toolchain/bin/../lib/gcc/arm-none-eabi/5.3.1/../../../../arm-none-eabi/lib/armv6-m\libc_nano.a(lib_a-findfp.o)
 .text.__fp_lock_all
                0x00000000       0x18 c:/program files (x86)/atmel/studio/7.0/toolchain/arm/arm-gnu-toolchain/bin/../lib/gcc/arm-none-eabi/5.3.1/../../../../arm-none-eabi/lib/armv6-m\libc_nano.a(lib_a-findfp.o)
 .text.__fp_unlock_all
                0x00000000       0x18 c:/program files (x86)/atmel/studio/7.0/toolchain/arm/arm-gnu-toolchain/bin/../lib/gcc/arm-none-eabi/5.3.1/../../../../arm-none-eabi/lib/armv6-m\libc_nano.a(lib_a-findfp.o)
 .text          0x00000000        0x0 c:/program files (x86)/atmel/studio/7.0/toolchain/arm/arm-gnu-toolchain/bin/../lib/gcc/arm-none-eabi/5.3.1/../../../../arm-none-eabi/lib/armv6-m\libc_nano.a(lib_a-fwalk.o)
 .data          0x00000000        0x0 c:/program files (x86)/atmel/studio/7.0/toolchain/arm/arm-gnu-toolchain/bin/../lib/gcc/arm-none-eabi/5.3.1/../../../../arm-none-eabi/lib/armv6-m\libc_nano.a(lib_a-fwalk.o)
 .bss           0x00000000        0x0 c:/program files (x86)/atmel/studio/7.0/toolchain/arm/arm-gnu-toolchain/bin/../lib/gcc/arm-none-eabi/5.3.1/../../../../arm-none-eabi/lib/armv6-m\libc_nano.a(lib_a-fwalk.o)
 .text._fwalk   0x00000000       0x38 c:/program files (x86)/atmel/studio/7.0/toolchain/arm/arm-gnu-toolchain/bin/../lib/gcc/arm-none-eabi/5.3.1/../../../../arm-none-eabi/lib/armv6-m\libc_nano.a(lib_a-fwalk.o)
 .text          0x00000000        0x0 c:/program files (x86)/atmel/studio/7.0/toolchain/arm/arm-gnu-toolchain/bin/../lib/gcc/arm-none-eabi/5.3.1/../../../../arm-none-eabi/lib/armv6-m\libc_nano.a(lib_a-makebuf.o)
 .data          0x00000000        0x0 c:/program files (x86)/atmel/studio/7.0/toolchain/arm/arm-gnu-toolchain/bin/../lib/gcc/arm-none-eabi/5.3.1/../../../../arm-none-eabi/lib/armv6-m\libc_nano.a(lib_a-makebuf.o)
 .bss           0x00000000        0x0 c:/program files (x86)/atmel/studio/7.0/toolchain/arm/arm-gnu-toolchain/bin/../lib/gcc/arm-none-eabi/5.3.1/../../../../arm-none-eabi/lib/armv6-m\libc_nano.a(lib_a-makebuf.o)
 .text.__smakebuf_r
                0x00000000       0x7c c:/program files (x86)/atmel/studio/7.0/toolchain/arm/arm-gnu-toolchain/bin/../lib/gcc/arm-none-eabi/5.3.1/../../../../arm-none-eabi/lib/armv6-m\libc_nano.a(lib_a-makebuf.o)
 .text          0x00000000        0x0 c:/program files (x86)/atmel/studio/7.0/toolchain/arm/arm-gnu-toolchain/bin/../lib/gcc/arm-none-eabi/5.3.1/../../../../arm-none-eabi/lib/armv6-m\libc_nano.a(lib_a-reent.o)
 .data          0x00000000        0x0 c:/program files (x86)/atmel/studio/7.0/toolchain/arm/arm-gnu-toolchain/bin/../lib/gcc/arm-none-eabi/5.3.1/../../../../arm-none-eabi/lib/armv6-m\libc_nano.a(lib_a-reent.o)
 .bss           0x00000000        0x0 c:/program files (x86)/atmel/studio/7.0/toolchain/arm/arm-gnu-toolchain/bin/../lib/gcc/arm-none-eabi/5.3.1/../../../../arm-none-eabi/lib/armv6-m\libc_nano.a(lib_a-reent.o)
 .text.cleanup_glue
                0x00000000       0x1a c:/program files (x86)/atmel/studio/7.0/toolchain/arm/arm-gnu-toolchain/bin/../lib/gcc/arm-none-eabi/5.3.1/../../../../arm-none-eabi/lib/armv6-m\libc_nano.a(lib_a-reent.o)
 .text._reclaim_reent
                0x00000000       0xcc c:/program files (x86)/atmel/studio/7.0/toolchain/arm/arm-gnu-toolchain/bin/../lib/gcc/arm-none-eabi/5.3.1/../../../../arm-none-eabi/lib/armv6-m\libc_nano.a(lib_a-reent.o)
 .text          0x00000000        0x0 c:/program files (x86)/atmel/studio/7.0/toolchain/arm/arm-gnu-toolchain/bin/../lib/gcc/arm-none-eabi/5.3.1/../../../../arm-none-eabi/lib/armv6-m\libc_nano.a(lib_a-stdio.o)
 .data          0x00000000        0x0 c:/program files (x86)/atmel/studio/7.0/toolchain/arm/arm-gnu-toolchain/bin/../lib/gcc/arm-none-eabi/5.3.1/../../../../arm-none-eabi/lib/armv6-m\libc_nano.a(lib_a-stdio.o)
 .bss           0x00000000        0x0 c:/program files (x86)/atmel/studio/7.0/toolchain/arm/arm-gnu-toolchain/bin/../lib/gcc/arm-none-eabi/5.3.1/../../../../arm-none-eabi/lib/armv6-m\libc_nano.a(lib_a-stdio.o)
 .text.__seofread
                0x00000000        0x4 c:/program files (x86)/atmel/studio/7.0/toolchain/arm/arm-gnu-toolchain/bin/../lib/gcc/arm-none-eabi/5.3.1/../../../../arm-none-eabi/lib/armv6-m\libc_nano.a(lib_a-stdio.o)
 .text          0x00000000        0x0 c:/program files (x86)/atmel/studio/7.0/toolchain/arm/arm-gnu-toolchain/bin/../lib/gcc/arm-none-eabi/5.3.1/../../../../arm-none-eabi/lib/armv6-m\libc_nano.a(lib_a-writer.o)
 .data          0x00000000        0x0 c:/program files (x86)/atmel/studio/7.0/toolchain/arm/arm-gnu-toolchain/bin/../lib/gcc/arm-none-eabi/5.3.1/../../../../arm-none-eabi/lib/armv6-m\libc_nano.a(lib_a-writer.o)
 .bss           0x00000000        0x0 c:/program files (x86)/atmel/studio/7.0/toolchain/arm/arm-gnu-toolchain/bin/../lib/gcc/arm-none-eabi/5.3.1/../../../../arm-none-eabi/lib/armv6-m\libc_nano.a(lib_a-writer.o)
 .text          0x00000000        0x0 c:/program files (x86)/atmel/studio/7.0/toolchain/arm/arm-gnu-toolchain/bin/../lib/gcc/arm-none-eabi/5.3.1/../../../../arm-none-eabi/lib/armv6-m\libc_nano.a(lib_a-closer.o)
 .data          0x00000000        0x0 c:/program files (x86)/atmel/studio/7.0/toolchain/arm/arm-gnu-toolchain/bin/../lib/gcc/arm-none-eabi/5.3.1/../../../../arm-none-eabi/lib/armv6-m\libc_nano.a(lib_a-closer.o)
 .bss           0x00000000        0x0 c:/program files (x86)/atmel/studio/7.0/toolchain/arm/arm-gnu-toolchain/bin/../lib/gcc/arm-none-eabi/5.3.1/../../../../arm-none-eabi/lib/armv6-m\libc_nano.a(lib_a-closer.o)
 .text          0x00000000        0x0 c:/program files (x86)/atmel/studio/7.0/toolchain/arm/arm-gnu-toolchain/bin/../lib/gcc/arm-none-eabi/5.3.1/../../../../arm-none-eabi/lib/armv6-m\libc_nano.a(lib_a-fstatr.o)
 .data          0x00000000        0x0 c:/program files (x86)/atmel/studio/7.0/toolchain/arm/arm-gnu-toolchain/bin/../lib/gcc/arm-none-eabi/5.3.1/../../../../arm-none-eabi/lib/armv6-m\libc_nano.a(lib_a-fstatr.o)
 .bss           0x00000000        0x0 c:/program files (x86)/atmel/studio/7.0/toolchain/arm/arm-gnu-toolchain/bin/../lib/gcc/arm-none-eabi/5.3.1/../../../../arm-none-eabi/lib/armv6-m\libc_nano.a(lib_a-fstatr.o)
 .text          0x00000000        0x0 c:/program files (x86)/atmel/studio/7.0/toolchain/arm/arm-gnu-toolchain/bin/../lib/gcc/arm-none-eabi/5.3.1/../../../../arm-none-eabi/lib/armv6-m\libc_nano.a(lib_a-isattyr.o)
 .data          0x00000000        0x0 c:/program files (x86)/atmel/studio/7.0/toolchain/arm/arm-gnu-toolchain/bin/../lib/gcc/arm-none-eabi/5.3.1/../../../../arm-none-eabi/lib/armv6-m\libc_nano.a(lib_a-isattyr.o)
 .bss           0x00000000        0x0 c:/program files (x86)/atmel/studio/7.0/toolchain/arm/arm-gnu-toolchain/bin/../lib/gcc/arm-none-eabi/5.3.1/../../../../arm-none-eabi/lib/armv6-m\libc_nano.a(lib_a-isattyr.o)
 .text._isatty_r
                0x00000000       0x24 c:/program files (x86)/atmel/studio/7.0/toolchain/arm/arm-gnu-toolchain/bin/../lib/gcc/arm-none-eabi/5.3.1/../../../../arm-none-eabi/lib/armv6-m\libc_nano.a(lib_a-isattyr.o)
 .debug_frame   0x00000000       0x2c c:/program files (x86)/atmel/studio/7.0/toolchain/arm/arm-gnu-toolchain/bin/../lib/gcc/arm-none-eabi/5.3.1/../../../../arm-none-eabi/lib/armv6-m\libc_nano.a(lib_a-isattyr.o)
 .ARM.attributes
                0x00000000       0x2c c:/program files (x86)/atmel/studio/7.0/toolchain/arm/arm-gnu-toolchain/bin/../lib/gcc/arm-none-eabi/5.3.1/../../../../arm-none-eabi/lib/armv6-m\libc_nano.a(lib_a-isattyr.o)
 .text          0x00000000        0x0 c:/program files (x86)/atmel/studio/7.0/toolchain/arm/arm-gnu-toolchain/bin/../lib/gcc/arm-none-eabi/5.3.1/../../../../arm-none-eabi/lib/armv6-m\libc_nano.a(lib_a-lseekr.o)
 .data          0x00000000        0x0 c:/program files (x86)/atmel/studio/7.0/toolchain/arm/arm-gnu-toolchain/bin/../lib/gcc/arm-none-eabi/5.3.1/../../../../arm-none-eabi/lib/armv6-m\libc_nano.a(lib_a-lseekr.o)
 .bss           0x00000000        0x0 c:/program files (x86)/atmel/studio/7.0/toolchain/arm/arm-gnu-toolchain/bin/../lib/gcc/arm-none-eabi/5.3.1/../../../../arm-none-eabi/lib/armv6-m\libc_nano.a(lib_a-lseekr.o)
 .text          0x00000000        0x0 c:/program files (x86)/atmel/studio/7.0/toolchain/arm/arm-gnu-toolchain/bin/../lib/gcc/arm-none-eabi/5.3.1/../../../../arm-none-eabi/lib/armv6-m\libc_nano.a(lib_a-readr.o)
 .data          0x00000000        0x0 c:/program files (x86)/atmel/studio/7.0/toolchain/arm/arm-gnu-toolchain/bin/../lib/gcc/arm-none-eabi/5.3.1/../../../../arm-none-eabi/lib/armv6-m\libc_nano.a(lib_a-readr.o)
 .bss           0x00000000        0x0 c:/program files (x86)/atmel/studio/7.0/toolchain/arm/arm-gnu-toolchain/bin/../lib/gcc/arm-none-eabi/5.3.1/../../../../arm-none-eabi/lib/armv6-m\libc_nano.a(lib_a-readr.o)
 .text          0x00000000        0x0 c:/program files (x86)/atmel/studio/7.0/toolchain/arm/arm-gnu-toolchain/bin/../lib/gcc/arm-none-eabi/5.3.1/armv6-m/crtend.o
 .data          0x00000000        0x0 c:/program files (x86)/atmel/studio/7.0/toolchain/arm/arm-gnu-toolchain/bin/../lib/gcc/arm-none-eabi/5.3.1/armv6-m/crtend.o
 .bss           0x00000000        0x0 c:/program files (x86)/atmel/studio/7.0/toolchain/arm/arm-gnu-toolchain/bin/../lib/gcc/arm-none-eabi/5.3.1/armv6-m/crtend.o
 .eh_frame      0x00000000        0x4 c:/program files (x86)/atmel/studio/7.0/toolchain/arm/arm-gnu-toolchain/bin/../lib/gcc/arm-none-eabi/5.3.1/armv6-m/crtend.o
 .jcr           0x00000000        0x4 c:/program files (x86)/atmel/studio/7.0/toolchain/arm/arm-gnu-toolchain/bin/../lib/gcc/arm-none-eabi/5.3.1/armv6-m/crtend.o
 .ARM.attributes
                0x00000000       0x2c c:/program files (x86)/atmel/studio/7.0/toolchain/arm/arm-gnu-toolchain/bin/../lib/gcc/arm-none-eabi/5.3.1/armv6-m/crtend.o
 .text          0x00000000        0x0 c:/program files (x86)/atmel/studio/7.0/toolchain/arm/arm-gnu-toolchain/bin/../lib/gcc/arm-none-eabi/5.3.1/armv6-m/crtn.o
 .data          0x00000000        0x0 c:/program files (x86)/atmel/studio/7.0/toolchain/arm/arm-gnu-toolchain/bin/../lib/gcc/arm-none-eabi/5.3.1/armv6-m/crtn.o
 .bss           0x00000000        0x0 c:/program files (x86)/atmel/studio/7.0/toolchain/arm/arm-gnu-toolchain/bin/../lib/gcc/arm-none-eabi/5.3.1/armv6-m/crtn.o

Memory Configuration

Name             Origin             Length             Attributes
ram              0x10008000         0x00018000         xrw
lram             0x10020000         0x00000000         xrw
*default*        0x00000000         0xffffffff

Linker script and memory map

LOAD c:/program files (x86)/atmel/studio/7.0/toolchain/arm/arm-gnu-toolchain/bin/../lib/gcc/arm-none-eabi/5.3.1/armv6-m/crti.o
LOAD c:/program files (x86)/atmel/studio/7.0/toolchain/arm/arm-gnu-toolchain/bin/../lib/gcc/arm-none-eabi/5.3.1/armv6-m/crtbegin.o
LOAD c:/program files (x86)/atmel/studio/7.0/toolchain/arm/arm-gnu-toolchain/bin/../lib/gcc/arm-none-eabi/5.3.1/../../../../arm-none-eabi/lib/armv6-m/crt0.o
LOAD src/ASF/common/utils/interrupt/interrupt_sam_nvic.o
LOAD src/ASF/sam0/boards/samb11_xplained_pro/board_init.o
LOAD src/ASF/sam0/drivers/aon_sleep_timer/aon_sleep_timer.o
LOAD src/ASF/sam0/drivers/i2c/i2c_master.o
LOAD src/ASF/sam0/utils/cmsis/samb11/source/gcc/startup_samb11.o
LOAD src/ASF/sam0/utils/cmsis/samb11/source/system_samb11.o
LOAD src/ASF/sam0/utils/syscalls/gcc/syscalls.o
LOAD src/ASF/thirdparty/sensor/mpu9250_kriswiner/quaternion_ahrs.o
LOAD src/sms_v_0_2/src/sms_ble.o
LOAD src/sms_v_0_2/src/sms_button.o
LOAD src/sms_v_0_2/src/sms_common.o
LOAD src/sms_v_0_2/src/sms_i2c.o
LOAD src/sms_v_0_2/src/sms_mpu.o
LOAD src/sms_v_0_2/src/sms_led.o
LOAD src/sms_v_0_2/src/sms_pressure.o
LOAD src/sms_v_0_2/src/sms_sensors.o
LOAD src/sms_v_0_2/src/sms_spi.o
LOAD src/sms_v_0_2/src/sms_timer.o
LOAD src/ASF/sam0/drivers/spi/spi.o
LOAD src/ASF/thirdparty/wireless/ble_smart_sdk/ble_profiles/pxp_reporter/pxp_reporter.o
LOAD src/ASF/thirdparty/wireless/ble_smart_sdk/ble_services/battery/battery.o
LOAD src/ASF/thirdparty/wireless/ble_smart_sdk/ble_services/immediate_alert/immediate_alert.o
LOAD src/ASF/thirdparty/wireless/ble_smart_sdk/ble_services/link_loss/link_loss.o
LOAD src/ASF/thirdparty/wireless/ble_smart_sdk/ble_services/tx_power/tx_power.o
LOAD src/ASF/sam0/drivers/dualtimer/dualtimer.o
LOAD src/ASF/sam0/drivers/gpio/gpio.o
LOAD src/ASF/sam0/drivers/system/system_sam_b.o
LOAD src/ASF/sam0/drivers/timer/timer.o
LOAD src/ASF/sam0/drivers/uart/uart.o
LOAD src/ASF/sam0/utils/stdio/read.o
LOAD src/ASF/sam0/utils/stdio/write.o
LOAD src/ASF/thirdparty/wireless/ble_smart_sdk/ble_services/ble_mgr/ble_manager.o
LOAD src/ASF/thirdparty/wireless/ble_smart_sdk/services/dualtimer/timer_hw.o
LOAD src/ASF/thirdparty/wireless/ble_smart_sdk/services/gpio/button.o
LOAD src/ASF/thirdparty/wireless/ble_smart_sdk/services/gpio/led.o
LOAD src/ASF/thirdparty/wireless/ble_smart_sdk/services/uart/console_serial.o
LOAD src/ASF/thirdparty/wireless/ble_smart_sdk/src/event_handler.o
LOAD src/ASF/thirdparty/wireless/ble_smart_sdk/src/platform_drv.o
LOAD src/ASF/thirdparty/wireless/ble_smart_sdk/src/port_from_sdk.o
LOAD src/sms_peripheral1.o
START GROUP
LOAD ../src/ASF/thirdparty/CMSIS/Lib/GCC\libarm_cortexM0l_math.a
LOAD ../src/ASF/thirdparty/wireless/ble_smart_sdk/lib/cm0/gcc\libblusdk.a
LOAD c:/program files (x86)/atmel/studio/7.0/toolchain/arm/arm-gnu-toolchain/bin/../lib/gcc/arm-none-eabi/5.3.1/../../../../arm-none-eabi/lib/armv6-m\libm.a
END GROUP
START GROUP
LOAD c:/program files (x86)/atmel/studio/7.0/toolchain/arm/arm-gnu-toolchain/bin/../lib/gcc/arm-none-eabi/5.3.1/armv6-m\libgcc.a
LOAD c:/program files (x86)/atmel/studio/7.0/toolchain/arm/arm-gnu-toolchain/bin/../lib/gcc/arm-none-eabi/5.3.1/../../../../arm-none-eabi/lib/armv6-m\libc_nano.a
END GROUP
START GROUP
LOAD c:/program files (x86)/atmel/studio/7.0/toolchain/arm/arm-gnu-toolchain/bin/../lib/gcc/arm-none-eabi/5.3.1/armv6-m\libgcc.a
LOAD c:/program files (x86)/atmel/studio/7.0/toolchain/arm/arm-gnu-toolchain/bin/../lib/gcc/arm-none-eabi/5.3.1/../../../../arm-none-eabi/lib/armv6-m\libc_nano.a
END GROUP
LOAD c:/program files (x86)/atmel/studio/7.0/toolchain/arm/arm-gnu-toolchain/bin/../lib/gcc/arm-none-eabi/5.3.1/armv6-m/crtend.o
LOAD c:/program files (x86)/atmel/studio/7.0/toolchain/arm/arm-gnu-toolchain/bin/../lib/gcc/arm-none-eabi/5.3.1/armv6-m/crtn.o
                0x00000800                STACK_SIZE = DEFINED (STACK_SIZE)?STACK_SIZE:DEFINED (__stack_size__)?__stack_size__:0x800

.text           0x10008000     0xdef0
                0x10008000                . = ALIGN (0x4)
                0x10008000                _sfixed = .
 *(.test.main .text.app_entry)
 .text.app_entry
                0x10008000       0x54 src/ASF/sam0/utils/cmsis/samb11/source/gcc/startup_samb11.o
                0x10008000                app_entry
 *(.text .text.* .gnu.linkonce.t.*)
 .text          0x10008054       0x60 c:/program files (x86)/atmel/studio/7.0/toolchain/arm/arm-gnu-toolchain/bin/../lib/gcc/arm-none-eabi/5.3.1/armv6-m/crtbegin.o
 .text.aon_sleep_timer_get_config_defaults
                0x100080b4        0xe src/ASF/sam0/drivers/aon_sleep_timer/aon_sleep_timer.o
                0x100080b4                aon_sleep_timer_get_config_defaults
 *fill*         0x100080c2        0x2 
 .text.aon_sleep_timer_disable
                0x100080c4       0x20 src/ASF/sam0/drivers/aon_sleep_timer/aon_sleep_timer.o
                0x100080c4                aon_sleep_timer_disable
 .text.aon_sleep_timer_clear_interrup
                0x100080e4       0x10 src/ASF/sam0/drivers/aon_sleep_timer/aon_sleep_timer.o
                0x100080e4                aon_sleep_timer_clear_interrup
 .text.aon_sleep_timer_isr_handler
                0x100080f4       0x1c src/ASF/sam0/drivers/aon_sleep_timer/aon_sleep_timer.o
 .text.aon_sleep_timer_register_callback
                0x10008110        0xc src/ASF/sam0/drivers/aon_sleep_timer/aon_sleep_timer.o
                0x10008110                aon_sleep_timer_register_callback
 .text.aon_sleep_timer_unregister_callback
                0x1000811c        0xc src/ASF/sam0/drivers/aon_sleep_timer/aon_sleep_timer.o
                0x1000811c                aon_sleep_timer_unregister_callback
 .text.aon_sleep_timer_init
                0x10008128       0x9c src/ASF/sam0/drivers/aon_sleep_timer/aon_sleep_timer.o
                0x10008128                aon_sleep_timer_init
 .text.i2c_wait_for_idle
                0x100081c4        0xc src/ASF/sam0/drivers/i2c/i2c_master.o
 .text._i2c_master_read_packet
                0x100081d0       0x78 src/ASF/sam0/drivers/i2c/i2c_master.o
 .text._i2c_master_write_packet
                0x10008248       0x6c src/ASF/sam0/drivers/i2c/i2c_master.o
 .text.i2c_master_get_config_defaults
                0x100082b4       0x18 src/ASF/sam0/drivers/i2c/i2c_master.o
                0x100082b4                i2c_master_get_config_defaults
 .text.i2c_master_init
                0x100082cc       0x64 src/ASF/sam0/drivers/i2c/i2c_master.o
                0x100082cc                i2c_master_init
 .text.i2c_master_read_packet_wait
                0x10008330       0x20 src/ASF/sam0/drivers/i2c/i2c_master.o
                0x10008330                i2c_master_read_packet_wait
 .text.i2c_master_write_packet_wait
                0x10008350       0x20 src/ASF/sam0/drivers/i2c/i2c_master.o
                0x10008350                i2c_master_write_packet_wait
 .text.i2c_master_write_packet_wait_no_stop
                0x10008370       0x20 src/ASF/sam0/drivers/i2c/i2c_master.o
                0x10008370                i2c_master_write_packet_wait_no_stop
 .text._sbrk    0x10008390       0x20 src/ASF/sam0/utils/syscalls/gcc/syscalls.o
                0x10008390                _sbrk
 .text._close   0x100083b0        0x6 src/ASF/sam0/utils/syscalls/gcc/syscalls.o
                0x100083b0                _close
 .text._fstat   0x100083b6        0xa src/ASF/sam0/utils/syscalls/gcc/syscalls.o
                0x100083b6                _fstat
 .text._lseek   0x100083c0        0x4 src/ASF/sam0/utils/syscalls/gcc/syscalls.o
                0x100083c0                _lseek
 .text.madgwick_quaternion_update
                0x100083c4      0x83c src/ASF/thirdparty/sensor/mpu9250_kriswiner/quaternion_ahrs.o
                0x100083c4                madgwick_quaternion_update
 .text.ahrs_calculation
                0x10008c00        0x2 src/ASF/thirdparty/sensor/mpu9250_kriswiner/quaternion_ahrs.o
                0x10008c00                ahrs_calculation
 *fill*         0x10008c02        0x2 
 .text.sms_ble_pair_request_fn
                0x10008c04       0x1c src/sms_v_0_2/src/sms_ble.o
                0x10008c04                sms_ble_pair_request_fn
 .text.sms_ble_notification_confirmed_fn
                0x10008c20       0x50 src/sms_v_0_2/src/sms_ble.o
                0x10008c20                sms_ble_notification_confirmed_fn
 .text.sms_ble_indication_confirmed_fn
                0x10008c70       0x3c src/sms_v_0_2/src/sms_ble.o
                0x10008c70                sms_ble_indication_confirmed_fn
 .text.sms_ble_init_variables
                0x10008cac       0x14 src/sms_v_0_2/src/sms_ble.o
                0x10008cac                sms_ble_init_variables
 .text.sms_ble_startup
                0x10008cc0       0x18 src/sms_v_0_2/src/sms_ble.o
                0x10008cc0                sms_ble_startup
 .text.sms_ble_power_down
                0x10008cd8       0x94 src/sms_v_0_2/src/sms_ble.o
                0x10008cd8                sms_ble_power_down
 .text.sms_ble_adv_report_fn
                0x10008d6c       0x18 src/sms_v_0_2/src/sms_ble.o
                0x10008d6c                sms_ble_adv_report_fn
 .text.sms_ble_connected_fn
                0x10008d84       0x38 src/sms_v_0_2/src/sms_ble.o
                0x10008d84                sms_ble_connected_fn
 .text.sms_ble_paired_fn
                0x10008dbc       0x48 src/sms_v_0_2/src/sms_ble.o
                0x10008dbc                sms_ble_paired_fn
 .text.sms_ble_advertise
                0x10008e04       0x44 src/sms_v_0_2/src/sms_ble.o
                0x10008e04                sms_ble_advertise
 .text.sms_ble_disconnected_fn
                0x10008e48       0x7c src/sms_v_0_2/src/sms_ble.o
                0x10008e48                sms_ble_disconnected_fn
 .text.sms_ble_send_characteristic
                0x10008ec4      0x160 src/sms_v_0_2/src/sms_ble.o
                0x10008ec4                sms_ble_send_characteristic
 .text.sms_ble_primary_service_define
                0x10009024       0x20 src/sms_v_0_2/src/sms_ble.o
                0x10009024                sms_ble_primary_service_define
 .text.sms_ble_service_init
                0x10009044       0xa8 src/sms_v_0_2/src/sms_ble.o
                0x10009044                sms_ble_service_init
 .text.sms_button_bt0_callback
                0x100090ec       0x20 src/sms_v_0_2/src/sms_button.o
                0x100090ec                sms_button_bt0_callback
 .text.sms_button_bt1_callback
                0x1000910c       0x20 src/sms_v_0_2/src/sms_button.o
                0x1000910c                sms_button_bt1_callback
 .text.sms_button_init_variables
                0x1000912c       0x28 src/sms_v_0_2/src/sms_button.o
                0x1000912c                sms_button_init_variables
 .text.sms_button_gpio_init
                0x10009154       0x54 src/sms_v_0_2/src/sms_button.o
                0x10009154                sms_button_gpio_init
 .text.sms_button_register_callbacks
                0x100091a8       0x28 src/sms_v_0_2/src/sms_button.o
                0x100091a8                sms_button_register_callbacks
 .text.sms_button_get_state
                0x100091d0       0x2c src/sms_v_0_2/src/sms_button.o
                0x100091d0                sms_button_get_state
 .text.sms_button_fn
                0x100091fc       0xfc src/sms_v_0_2/src/sms_button.o
                0x100091fc                sms_button_fn
 .text.sms_button_toggle_callback
                0x100092f8       0x44 src/sms_v_0_2/src/sms_button.o
                0x100092f8                sms_button_toggle_callback
 .text.sms_button_define_services
                0x1000933c       0x28 src/sms_v_0_2/src/sms_button.o
                0x1000933c                sms_button_define_services
 .text.sms_monitor_configure_gpio
                0x10009364       0x40 src/sms_v_0_2/src/sms_common.o
                0x10009364                sms_monitor_configure_gpio
 .text.sms_monitor_get_states
                0x100093a4       0x24 src/sms_v_0_2/src/sms_common.o
                0x100093a4                sms_monitor_get_states
 .text.sms_i2c_master_configure
                0x100093c8       0x74 src/sms_v_0_2/src/sms_i2c.o
                0x100093c8                sms_i2c_master_configure
 .text.sms_i2c_master_write
                0x1000943c       0x50 src/sms_v_0_2/src/sms_i2c.o
                0x1000943c                sms_i2c_master_write
 .text.sms_i2c_master_read
                0x1000948c       0x80 src/sms_v_0_2/src/sms_i2c.o
                0x1000948c                sms_i2c_master_read
 .text.sms_mpu_interrupt_callback
                0x1000950c       0x2c src/sms_v_0_2/src/sms_mpu.o
                0x1000950c                sms_mpu_interrupt_callback
 .text.sms_mpu_configure_gpio
                0x10009538       0x28 src/sms_v_0_2/src/sms_mpu.o
                0x10009538                sms_mpu_configure_gpio
 .text.sms_mpu_register_callbacks
                0x10009560       0x18 src/sms_v_0_2/src/sms_mpu.o
                0x10009560                sms_mpu_register_callbacks
 .text.sms_mpu_enable_callback
                0x10009578       0x1c src/sms_v_0_2/src/sms_mpu.o
                0x10009578                sms_mpu_enable_callback
 .text.sms_mpu_disable_callback
                0x10009594       0x1c src/sms_v_0_2/src/sms_mpu.o
                0x10009594                sms_mpu_disable_callback
 .text.sms_mpu_define_services
                0x100095b0       0x28 src/sms_v_0_2/src/sms_mpu.o
                0x100095b0                sms_mpu_define_services
 .text.read_accel_data
                0x100095d8       0x40 src/sms_v_0_2/src/sms_mpu.o
                0x100095d8                read_accel_data
 .text.read_gyro_data
                0x10009618       0x40 src/sms_v_0_2/src/sms_mpu.o
                0x10009618                read_gyro_data
 .text.get_Mres
                0x10009658       0x1c src/sms_v_0_2/src/sms_mpu.o
                0x10009658                get_Mres
 .text.get_Ares
                0x10009674       0x22 src/sms_v_0_2/src/sms_mpu.o
                0x10009674                get_Ares
 *fill*         0x10009696        0x2 
 .text.writeByte
                0x10009698       0x14 src/sms_v_0_2/src/sms_mpu.o
                0x10009698                writeByte
 .text.sms_mpu_calibrate
                0x100096ac      0x350 src/sms_v_0_2/src/sms_mpu.o
                0x100096ac                sms_mpu_calibrate
 .text.sms_mpu_comp_initialize
                0x100099fc      0x110 src/sms_v_0_2/src/sms_mpu.o
                0x100099fc                sms_mpu_comp_initialize
 .text.readByte
                0x10009b0c       0x14 src/sms_v_0_2/src/sms_mpu.o
                0x10009b0c                readByte
 .text.sms_mpu_comp_check
                0x10009b20       0x18 src/sms_v_0_2/src/sms_mpu.o
                0x10009b20                sms_mpu_comp_check
 .text.sms_mpu_initialize
                0x10009b38       0xb4 src/sms_v_0_2/src/sms_mpu.o
                0x10009b38                sms_mpu_initialize
 .text.sms_mpu_selftest
                0x10009bec      0x3f0 src/sms_v_0_2/src/sms_mpu.o
                0x10009bec                sms_mpu_selftest
 .text.sms_mpu_check
                0x10009fdc       0x2c src/sms_v_0_2/src/sms_mpu.o
                0x10009fdc                sms_mpu_check
 .text.read_comp_data
                0x1000a008       0x58 src/sms_v_0_2/src/sms_mpu.o
                0x1000a008                read_comp_data
 .text.sms_mpu_poll_data
                0x1000a060      0x1b8 src/sms_v_0_2/src/sms_mpu.o
                0x1000a060                sms_mpu_poll_data
 .text.sms_led_switch_on
                0x1000a218       0x10 src/sms_v_0_2/src/sms_led.o
                0x1000a218                sms_led_switch_on
 .text.sms_led_switch_off
                0x1000a228       0x10 src/sms_v_0_2/src/sms_led.o
                0x1000a228                sms_led_switch_off
 .text.sms_led_gpio_init
                0x1000a238       0x2c src/sms_v_0_2/src/sms_led.o
                0x1000a238                sms_led_gpio_init
 .text.sms_led_toggle
                0x1000a264       0x28 src/sms_v_0_2/src/sms_led.o
                0x1000a264                sms_led_toggle
 .text.sms_led_blink_start
                0x1000a28c       0x40 src/sms_v_0_2/src/sms_led.o
                0x1000a28c                sms_led_blink_start
 .text.sms_pressure_init_variables
                0x1000a2cc       0x24 src/sms_v_0_2/src/sms_pressure.o
                0x1000a2cc                sms_pressure_init_variables
 .text.sms_pressure_ms58_reset
                0x1000a2f0       0x2c src/sms_v_0_2/src/sms_pressure.o
                0x1000a2f0                sms_pressure_ms58_reset
 .text.sms_pressure_ms58_read_prom
                0x1000a31c      0x10c src/sms_v_0_2/src/sms_pressure.o
                0x1000a31c                sms_pressure_ms58_read_prom
 .text.sms_pressure_init
                0x1000a428       0x34 src/sms_v_0_2/src/sms_pressure.o
                0x1000a428                sms_pressure_init
 .text.sms_pressure_startup
                0x1000a45c       0x60 src/sms_v_0_2/src/sms_pressure.o
                0x1000a45c                sms_pressure_startup
 .text.sms_pressure_define_services
                0x1000a4bc       0x28 src/sms_v_0_2/src/sms_pressure.o
                0x1000a4bc                sms_pressure_define_services
 .text.sms_sensors_interrupt_toggle
                0x1000a4e4       0x7c src/sms_v_0_2/src/sms_sensors.o
                0x1000a4e4                sms_sensors_interrupt_toggle
 .text.sms_sensors_switch
                0x1000a560       0x38 src/sms_v_0_2/src/sms_sensors.o
                0x1000a560                sms_sensors_switch
 .text.sms_spi_master_configure
                0x1000a598       0x78 src/sms_v_0_2/src/sms_spi.o
                0x1000a598                sms_spi_master_configure
 .text.sms_spi_master_transceive
                0x1000a610       0x38 src/sms_v_0_2/src/sms_spi.o
                0x1000a610                sms_spi_master_transceive
 .text.sms_timer_aon_callback
                0x1000a648       0x2c src/sms_v_0_2/src/sms_timer.o
                0x1000a648                sms_timer_aon_callback
 .text.sms_timer_aon_init
                0x1000a674       0x24 src/sms_v_0_2/src/sms_timer.o
                0x1000a674                sms_timer_aon_init
 .text.sms_timer_aon_disable
                0x1000a698        0xc src/sms_v_0_2/src/sms_timer.o
                0x1000a698                sms_timer_aon_disable
 .text.sms_timer_aon_register_callback
                0x1000a6a4       0x20 src/sms_v_0_2/src/sms_timer.o
                0x1000a6a4                sms_timer_aon_register_callback
 .text.sms_timer_aon_unregister_callback
                0x1000a6c4       0x18 src/sms_v_0_2/src/sms_timer.o
                0x1000a6c4                sms_timer_aon_unregister_callback
 .text.sms_dualtimer_init
                0x1000a6dc       0x44 src/sms_v_0_2/src/sms_timer.o
                0x1000a6dc                sms_dualtimer_init
 .text.sms_dualtimer_register_callback
                0x1000a720       0x18 src/sms_v_0_2/src/sms_timer.o
                0x1000a720                sms_dualtimer_register_callback
 .text.sms_dualtimer_start
                0x1000a738       0x4c src/sms_v_0_2/src/sms_timer.o
                0x1000a738                sms_dualtimer_start
 .text.sms_dualtimer_stop
                0x1000a784        0xc src/sms_v_0_2/src/sms_timer.o
                0x1000a784                sms_dualtimer_stop
 .text.sms_dualtimer1_cb
                0x1000a790       0x1c src/sms_v_0_2/src/sms_timer.o
                0x1000a790                sms_dualtimer1_cb
 .text.sms_dualtimer1_fn
                0x1000a7ac      0x180 src/sms_v_0_2/src/sms_timer.o
                0x1000a7ac                sms_dualtimer1_fn
 .text.sms_dualtimer2_fn
                0x1000a92c       0xf0 src/sms_v_0_2/src/sms_timer.o
                0x1000a92c                sms_dualtimer2_fn
 .text.delay_ms
                0x1000aa1c       0x2c src/sms_v_0_2/src/sms_timer.o
                0x1000aa1c                delay_ms
 .text.spi_slave_inst_get_config_defaults
                0x1000aa48        0xc src/ASF/sam0/drivers/spi/spi.o
                0x1000aa48                spi_slave_inst_get_config_defaults
 .text.spi_get_config_defaults
                0x1000aa54       0x2c src/ASF/sam0/drivers/spi/spi.o
                0x1000aa54                spi_get_config_defaults
 .text.spi_attach_slave
                0x1000aa80       0x3c src/ASF/sam0/drivers/spi/spi.o
                0x1000aa80                spi_attach_slave
 .text.spi_enable
                0x1000aabc        0x8 src/ASF/sam0/drivers/spi/spi.o
                0x1000aabc                spi_enable
 .text.spi_disable
                0x1000aac4       0x48 src/ASF/sam0/drivers/spi/spi.o
                0x1000aac4                spi_disable
 .text.spi_reset
                0x1000ab0c       0x3c src/ASF/sam0/drivers/spi/spi.o
                0x1000ab0c                spi_reset
 .text.spi_init
                0x1000ab48      0x11c src/ASF/sam0/drivers/spi/spi.o
                0x1000ab48                spi_init
 .text.spi_transceive_buffer_wait
                0x1000ac64       0x80 src/ASF/sam0/drivers/spi/spi.o
                0x1000ac64                spi_transceive_buffer_wait
 .text.spi_select_slave
                0x1000ace4       0x18 src/ASF/sam0/drivers/spi/spi.o
                0x1000ace4                spi_select_slave
 .text.dualtimer_isr_handler
                0x1000acfc       0x48 src/ASF/sam0/drivers/dualtimer/dualtimer.o
 .text.dualtimer_get_config_defaults
                0x1000ad44       0x22 src/ASF/sam0/drivers/dualtimer/dualtimer.o
                0x1000ad44                dualtimer_get_config_defaults
 *fill*         0x1000ad66        0x2 
 .text.dualtimer_get_value
                0x1000ad68       0x14 src/ASF/sam0/drivers/dualtimer/dualtimer.o
                0x1000ad68                dualtimer_get_value
 .text.dualtimer_set_counter
                0x1000ad7c       0x24 src/ASF/sam0/drivers/dualtimer/dualtimer.o
                0x1000ad7c                dualtimer_set_counter
 .text.dualtimer_enable
                0x1000ada0       0x28 src/ASF/sam0/drivers/dualtimer/dualtimer.o
                0x1000ada0                dualtimer_enable
 .text.dualtimer_disable
                0x1000adc8       0x24 src/ASF/sam0/drivers/dualtimer/dualtimer.o
                0x1000adc8                dualtimer_disable
 .text.dualtimer_init
                0x1000adec      0x10c src/ASF/sam0/drivers/dualtimer/dualtimer.o
                0x1000adec                dualtimer_init
 .text.dualtimer_register_callback
                0x1000aef8       0x14 src/ASF/sam0/drivers/dualtimer/dualtimer.o
                0x1000aef8                dualtimer_register_callback
 .text.gpio_port0_isr_handler
                0x1000af0c       0x58 src/ASF/sam0/drivers/gpio/gpio.o
 .text.gpio_port1_isr_handler
                0x1000af64       0x70 src/ASF/sam0/drivers/gpio/gpio.o
 .text.gpio_port2_isr_handler
                0x1000afd4       0x7c src/ASF/sam0/drivers/gpio/gpio.o
 .text.gpio_get_config_defaults
                0x1000b050        0xe src/ASF/sam0/drivers/gpio/gpio.o
                0x1000b050                gpio_get_config_defaults
 *fill*         0x1000b05e        0x2 
 .text.gpio_pin_set_config
                0x1000b060      0x184 src/ASF/sam0/drivers/gpio/gpio.o
                0x1000b060                gpio_pin_set_config
 .text.gpio_pin_get_input_level
                0x1000b1e4       0x3c src/ASF/sam0/drivers/gpio/gpio.o
                0x1000b1e4                gpio_pin_get_input_level
 .text.gpio_pin_get_output_level
                0x1000b220       0x3c src/ASF/sam0/drivers/gpio/gpio.o
                0x1000b220                gpio_pin_get_output_level
 .text.gpio_pin_set_output_level
                0x1000b25c       0x4c src/ASF/sam0/drivers/gpio/gpio.o
                0x1000b25c                gpio_pin_set_output_level
 .text.gpio_pinmux_cofiguration
                0x1000b2a8       0xd8 src/ASF/sam0/drivers/gpio/gpio.o
                0x1000b2a8                gpio_pinmux_cofiguration
 .text.gpio_register_callback
                0x1000b380       0x98 src/ASF/sam0/drivers/gpio/gpio.o
                0x1000b380                gpio_register_callback
 .text.gpio_enable_callback
                0x1000b418       0x4c src/ASF/sam0/drivers/gpio/gpio.o
                0x1000b418                gpio_enable_callback
 .text.gpio_disable_callback
                0x1000b464       0x38 src/ASF/sam0/drivers/gpio/gpio.o
                0x1000b464                gpio_disable_callback
 .text.gpio_init
                0x1000b49c       0x6c src/ASF/sam0/drivers/gpio/gpio.o
                0x1000b49c                gpio_init
 .text.system_clock_config
                0x1000b508       0x78 src/ASF/sam0/drivers/system/system_sam_b.o
                0x1000b508                system_clock_config
 .text.system_clock_get_value
                0x1000b580        0xc src/ASF/sam0/drivers/system/system_sam_b.o
                0x1000b580                system_clock_get_value
 .text.system_clock_peripheral_enable
                0x1000b58c      0x1e8 src/ASF/sam0/drivers/system/system_sam_b.o
                0x1000b58c                system_clock_peripheral_enable
 .text.system_clock_peripheral_disable
                0x1000b774      0x200 src/ASF/sam0/drivers/system/system_sam_b.o
                0x1000b774                system_clock_peripheral_disable
 .text.system_peripheral_reset
                0x1000b974      0x388 src/ASF/sam0/drivers/system/system_sam_b.o
                0x1000b974                system_peripheral_reset
 .text.system_register_isr
                0x1000bcfc        0xc src/ASF/sam0/drivers/system/system_sam_b.o
                0x1000bcfc                system_register_isr
 .text.uart_rx0_isr_handler
                0x1000bd08       0x8c src/ASF/sam0/drivers/uart/uart.o
 .text.uart_tx1_isr_handler
                0x1000bd94       0x8c src/ASF/sam0/drivers/uart/uart.o
 .text.uart_rx1_isr_handler
                0x1000be20       0x8c src/ASF/sam0/drivers/uart/uart.o
 .text.uart_tx0_isr_handler
                0x1000beac       0x8c src/ASF/sam0/drivers/uart/uart.o
 .text.uart_get_config_defaults
                0x1000bf38       0x2a src/ASF/sam0/drivers/uart/uart.o
                0x1000bf38                uart_get_config_defaults
 *fill*         0x1000bf62        0x2 
 .text.uart_init
                0x1000bf64      0x17c src/ASF/sam0/drivers/uart/uart.o
                0x1000bf64                uart_init
 .text.uart_write_wait
                0x1000c0e0       0x10 src/ASF/sam0/drivers/uart/uart.o
                0x1000c0e0                uart_write_wait
 .text.uart_read_wait
                0x1000c0f0       0x12 src/ASF/sam0/drivers/uart/uart.o
                0x1000c0f0                uart_read_wait
 .text.uart_read_buffer_job
                0x1000c102       0x26 src/ASF/sam0/drivers/uart/uart.o
                0x1000c102                uart_read_buffer_job
 .text.uart_register_callback
                0x1000c128       0x14 src/ASF/sam0/drivers/uart/uart.o
                0x1000c128                uart_register_callback
 .text.uart_enable_callback
                0x1000c13c       0x1e src/ASF/sam0/drivers/uart/uart.o
                0x1000c13c                uart_enable_callback
 .text.uart_disable_callback
                0x1000c15a       0x1e src/ASF/sam0/drivers/uart/uart.o
                0x1000c15a                uart_disable_callback
 .text._read    0x1000c178       0x38 src/ASF/sam0/utils/stdio/read.o
                0x1000c178                _read
 .text._write   0x1000c1b0       0x34 src/ASF/sam0/utils/stdio/write.o
                0x1000c1b0                _write
 .text.ble_scan_report_handler
                0x1000c1e4        0xa src/ASF/thirdparty/wireless/ble_smart_sdk/ble_services/ble_mgr/ble_manager.o
                0x1000c1e4                ble_scan_report_handler
 .text.ble_adv_report_handler
                0x1000c1ee        0xa src/ASF/thirdparty/wireless/ble_smart_sdk/ble_services/ble_mgr/ble_manager.o
                0x1000c1ee                ble_adv_report_handler
 .text.ble_characteristic_write_cmd_complete_handler
                0x1000c1f8        0xa src/ASF/thirdparty/wireless/ble_smart_sdk/ble_services/ble_mgr/ble_manager.o
                0x1000c1f8                ble_characteristic_write_cmd_complete_handler
 *fill*         0x1000c202        0x2 
 .text.ble_disconnected_state_handler
                0x1000c204       0x6c src/ASF/thirdparty/wireless/ble_smart_sdk/ble_services/ble_mgr/ble_manager.o
                0x1000c204                ble_disconnected_state_handler
 .text.ble_conn_param_update
                0x1000c270        0x4 src/ASF/thirdparty/wireless/ble_smart_sdk/ble_services/ble_mgr/ble_manager.o
                0x1000c270                ble_conn_param_update
 .text.ble_encryption_status_change_handler
                0x1000c274       0x6c src/ASF/thirdparty/wireless/ble_smart_sdk/ble_services/ble_mgr/ble_manager.o
                0x1000c274                ble_encryption_status_change_handler
 .text.ble_conn_param_update_req
                0x1000c2e0       0x18 src/ASF/thirdparty/wireless/ble_smart_sdk/ble_services/ble_mgr/ble_manager.o
                0x1000c2e0                ble_conn_param_update_req
 .text.ble_slave_security_request_handler
                0x1000c2f8      0x168 src/ASF/thirdparty/wireless/ble_smart_sdk/ble_services/ble_mgr/ble_manager.o
                0x1000c2f8                ble_slave_security_request_handler
 .text.ble_pair_request_handler
                0x1000c460       0xf8 src/ASF/thirdparty/wireless/ble_smart_sdk/ble_services/ble_mgr/ble_manager.o
                0x1000c460                ble_pair_request_handler
 .text.ble_encryption_request_handler
                0x1000c558       0x90 src/ASF/thirdparty/wireless/ble_smart_sdk/ble_services/ble_mgr/ble_manager.o
                0x1000c558                ble_encryption_request_handler
 .text.ble_scan_info_handler
                0x1000c5e8       0x40 src/ASF/thirdparty/wireless/ble_smart_sdk/ble_services/ble_mgr/ble_manager.o
                0x1000c5e8                ble_scan_info_handler
 .text.ble_pair_done_handler
                0x1000c628       0xac src/ASF/thirdparty/wireless/ble_smart_sdk/ble_services/ble_mgr/ble_manager.o
                0x1000c628                ble_pair_done_handler
 .text.ble_pair_key_request_handler
                0x1000c6d4       0x84 src/ASF/thirdparty/wireless/ble_smart_sdk/ble_services/ble_mgr/ble_manager.o
                0x1000c6d4                ble_pair_key_request_handler
 .text.ble_mtu_changed_indication_handler
                0x1000c758        0x4 src/ASF/thirdparty/wireless/ble_smart_sdk/ble_services/ble_mgr/ble_manager.o
                0x1000c758                ble_mtu_changed_indication_handler
 .text.ble_undefined_event_handler
                0x1000c75c        0x4 src/ASF/thirdparty/wireless/ble_smart_sdk/ble_services/ble_mgr/ble_manager.o
                0x1000c75c                ble_undefined_event_handler
 .text.ble_mtu_changed_cmd_complete_handler
                0x1000c760        0xa src/ASF/thirdparty/wireless/ble_smart_sdk/ble_services/ble_mgr/ble_manager.o
                0x1000c760                ble_mtu_changed_cmd_complete_handler
 *fill*         0x1000c76a        0x2 
 .text.ble_set_device_name
                0x1000c76c       0x1c src/ASF/thirdparty/wireless/ble_smart_sdk/ble_services/ble_mgr/ble_manager.o
                0x1000c76c                ble_set_device_name
 .text.ble_mgr_events_callback_handler
                0x1000c788       0x64 src/ASF/thirdparty/wireless/ble_smart_sdk/ble_services/ble_mgr/ble_manager.o
                0x1000c788                ble_mgr_events_callback_handler
 .text.ble_device_init
                0x1000c7ec      0x1ec src/ASF/thirdparty/wireless/ble_smart_sdk/ble_services/ble_mgr/ble_manager.o
                0x1000c7ec                ble_device_init
 .text.ble_send_slave_sec_request
                0x1000c9d8       0x18 src/ASF/thirdparty/wireless/ble_smart_sdk/ble_services/ble_mgr/ble_manager.o
                0x1000c9d8                ble_send_slave_sec_request
 .text.ble_connected_state_handler
                0x1000c9f0      0x168 src/ASF/thirdparty/wireless/ble_smart_sdk/ble_services/ble_mgr/ble_manager.o
                0x1000c9f0                ble_connected_state_handler
 .text.ble_resolv_rand_addr_handler
                0x1000cb58       0xc4 src/ASF/thirdparty/wireless/ble_smart_sdk/ble_services/ble_mgr/ble_manager.o
                0x1000cb58                ble_resolv_rand_addr_handler
 .text.ble_event_manager
                0x1000cc1c      0x104 src/ASF/thirdparty/wireless/ble_smart_sdk/ble_services/ble_mgr/ble_manager.o
                0x1000cc1c                ble_event_manager
 .text.ble_event_task
                0x1000cd20       0x58 src/ASF/thirdparty/wireless/ble_smart_sdk/ble_services/ble_mgr/ble_manager.o
                0x1000cd20                ble_event_task
 .text.ble_advertisement_data_set
                0x1000cd78       0x6c src/ASF/thirdparty/wireless/ble_smart_sdk/ble_services/ble_mgr/ble_manager.o
                0x1000cd78                ble_advertisement_data_set
 .text.usart_serial_getchar
                0x1000cde4       0x18 src/ASF/thirdparty/wireless/ble_smart_sdk/services/uart/console_serial.o
 .text.usart_serial_putchar
                0x1000cdfc       0x18 src/ASF/thirdparty/wireless/ble_smart_sdk/services/uart/console_serial.o
 .text.uart_read_complete_callback
                0x1000ce14       0x50 src/ASF/thirdparty/wireless/ble_smart_sdk/services/uart/console_serial.o
 .text.serial_console_init
                0x1000ce64       0xa8 src/ASF/thirdparty/wireless/ble_smart_sdk/services/uart/console_serial.o
                0x1000ce64                serial_console_init
 .text._time_start
                0x1000cf0c       0x54 src/ASF/thirdparty/wireless/ble_smart_sdk/services/uart/console_serial.o
                0x1000cf0c                _time_start
 .text._time_done
                0x1000cf60       0x10 src/ASF/thirdparty/wireless/ble_smart_sdk/services/uart/console_serial.o
                0x1000cf60                _time_done
 .text.getchar_b11_timeout
                0x1000cf70       0x68 src/ASF/thirdparty/wireless/ble_smart_sdk/services/uart/console_serial.o
                0x1000cf70                getchar_b11_timeout
 .text.platform_event_free
                0x1000cfd8       0x10 src/ASF/thirdparty/wireless/ble_smart_sdk/src/event_handler.o
                0x1000cfd8                platform_event_free
 .text.platform_event_post
                0x1000cfe8       0x3c src/ASF/thirdparty/wireless/ble_smart_sdk/src/event_handler.o
                0x1000cfe8                platform_event_post
 .text.platform_event_init
                0x1000d024       0x2c src/ASF/thirdparty/wireless/ble_smart_sdk/src/event_handler.o
                0x1000d024                platform_event_init
 .text.samb11_plf_resume_callback
                0x1000d050       0x2c src/ASF/thirdparty/wireless/ble_smart_sdk/src/platform_drv.o
                0x1000d050                samb11_plf_resume_callback
 .text.at_ke_msg_send
                0x1000d07c       0x78 src/ASF/thirdparty/wireless/ble_smart_sdk/src/platform_drv.o
 .text.init_port_list
                0x1000d0f4       0x44 src/ASF/thirdparty/wireless/ble_smart_sdk/src/platform_drv.o
                0x1000d0f4                init_port_list
 .text.init_clock
                0x1000d138       0x30 src/ASF/thirdparty/wireless/ble_smart_sdk/src/platform_drv.o
                0x1000d138                init_clock
 .text.platform_driver_init
                0x1000d168      0x230 src/ASF/thirdparty/wireless/ble_smart_sdk/src/platform_drv.o
                0x1000d168                platform_driver_init
 .text.platform_register_ble_msg_handler
                0x1000d398       0x1c src/ASF/thirdparty/wireless/ble_smart_sdk/src/platform_drv.o
                0x1000d398                platform_register_ble_msg_handler
 .text.platform_interface_send
                0x1000d3b4       0x48 src/ASF/thirdparty/wireless/ble_smart_sdk/src/platform_drv.o
                0x1000d3b4                platform_interface_send
 .text.send_plf_int_msg_ind
                0x1000d3fc       0x40 src/ASF/thirdparty/wireless/ble_smart_sdk/src/platform_drv.o
                0x1000d3fc                send_plf_int_msg_ind
 .text.platform_event_wait
                0x1000d43c      0x200 src/ASF/thirdparty/wireless/ble_smart_sdk/src/platform_drv.o
                0x1000d43c                platform_event_wait
 .text.acquire_sleep_lock
                0x1000d63c       0x14 src/ASF/thirdparty/wireless/ble_smart_sdk/src/platform_drv.o
                0x1000d63c                acquire_sleep_lock
 .text.release_message_lock
                0x1000d650       0x14 src/ASF/thirdparty/wireless/ble_smart_sdk/src/platform_drv.o
                0x1000d650                release_message_lock
 .text.release_sleep_lock
                0x1000d664       0x1c src/ASF/thirdparty/wireless/ble_smart_sdk/src/platform_drv.o
                0x1000d664                release_sleep_lock
 .text.register_resume_callback
                0x1000d680       0x14 src/ASF/thirdparty/wireless/ble_smart_sdk/src/platform_drv.o
                0x1000d680                register_resume_callback
 .text.gpio1_combined_isr_handler
                0x1000d694       0x58 src/ASF/thirdparty/wireless/ble_smart_sdk/src/port_from_sdk.o
                0x1000d694                gpio1_combined_isr_handler
 .text.gpio0_combined_isr_handler
                0x1000d6ec       0x58 src/ASF/thirdparty/wireless/ble_smart_sdk/src/port_from_sdk.o
                0x1000d6ec                gpio0_combined_isr_handler
 .text.PORT1_COMB_Handler
                0x1000d744       0x40 src/ASF/thirdparty/wireless/ble_smart_sdk/src/port_from_sdk.o
                0x1000d744                PORT1_COMB_Handler
 .text.wakeup_int_unregister_callback
                0x1000d784       0x18 src/ASF/thirdparty/wireless/ble_smart_sdk/src/port_from_sdk.o
                0x1000d784                wakeup_int_unregister_callback
 .text.wakeup_active_event_callback
                0x1000d79c       0x64 src/ASF/thirdparty/wireless/ble_smart_sdk/src/port_from_sdk.o
                0x1000d79c                wakeup_active_event_callback
 .text.resume_cb
                0x1000d800       0x4c src/sms_peripheral1.o
 .text.sms_init_variables
                0x1000d84c       0x4c src/sms_peripheral1.o
                0x1000d84c                sms_init_variables
 .text.startup.main
                0x1000d898      0x260 src/sms_peripheral1.o
                0x1000d898                main
 .text.internal_event_post
                0x1000daf8       0x5c ../src/ASF/thirdparty/wireless/ble_smart_sdk/lib/cm0/gcc\libblusdk.a(event.o)
                0x1000daf8                internal_event_post
 .text.internal_event_init
                0x1000db54       0x2c ../src/ASF/thirdparty/wireless/ble_smart_sdk/lib/cm0/gcc\libblusdk.a(event.o)
                0x1000db54                internal_event_init
 .text.special_events_handler
                0x1000db80       0x90 ../src/ASF/thirdparty/wireless/ble_smart_sdk/lib/cm0/gcc\libblusdk.a(event.o)
                0x1000db80                special_events_handler
 .text.at_ble_event_get
                0x1000dc10      0x6d8 ../src/ASF/thirdparty/wireless/ble_smart_sdk/lib/cm0/gcc\libblusdk.a(event.o)
                0x1000dc10                at_ble_event_get
 .text.internal_event_flush
                0x1000e2e8       0x44 ../src/ASF/thirdparty/wireless/ble_smart_sdk/lib/cm0/gcc\libblusdk.a(event.o)
                0x1000e2e8                internal_event_flush
 .text.internal_conn_flush
                0x1000e32c       0x54 ../src/ASF/thirdparty/wireless/ble_smart_sdk/lib/cm0/gcc\libblusdk.a(event.o)
                0x1000e32c                internal_conn_flush
 .text.at_ble_device_name_set
                0x1000e380       0x34 ../src/ASF/thirdparty/wireless/ble_smart_sdk/lib/cm0/gcc\libblusdk.a(gap.o)
                0x1000e380                at_ble_device_name_set
 .text.at_ble_addr_get
                0x1000e3b4       0x24 ../src/ASF/thirdparty/wireless/ble_smart_sdk/lib/cm0/gcc\libblusdk.a(gap.o)
                0x1000e3b4                at_ble_addr_get
 .text.at_ble_set_dev_config
                0x1000e3d8       0x90 ../src/ASF/thirdparty/wireless/ble_smart_sdk/lib/cm0/gcc\libblusdk.a(gap.o)
                0x1000e3d8                at_ble_set_dev_config
 .text.at_ble_init
                0x1000e468      0x1b4 ../src/ASF/thirdparty/wireless/ble_smart_sdk/lib/cm0/gcc\libblusdk.a(gap.o)
                0x1000e468                at_ble_init
 .text.at_ble_addr_set
                0x1000e61c       0x54 ../src/ASF/thirdparty/wireless/ble_smart_sdk/lib/cm0/gcc\libblusdk.a(gap.o)
                0x1000e61c                at_ble_addr_set
 .text.at_ble_adv_data_set
                0x1000e670       0x84 ../src/ASF/thirdparty/wireless/ble_smart_sdk/lib/cm0/gcc\libblusdk.a(gap.o)
                0x1000e670                at_ble_adv_data_set
 .text.at_ble_adv_start
                0x1000e6f4      0x13c ../src/ASF/thirdparty/wireless/ble_smart_sdk/lib/cm0/gcc\libblusdk.a(gap.o)
                0x1000e6f4                at_ble_adv_start
 .text.at_ble_adv_stop
                0x1000e830        0xc ../src/ASF/thirdparty/wireless/ble_smart_sdk/lib/cm0/gcc\libblusdk.a(gap.o)
                0x1000e830                at_ble_adv_stop
 .text.at_ble_scan_stop
                0x1000e83c       0x20 ../src/ASF/thirdparty/wireless/ble_smart_sdk/lib/cm0/gcc\libblusdk.a(gap.o)
                0x1000e83c                at_ble_scan_stop
 .text.at_ble_disconnect
                0x1000e85c       0x20 ../src/ASF/thirdparty/wireless/ble_smart_sdk/lib/cm0/gcc\libblusdk.a(gap.o)
                0x1000e85c                at_ble_disconnect
 .text.at_ble_conn_update_reply
                0x1000e87c        0xc ../src/ASF/thirdparty/wireless/ble_smart_sdk/lib/cm0/gcc\libblusdk.a(gap.o)
                0x1000e87c                at_ble_conn_update_reply
 .text.at_ble_random_address_resolve
                0x1000e888       0x28 ../src/ASF/thirdparty/wireless/ble_smart_sdk/lib/cm0/gcc\libblusdk.a(gap.o)
                0x1000e888                at_ble_random_address_resolve
 .text.at_ble_uuid_type2len
                0x1000e8b0       0x14 ../src/ASF/thirdparty/wireless/ble_smart_sdk/lib/cm0/gcc\libblusdk.a(gap.o)
                0x1000e8b0                at_ble_uuid_type2len
 .text.at_ble_uuid_len2type
                0x1000e8c4       0x14 ../src/ASF/thirdparty/wireless/ble_smart_sdk/lib/cm0/gcc\libblusdk.a(gap.o)
                0x1000e8c4                at_ble_uuid_len2type
 .text.init_gatt_client_module
                0x1000e8d8        0xc ../src/ASF/thirdparty/wireless/ble_smart_sdk/lib/cm0/gcc\libblusdk.a(gatt_client.o)
                0x1000e8d8                init_gatt_client_module
 .text.db_searchATT
                0x1000e8e4       0x40 ../src/ASF/thirdparty/wireless/ble_smart_sdk/lib/cm0/gcc\libblusdk.a(gatt_server.o)
 .text.att_permissions
                0x1000e924       0x58 ../src/ASF/thirdparty/wireless/ble_smart_sdk/lib/cm0/gcc\libblusdk.a(gatt_server.o)
 .text.char_permissions
                0x1000e97c       0x9c ../src/ASF/thirdparty/wireless/ble_smart_sdk/lib/cm0/gcc\libblusdk.a(gatt_server.o)
 .text.presentation_format_define
                0x1000ea18       0x2c ../src/ASF/thirdparty/wireless/ble_smart_sdk/lib/cm0/gcc\libblusdk.a(gatt_server.o)
 .text.db_addATT
                0x1000ea44       0xb8 ../src/ASF/thirdparty/wireless/ble_smart_sdk/lib/cm0/gcc\libblusdk.a(gatt_server.o)
 .text.user_description_define
                0x1000eafc       0x50 ../src/ASF/thirdparty/wireless/ble_smart_sdk/lib/cm0/gcc\libblusdk.a(gatt_server.o)
 .text.at_ble_read_authorize_reply.part.1
                0x1000eb4c       0x30 ../src/ASF/thirdparty/wireless/ble_smart_sdk/lib/cm0/gcc\libblusdk.a(gatt_server.o)
 .text.internal_at_ble_service_define
                0x1000eb7c      0x3bc ../src/ASF/thirdparty/wireless/ble_smart_sdk/lib/cm0/gcc\libblusdk.a(gatt_server.o)
 .text.initi_gatt_server_module
                0x1000ef38       0x3c ../src/ASF/thirdparty/wireless/ble_smart_sdk/lib/cm0/gcc\libblusdk.a(gatt_server.o)
                0x1000ef38                initi_gatt_server_module
 .text.db_init  0x1000ef74       0x44 ../src/ASF/thirdparty/wireless/ble_smart_sdk/lib/cm0/gcc\libblusdk.a(gatt_server.o)
                0x1000ef74                db_init
 .text.at_ble_primary_service_define
                0x1000efb8       0x20 ../src/ASF/thirdparty/wireless/ble_smart_sdk/lib/cm0/gcc\libblusdk.a(gatt_server.o)
                0x1000efb8                at_ble_primary_service_define
 .text.at_ble_characteristic_value_set
                0x1000efd8       0x3c ../src/ASF/thirdparty/wireless/ble_smart_sdk/lib/cm0/gcc\libblusdk.a(gatt_server.o)
                0x1000efd8                at_ble_characteristic_value_set
 .text.at_ble_characteristic_value_get
                0x1000f014       0x40 ../src/ASF/thirdparty/wireless/ble_smart_sdk/lib/cm0/gcc\libblusdk.a(gatt_server.o)
                0x1000f014                at_ble_characteristic_value_get
 .text.at_ble_write_authorize_reply
                0x1000f054       0x88 ../src/ASF/thirdparty/wireless/ble_smart_sdk/lib/cm0/gcc\libblusdk.a(gatt_server.o)
                0x1000f054                at_ble_write_authorize_reply
 .text.gatts_handle_read_req
                0x1000f0dc       0x30 ../src/ASF/thirdparty/wireless/ble_smart_sdk/lib/cm0/gcc\libblusdk.a(gatt_server.o)
                0x1000f0dc                gatts_handle_read_req
 .text.gatts_handle_att_info_req
                0x1000f10c       0x3c ../src/ASF/thirdparty/wireless/ble_smart_sdk/lib/cm0/gcc\libblusdk.a(gatt_server.o)
                0x1000f10c                gatts_handle_att_info_req
 .text.gatts_handle_write_req
                0x1000f148       0x30 ../src/ASF/thirdparty/wireless/ble_smart_sdk/lib/cm0/gcc\libblusdk.a(gatt_server.o)
                0x1000f148                gatts_handle_write_req
 .text.at_ble_notification_send
                0x1000f178       0x74 ../src/ASF/thirdparty/wireless/ble_smart_sdk/lib/cm0/gcc\libblusdk.a(gatt_server.o)
                0x1000f178                at_ble_notification_send
 .text.init_l2cc_task_module
                0x1000f1ec        0xc ../src/ASF/thirdparty/wireless/ble_smart_sdk/lib/cm0/gcc\libblusdk.a(l2cc_task.o)
                0x1000f1ec                init_l2cc_task_module
 .text.l2cc_data_send_rsp_handler
                0x1000f1f8       0x2c ../src/ASF/thirdparty/wireless/ble_smart_sdk/lib/cm0/gcc\libblusdk.a(l2cc_task.o)
                0x1000f1f8                l2cc_data_send_rsp_handler
 .text.l2cc_data_received_handler
                0x1000f224       0x30 ../src/ASF/thirdparty/wireless/ble_smart_sdk/lib/cm0/gcc\libblusdk.a(l2cc_task.o)
                0x1000f224                l2cc_data_received_handler
 .text.at_ble_authenticate
                0x1000f254      0x130 ../src/ASF/thirdparty/wireless/ble_smart_sdk/lib/cm0/gcc\libblusdk.a(security.o)
                0x1000f254                at_ble_authenticate
 .text.at_ble_pair_key_reply
                0x1000f384       0x7c ../src/ASF/thirdparty/wireless/ble_smart_sdk/lib/cm0/gcc\libblusdk.a(security.o)
                0x1000f384                at_ble_pair_key_reply
 .text.at_ble_send_slave_sec_request
                0x1000f400       0x40 ../src/ASF/thirdparty/wireless/ble_smart_sdk/lib/cm0/gcc\libblusdk.a(security.o)
                0x1000f400                at_ble_send_slave_sec_request
 .text.at_ble_encryption_start
                0x1000f440       0x78 ../src/ASF/thirdparty/wireless/ble_smart_sdk/lib/cm0/gcc\libblusdk.a(security.o)
                0x1000f440                at_ble_encryption_start
 .text.at_ble_encryption_request_reply
                0x1000f4b8       0x34 ../src/ASF/thirdparty/wireless/ble_smart_sdk/lib/cm0/gcc\libblusdk.a(security.o)
                0x1000f4b8                at_ble_encryption_request_reply
 .text.rx_callback
                0x1000f4ec       0x98 ../src/ASF/thirdparty/wireless/ble_smart_sdk/lib/cm0/gcc\libblusdk.a(interface.o)
                0x1000f4ec                rx_callback
 .text.interface_send
                0x1000f584       0x10 ../src/ASF/thirdparty/wireless/ble_smart_sdk/lib/cm0/gcc\libblusdk.a(interface.o)
                0x1000f584                interface_send
 .text.interface_init
                0x1000f594       0x48 ../src/ASF/thirdparty/wireless/ble_smart_sdk/lib/cm0/gcc\libblusdk.a(interface.o)
                0x1000f594                interface_init
 .text.platform_cmd_cmpl_signal
                0x1000f5dc        0xc ../src/ASF/thirdparty/wireless/ble_smart_sdk/lib/cm0/gcc\libblusdk.a(interface.o)
                0x1000f5dc                platform_cmd_cmpl_signal
 .text.platform_cmd_cmpl_wait
                0x1000f5e8       0x2c ../src/ASF/thirdparty/wireless/ble_smart_sdk/lib/cm0/gcc\libblusdk.a(interface.o)
                0x1000f5e8                platform_cmd_cmpl_wait
 .text.start_timer
                0x1000f614        0x2 ../src/ASF/thirdparty/wireless/ble_smart_sdk/lib/cm0/gcc\libblusdk.a(interface.o)
                0x1000f614                start_timer
 .text.stop_timer
                0x1000f616        0x2 ../src/ASF/thirdparty/wireless/ble_smart_sdk/lib/cm0/gcc\libblusdk.a(interface.o)
                0x1000f616                stop_timer
 .text.dbg_le_set_bd_addr_req_handler
                0x1000f618       0x7c ../src/ASF/thirdparty/wireless/ble_smart_sdk/lib/cm0/gcc\libblusdk.a(dbg_task.o)
                0x1000f618                dbg_le_set_bd_addr_req_handler
 .text.gapc_get_dev_info_cfm.constprop.1
                0x1000f694       0xc0 ../src/ASF/thirdparty/wireless/ble_smart_sdk/lib/cm0/gcc\libblusdk.a(gapc_task.o)
 .text.check_ConnData_idx_role
                0x1000f754       0x3c ../src/ASF/thirdparty/wireless/ble_smart_sdk/lib/cm0/gcc\libblusdk.a(gapc_task.o)
                0x1000f754                check_ConnData_idx_role
 .text.check_ConnData_emptyEntry
                0x1000f790       0x28 ../src/ASF/thirdparty/wireless/ble_smart_sdk/lib/cm0/gcc\libblusdk.a(gapc_task.o)
                0x1000f790                check_ConnData_emptyEntry
 .text.gapc_cmp_evt
                0x1000f7b8       0xd0 ../src/ASF/thirdparty/wireless/ble_smart_sdk/lib/cm0/gcc\libblusdk.a(gapc_task.o)
                0x1000f7b8                gapc_cmp_evt
 .text.gapc_connection_cfm_handler
                0x1000f888       0xc4 ../src/ASF/thirdparty/wireless/ble_smart_sdk/lib/cm0/gcc\libblusdk.a(gapc_task.o)
                0x1000f888                gapc_connection_cfm_handler
 .text.gapc_con_req_ind
                0x1000f94c       0xe0 ../src/ASF/thirdparty/wireless/ble_smart_sdk/lib/cm0/gcc\libblusdk.a(gapc_task.o)
                0x1000f94c                gapc_con_req_ind
 .text.gapc_disconnect_cmd_handler
                0x1000fa2c       0x44 ../src/ASF/thirdparty/wireless/ble_smart_sdk/lib/cm0/gcc\libblusdk.a(gapc_task.o)
                0x1000fa2c                gapc_disconnect_cmd_handler
 .text.gapc_disconnect_ind
                0x1000fa70       0x34 ../src/ASF/thirdparty/wireless/ble_smart_sdk/lib/cm0/gcc\libblusdk.a(gapc_task.o)
                0x1000fa70                gapc_disconnect_ind
 .text.gapc_bond_cmd_handler
                0x1000faa4       0x68 ../src/ASF/thirdparty/wireless/ble_smart_sdk/lib/cm0/gcc\libblusdk.a(gapc_task.o)
                0x1000faa4                gapc_bond_cmd_handler
 .text.gapc_bond_ind
                0x1000fb0c       0xd8 ../src/ASF/thirdparty/wireless/ble_smart_sdk/lib/cm0/gcc\libblusdk.a(gapc_task.o)
                0x1000fb0c                gapc_bond_ind
 .text.gapc_bond_req_ind
                0x1000fbe4       0xe0 ../src/ASF/thirdparty/wireless/ble_smart_sdk/lib/cm0/gcc\libblusdk.a(gapc_task.o)
                0x1000fbe4                gapc_bond_req_ind
 .text.gapc_bond_cfm_handler_pair_resp
                0x1000fcc4       0x7c ../src/ASF/thirdparty/wireless/ble_smart_sdk/lib/cm0/gcc\libblusdk.a(gapc_task.o)
                0x1000fcc4                gapc_bond_cfm_handler_pair_resp
 .text.gapc_bond_cfm_handler_key_exch
                0x1000fd40       0x50 ../src/ASF/thirdparty/wireless/ble_smart_sdk/lib/cm0/gcc\libblusdk.a(gapc_task.o)
                0x1000fd40                gapc_bond_cfm_handler_key_exch
 .text.gapc_security_cmd_handler
                0x1000fd90       0x40 ../src/ASF/thirdparty/wireless/ble_smart_sdk/lib/cm0/gcc\libblusdk.a(gapc_task.o)
                0x1000fd90                gapc_security_cmd_handler
 .text.gapc_encrypt_cmd_handler
                0x1000fdd0       0x9c ../src/ASF/thirdparty/wireless/ble_smart_sdk/lib/cm0/gcc\libblusdk.a(gapc_task.o)
                0x1000fdd0                gapc_encrypt_cmd_handler
 .text.gapc_encrypt_req_ind
                0x1000fe6c       0x20 ../src/ASF/thirdparty/wireless/ble_smart_sdk/lib/cm0/gcc\libblusdk.a(gapc_task.o)
                0x1000fe6c                gapc_encrypt_req_ind
 .text.gapc_encrypt_cfm_handler
                0x1000fe8c       0x80 ../src/ASF/thirdparty/wireless/ble_smart_sdk/lib/cm0/gcc\libblusdk.a(gapc_task.o)
                0x1000fe8c                gapc_encrypt_cfm_handler
 .text.gapc_encrypt_ind
                0x1000ff0c        0xe ../src/ASF/thirdparty/wireless/ble_smart_sdk/lib/cm0/gcc\libblusdk.a(gapc_task.o)
                0x1000ff0c                gapc_encrypt_ind
 *fill*         0x1000ff1a        0x2 
 .text.gapc_param_update_cfm_handler
                0x1000ff1c       0x4c ../src/ASF/thirdparty/wireless/ble_smart_sdk/lib/cm0/gcc\libblusdk.a(gapc_task.o)
                0x1000ff1c                gapc_param_update_cfm_handler
 .text.gapc_param_updated_ind
                0x1000ff68       0x2a ../src/ASF/thirdparty/wireless/ble_smart_sdk/lib/cm0/gcc\libblusdk.a(gapc_task.o)
                0x1000ff68                gapc_param_updated_ind
 .text.gapc_param_updated_req_ind
                0x1000ff92       0x30 ../src/ASF/thirdparty/wireless/ble_smart_sdk/lib/cm0/gcc\libblusdk.a(gapc_task.o)
                0x1000ff92                gapc_param_updated_req_ind
 *fill*         0x1000ffc2        0x2 
 .text.gapc_dev_info_req_ind_handler
                0x1000ffc4       0x28 ../src/ASF/thirdparty/wireless/ble_smart_sdk/lib/cm0/gcc\libblusdk.a(gapc_task.o)
                0x1000ffc4                gapc_dev_info_req_ind_handler
 .text.gapc_sec_req_ind
                0x1000ffec       0x16 ../src/ASF/thirdparty/wireless/ble_smart_sdk/lib/cm0/gcc\libblusdk.a(gapc_task.o)
                0x1000ffec                gapc_sec_req_ind
 .text.gapc_sign_counter_ind_handler
                0x10010002       0x34 ../src/ASF/thirdparty/wireless/ble_smart_sdk/lib/cm0/gcc\libblusdk.a(gapc_task.o)
                0x10010002                gapc_sign_counter_ind_handler
 *fill*         0x10010036        0x2 
 .text.gapc_peer_att_info_ind_handler
                0x10010038       0x7c ../src/ASF/thirdparty/wireless/ble_smart_sdk/lib/cm0/gcc\libblusdk.a(gapc_task.o)
                0x10010038                gapc_peer_att_info_ind_handler
 .text.gapc_con_channel_map_ind_handler
                0x100100b4       0x18 ../src/ASF/thirdparty/wireless/ble_smart_sdk/lib/cm0/gcc\libblusdk.a(gapc_task.o)
                0x100100b4                gapc_con_channel_map_ind_handler
 .text.gapc_lecb_connected
                0x100100cc       0x2e ../src/ASF/thirdparty/wireless/ble_smart_sdk/lib/cm0/gcc\libblusdk.a(gapc_task.o)
                0x100100cc                gapc_lecb_connected
 .text.gapc_lecb_disconnected
                0x100100fa       0x16 ../src/ASF/thirdparty/wireless/ble_smart_sdk/lib/cm0/gcc\libblusdk.a(gapc_task.o)
                0x100100fa                gapc_lecb_disconnected
 .text.gapc_lecb_connect_req_ind
                0x10010110       0x2a ../src/ASF/thirdparty/wireless/ble_smart_sdk/lib/cm0/gcc\libblusdk.a(gapc_task.o)
                0x10010110                gapc_lecb_connect_req_ind
 .text.gapc_lecb_add_credit_resp_handler
                0x1001013a       0x20 ../src/ASF/thirdparty/wireless/ble_smart_sdk/lib/cm0/gcc\libblusdk.a(gapc_task.o)
                0x1001013a                gapc_lecb_add_credit_resp_handler
 *fill*         0x1001015a        0x2 
 .text.gapm_reset_req_handler
                0x1001015c       0x70 ../src/ASF/thirdparty/wireless/ble_smart_sdk/lib/cm0/gcc\libblusdk.a(gapm_task.o)
                0x1001015c                gapm_reset_req_handler
 .text.gapm_set_dev_config_cmd_handler
                0x100101cc      0x108 ../src/ASF/thirdparty/wireless/ble_smart_sdk/lib/cm0/gcc\libblusdk.a(gapm_task.o)
                0x100101cc                gapm_set_dev_config_cmd_handler
 .text.gapm_get_dev_config_cmd_handler
                0x100102d4       0xe0 ../src/ASF/thirdparty/wireless/ble_smart_sdk/lib/cm0/gcc\libblusdk.a(gapm_task.o)
                0x100102d4                gapm_get_dev_config_cmd_handler
 .text.gapm_cancel_cmd_handler
                0x100103b4       0x70 ../src/ASF/thirdparty/wireless/ble_smart_sdk/lib/cm0/gcc\libblusdk.a(gapm_task.o)
                0x100103b4                gapm_cancel_cmd_handler
 .text.gapm_dev_bdaddr_ind_handler
                0x10010424       0x1c ../src/ASF/thirdparty/wireless/ble_smart_sdk/lib/cm0/gcc\libblusdk.a(gapm_task.o)
                0x10010424                gapm_dev_bdaddr_ind_handler
 .text.gapm_cmp_evt
                0x10010440      0x148 ../src/ASF/thirdparty/wireless/ble_smart_sdk/lib/cm0/gcc\libblusdk.a(gapm_task.o)
                0x10010440                gapm_cmp_evt
 .text.gapm_start_adv_cmd_handler
                0x10010588      0x120 ../src/ASF/thirdparty/wireless/ble_smart_sdk/lib/cm0/gcc\libblusdk.a(gapm_task.o)
                0x10010588                gapm_start_adv_cmd_handler
 .text.get_gap_local_addr_type
                0x100106a8       0x18 ../src/ASF/thirdparty/wireless/ble_smart_sdk/lib/cm0/gcc\libblusdk.a(gapm_task.o)
                0x100106a8                get_gap_local_addr_type
 .text.gapm_adv_report_evt_handler
                0x100106c0       0x88 ../src/ASF/thirdparty/wireless/ble_smart_sdk/lib/cm0/gcc\libblusdk.a(gapm_task.o)
                0x100106c0                gapm_adv_report_evt_handler
 .text.gapm_resolv_addr_cmd_handler
                0x10010748       0x68 ../src/ASF/thirdparty/wireless/ble_smart_sdk/lib/cm0/gcc\libblusdk.a(gapm_task.o)
                0x10010748                gapm_resolv_addr_cmd_handler
 .text.gapm_addr_solved_ind_handler
                0x100107b0       0x24 ../src/ASF/thirdparty/wireless/ble_smart_sdk/lib/cm0/gcc\libblusdk.a(gapm_task.o)
                0x100107b0                gapm_addr_solved_ind_handler
 .text.gapm_profile_added_ind_handler
                0x100107d4       0x20 ../src/ASF/thirdparty/wireless/ble_smart_sdk/lib/cm0/gcc\libblusdk.a(gapm_task.o)
                0x100107d4                gapm_profile_added_ind_handler
 .text.gattc_read_req_ind_parser
                0x100107f4        0xc ../src/ASF/thirdparty/wireless/ble_smart_sdk/lib/cm0/gcc\libblusdk.a(gattc_task.o)
                0x100107f4                gattc_read_req_ind_parser
 .text.gattc_write_req_ind_parser
                0x10010800       0x38 ../src/ASF/thirdparty/wireless/ble_smart_sdk/lib/cm0/gcc\libblusdk.a(gattc_task.o)
                0x10010800                gattc_write_req_ind_parser
 .text.gattc_att_info_req_parser
                0x10010838        0xc ../src/ASF/thirdparty/wireless/ble_smart_sdk/lib/cm0/gcc\libblusdk.a(gattc_task.o)
                0x10010838                gattc_att_info_req_parser
 .text.gattc_read_cfm
                0x10010844       0x6c ../src/ASF/thirdparty/wireless/ble_smart_sdk/lib/cm0/gcc\libblusdk.a(gattc_task.o)
                0x10010844                gattc_read_cfm
 .text.gattc_write_cfm
                0x100108b0       0x44 ../src/ASF/thirdparty/wireless/ble_smart_sdk/lib/cm0/gcc\libblusdk.a(gattc_task.o)
                0x100108b0                gattc_write_cfm
 .text.gattc_att_info_cfm
                0x100108f4       0x48 ../src/ASF/thirdparty/wireless/ble_smart_sdk/lib/cm0/gcc\libblusdk.a(gattc_task.o)
                0x100108f4                gattc_att_info_cfm
 .text.gattc_send_evt_cmd_handler
                0x1001093c       0x78 ../src/ASF/thirdparty/wireless/ble_smart_sdk/lib/cm0/gcc\libblusdk.a(gattc_task.o)
                0x1001093c                gattc_send_evt_cmd_handler
 .text.gattc_event_cfm_handler
                0x100109b4       0x40 ../src/ASF/thirdparty/wireless/ble_smart_sdk/lib/cm0/gcc\libblusdk.a(gattc_task.o)
                0x100109b4                gattc_event_cfm_handler
 .text.gattc_disc_svc_ind_parser
                0x100109f4       0x3c ../src/ASF/thirdparty/wireless/ble_smart_sdk/lib/cm0/gcc\libblusdk.a(gattc_task.o)
                0x100109f4                gattc_disc_svc_ind_parser
 .text.gattc_disc_svc_incl_ind_parser
                0x10010a30       0x48 ../src/ASF/thirdparty/wireless/ble_smart_sdk/lib/cm0/gcc\libblusdk.a(gattc_task.o)
                0x10010a30                gattc_disc_svc_incl_ind_parser
 .text.gattc_disc_char_ind_parser
                0x10010a78       0x44 ../src/ASF/thirdparty/wireless/ble_smart_sdk/lib/cm0/gcc\libblusdk.a(gattc_task.o)
                0x10010a78                gattc_disc_char_ind_parser
 .text.gattc_disc_char_desc_ind_parser
                0x10010abc       0x34 ../src/ASF/thirdparty/wireless/ble_smart_sdk/lib/cm0/gcc\libblusdk.a(gattc_task.o)
                0x10010abc                gattc_disc_char_desc_ind_parser
 .text.gattc_event_ind_and_notification_parser
                0x10010af0       0x54 ../src/ASF/thirdparty/wireless/ble_smart_sdk/lib/cm0/gcc\libblusdk.a(gattc_task.o)
                0x10010af0                gattc_event_ind_and_notification_parser
 .text.gattc_complete_evt_handler
                0x10010b44       0x78 ../src/ASF/thirdparty/wireless/ble_smart_sdk/lib/cm0/gcc\libblusdk.a(gattc_task.o)
                0x10010b44                gattc_complete_evt_handler
 .text.gattc_event_mtu_changed_ind_parser
                0x10010bbc       0x10 ../src/ASF/thirdparty/wireless/ble_smart_sdk/lib/cm0/gcc\libblusdk.a(gattc_task.o)
                0x10010bbc                gattc_event_mtu_changed_ind_parser
 .text.gattc_read_ind_parser
                0x10010bcc       0x40 ../src/ASF/thirdparty/wireless/ble_smart_sdk/lib/cm0/gcc\libblusdk.a(gattc_task.o)
                0x10010bcc                gattc_read_ind_parser
 .text.gattc_svc_changed_cfg_ind_parser
                0x10010c0c       0x10 ../src/ASF/thirdparty/wireless/ble_smart_sdk/lib/cm0/gcc\libblusdk.a(gattc_task.o)
                0x10010c0c                gattc_svc_changed_cfg_ind_parser
 .text.init_gattc_task_module
                0x10010c1c       0x14 ../src/ASF/thirdparty/wireless/ble_smart_sdk/lib/cm0/gcc\libblusdk.a(gattc_task.o)
                0x10010c1c                init_gattc_task_module
 .text.gattm_add_svc_req_handler
                0x10010c30      0x10c ../src/ASF/thirdparty/wireless/ble_smart_sdk/lib/cm0/gcc\libblusdk.a(gattm_task.o)
                0x10010c30                gattm_add_svc_req_handler
 .text.gattm_add_attribute_req_handler
                0x10010d3c       0x70 ../src/ASF/thirdparty/wireless/ble_smart_sdk/lib/cm0/gcc\libblusdk.a(gattm_task.o)
                0x10010d3c                gattm_add_attribute_req_handler
 .text.gattm_att_set_value_req_handler
                0x10010dac       0x8c ../src/ASF/thirdparty/wireless/ble_smart_sdk/lib/cm0/gcc\libblusdk.a(gattm_task.o)
                0x10010dac                gattm_att_set_value_req_handler
 .text.gattm_att_get_value_req_handler
                0x10010e38       0x9c ../src/ASF/thirdparty/wireless/ble_smart_sdk/lib/cm0/gcc\libblusdk.a(gattm_task.o)
                0x10010e38                gattm_att_get_value_req_handler
 .text.htpt_enable_rsp_handler
                0x10010ed4        0xa ../src/ASF/thirdparty/wireless/ble_smart_sdk/lib/cm0/gcc\libblusdk.a(htpt_task.o)
                0x10010ed4                htpt_enable_rsp_handler
 .text.htpt_temp_send_rsp_handler
                0x10010ede        0x6 ../src/ASF/thirdparty/wireless/ble_smart_sdk/lib/cm0/gcc\libblusdk.a(htpt_task.o)
                0x10010ede                htpt_temp_send_rsp_handler
 .text.htpt_meas_intv_upd_rsp_handler
                0x10010ee4        0x6 ../src/ASF/thirdparty/wireless/ble_smart_sdk/lib/cm0/gcc\libblusdk.a(htpt_task.o)
                0x10010ee4                htpt_meas_intv_upd_rsp_handler
 .text.htpt_meas_intv_chg_req_ind_handler
                0x10010eea        0xc ../src/ASF/thirdparty/wireless/ble_smart_sdk/lib/cm0/gcc\libblusdk.a(htpt_task.o)
                0x10010eea                htpt_meas_intv_chg_req_ind_handler
 .text.htpt_cfg_indntf_ind_handler
                0x10010ef6        0xa ../src/ASF/thirdparty/wireless/ble_smart_sdk/lib/cm0/gcc\libblusdk.a(htpt_task.o)
                0x10010ef6                htpt_cfg_indntf_ind_handler
 .text.pow      0x10010f00      0x378 c:/program files (x86)/atmel/studio/7.0/toolchain/arm/arm-gnu-toolchain/bin/../lib/gcc/arm-none-eabi/5.3.1/../../../../arm-none-eabi/lib/armv6-m\libm.a(lib_a-w_pow.o)
                0x10010f00                pow
 .text.sqrtf    0x10011278       0xa4 c:/program files (x86)/atmel/studio/7.0/toolchain/arm/arm-gnu-toolchain/bin/../lib/gcc/arm-none-eabi/5.3.1/../../../../arm-none-eabi/lib/armv6-m\libm.a(lib_a-wf_sqrt.o)
                0x10011278                sqrtf
 .text.__ieee754_pow
                0x1001131c      0xa6c c:/program files (x86)/atmel/studio/7.0/toolchain/arm/arm-gnu-toolchain/bin/../lib/gcc/arm-none-eabi/5.3.1/../../../../arm-none-eabi/lib/armv6-m\libm.a(lib_a-e_pow.o)
                0x1001131c                __ieee754_pow
 .text.__ieee754_sqrt
                0x10011d88      0x1ec c:/program files (x86)/atmel/studio/7.0/toolchain/arm/arm-gnu-toolchain/bin/../lib/gcc/arm-none-eabi/5.3.1/../../../../arm-none-eabi/lib/armv6-m\libm.a(lib_a-e_sqrt.o)
                0x10011d88                __ieee754_sqrt
 .text.__ieee754_sqrtf
                0x10011f74       0xb8 c:/program files (x86)/atmel/studio/7.0/toolchain/arm/arm-gnu-toolchain/bin/../lib/gcc/arm-none-eabi/5.3.1/../../../../arm-none-eabi/lib/armv6-m\libm.a(lib_a-ef_sqrt.o)
                0x10011f74                __ieee754_sqrtf
 .text.fabs     0x1001202c        0x8 c:/program files (x86)/atmel/studio/7.0/toolchain/arm/arm-gnu-toolchain/bin/../lib/gcc/arm-none-eabi/5.3.1/../../../../arm-none-eabi/lib/armv6-m\libm.a(lib_a-s_fabs.o)
                0x1001202c                fabs
 .text.finite   0x10012034       0x14 c:/program files (x86)/atmel/studio/7.0/toolchain/arm/arm-gnu-toolchain/bin/../lib/gcc/arm-none-eabi/5.3.1/../../../../arm-none-eabi/lib/armv6-m\libm.a(lib_a-s_finite.o)
                0x10012034                finite
 .text.matherr  0x10012048        0x4 c:/program files (x86)/atmel/studio/7.0/toolchain/arm/arm-gnu-toolchain/bin/../lib/gcc/arm-none-eabi/5.3.1/../../../../arm-none-eabi/lib/armv6-m\libm.a(lib_a-s_matherr.o)
                0x10012048                matherr
 .text.nan      0x1001204c        0xc c:/program files (x86)/atmel/studio/7.0/toolchain/arm/arm-gnu-toolchain/bin/../lib/gcc/arm-none-eabi/5.3.1/../../../../arm-none-eabi/lib/armv6-m\libm.a(lib_a-s_nan.o)
                0x1001204c                nan
 .text.rint     0x10012058      0x144 c:/program files (x86)/atmel/studio/7.0/toolchain/arm/arm-gnu-toolchain/bin/../lib/gcc/arm-none-eabi/5.3.1/../../../../arm-none-eabi/lib/armv6-m\libm.a(lib_a-s_rint.o)
                0x10012058                rint
 .text.scalbn   0x1001219c       0xd0 c:/program files (x86)/atmel/studio/7.0/toolchain/arm/arm-gnu-toolchain/bin/../lib/gcc/arm-none-eabi/5.3.1/../../../../arm-none-eabi/lib/armv6-m\libm.a(lib_a-s_scalbn.o)
                0x1001219c                scalbn
 .text.copysign
                0x1001226c       0x10 c:/program files (x86)/atmel/studio/7.0/toolchain/arm/arm-gnu-toolchain/bin/../lib/gcc/arm-none-eabi/5.3.1/../../../../arm-none-eabi/lib/armv6-m\libm.a(lib_a-s_copysign.o)
                0x1001226c                copysign
 .text          0x1001227c       0x14 c:/program files (x86)/atmel/studio/7.0/toolchain/arm/arm-gnu-toolchain/bin/../lib/gcc/arm-none-eabi/5.3.1/armv6-m\libgcc.a(_thumb1_case_sqi.o)
                0x1001227c                __gnu_thumb1_case_sqi
 .text          0x10012290       0x14 c:/program files (x86)/atmel/studio/7.0/toolchain/arm/arm-gnu-toolchain/bin/../lib/gcc/arm-none-eabi/5.3.1/armv6-m\libgcc.a(_thumb1_case_uqi.o)
                0x10012290                __gnu_thumb1_case_uqi
 .text          0x100122a4       0x14 c:/program files (x86)/atmel/studio/7.0/toolchain/arm/arm-gnu-toolchain/bin/../lib/gcc/arm-none-eabi/5.3.1/armv6-m\libgcc.a(_thumb1_case_uhi.o)
                0x100122a4                __gnu_thumb1_case_uhi
 .text          0x100122b8      0x114 c:/program files (x86)/atmel/studio/7.0/toolchain/arm/arm-gnu-toolchain/bin/../lib/gcc/arm-none-eabi/5.3.1/armv6-m\libgcc.a(_udivsi3.o)
                0x100122b8                __aeabi_uidiv
                0x100122b8                __udivsi3
                0x100123c4                __aeabi_uidivmod
 .text          0x100123cc      0x1d4 c:/program files (x86)/atmel/studio/7.0/toolchain/arm/arm-gnu-toolchain/bin/../lib/gcc/arm-none-eabi/5.3.1/armv6-m\libgcc.a(_divsi3.o)
                0x100123cc                __divsi3
                0x100123cc                __aeabi_idiv
                0x10012598                __aeabi_idivmod
 .text          0x100125a0        0x4 c:/program files (x86)/atmel/studio/7.0/toolchain/arm/arm-gnu-toolchain/bin/../lib/gcc/arm-none-eabi/5.3.1/armv6-m\libgcc.a(_dvmd_tls.o)
                0x100125a0                __aeabi_idiv0
                0x100125a0                __aeabi_ldiv0
 .text          0x100125a4       0x7c c:/program files (x86)/atmel/studio/7.0/toolchain/arm/arm-gnu-toolchain/bin/../lib/gcc/arm-none-eabi/5.3.1/armv6-m\libgcc.a(_arm_cmpdf2.o)
                0x100125a4                __aeabi_cdrcmple
                0x100125b4                __aeabi_cdcmple
                0x100125b4                __aeabi_cdcmpeq
                0x100125c4                __aeabi_dcmpeq
                0x100125d0                __aeabi_dcmplt
                0x100125e4                __aeabi_dcmple
                0x100125f8                __aeabi_dcmpgt
                0x1001260c                __aeabi_dcmpge
 .text          0x10012620       0x74 c:/program files (x86)/atmel/studio/7.0/toolchain/arm/arm-gnu-toolchain/bin/../lib/gcc/arm-none-eabi/5.3.1/armv6-m\libgcc.a(_arm_cmpsf2.o)
                0x10012620                __aeabi_cfrcmple
                0x10012628                __aeabi_cfcmpeq
                0x10012628                __aeabi_cfcmple
                0x10012638                __aeabi_fcmpeq
                0x10012644                __aeabi_fcmplt
                0x10012658                __aeabi_fcmple
                0x1001266c                __aeabi_fcmpgt
                0x10012680                __aeabi_fcmpge
 .text          0x10012694       0x58 c:/program files (x86)/atmel/studio/7.0/toolchain/arm/arm-gnu-toolchain/bin/../lib/gcc/arm-none-eabi/5.3.1/armv6-m\libgcc.a(_muldi3.o)
                0x10012694                __muldi3
                0x10012694                __aeabi_lmul
 .text          0x100126ec       0x30 c:/program files (x86)/atmel/studio/7.0/toolchain/arm/arm-gnu-toolchain/bin/../lib/gcc/arm-none-eabi/5.3.1/armv6-m\libgcc.a(_fixunssfsi.o)
                0x100126ec                __fixunssfsi
                0x100126ec                __aeabi_f2uiz
 .text          0x1001271c       0x3c c:/program files (x86)/atmel/studio/7.0/toolchain/arm/arm-gnu-toolchain/bin/../lib/gcc/arm-none-eabi/5.3.1/armv6-m\libgcc.a(_fixunsdfsi.o)
                0x1001271c                __aeabi_d2uiz
                0x1001271c                __fixunsdfsi
 .text          0x10012758      0x2ec c:/program files (x86)/atmel/studio/7.0/toolchain/arm/arm-gnu-toolchain/bin/../lib/gcc/arm-none-eabi/5.3.1/armv6-m\libgcc.a(addsf3.o)
                0x10012758                __aeabi_fadd
 .text          0x10012a44      0x234 c:/program files (x86)/atmel/studio/7.0/toolchain/arm/arm-gnu-toolchain/bin/../lib/gcc/arm-none-eabi/5.3.1/armv6-m\libgcc.a(divsf3.o)
                0x10012a44                __aeabi_fdiv
 .text          0x10012c78       0x50 c:/program files (x86)/atmel/studio/7.0/toolchain/arm/arm-gnu-toolchain/bin/../lib/gcc/arm-none-eabi/5.3.1/armv6-m\libgcc.a(eqsf2.o)
                0x10012c78                __eqsf2
                0x10012c78                __nesf2
 .text          0x10012cc8       0x88 c:/program files (x86)/atmel/studio/7.0/toolchain/arm/arm-gnu-toolchain/bin/../lib/gcc/arm-none-eabi/5.3.1/armv6-m\libgcc.a(gesf2.o)
                0x10012cc8                __gesf2
                0x10012cc8                __gtsf2
 .text          0x10012d50       0x88 c:/program files (x86)/atmel/studio/7.0/toolchain/arm/arm-gnu-toolchain/bin/../lib/gcc/arm-none-eabi/5.3.1/armv6-m\libgcc.a(lesf2.o)
                0x10012d50                __ltsf2
                0x10012d50                __lesf2
 .text          0x10012dd8      0x228 c:/program files (x86)/atmel/studio/7.0/toolchain/arm/arm-gnu-toolchain/bin/../lib/gcc/arm-none-eabi/5.3.1/armv6-m\libgcc.a(mulsf3.o)
                0x10012dd8                __aeabi_fmul
 .text          0x10013000      0x30c c:/program files (x86)/atmel/studio/7.0/toolchain/arm/arm-gnu-toolchain/bin/../lib/gcc/arm-none-eabi/5.3.1/armv6-m\libgcc.a(subsf3.o)
                0x10013000                __aeabi_fsub
 .text          0x1001330c       0x30 c:/program files (x86)/atmel/studio/7.0/toolchain/arm/arm-gnu-toolchain/bin/../lib/gcc/arm-none-eabi/5.3.1/armv6-m\libgcc.a(unordsf2.o)
                0x1001330c                __aeabi_fcmpun
 .text          0x1001333c       0x44 c:/program files (x86)/atmel/studio/7.0/toolchain/arm/arm-gnu-toolchain/bin/../lib/gcc/arm-none-eabi/5.3.1/armv6-m\libgcc.a(fixsfsi.o)
                0x1001333c                __aeabi_f2iz
 .text          0x10013380       0x90 c:/program files (x86)/atmel/studio/7.0/toolchain/arm/arm-gnu-toolchain/bin/../lib/gcc/arm-none-eabi/5.3.1/armv6-m\libgcc.a(floatsisf.o)
                0x10013380                __aeabi_i2f
 .text          0x10013410       0x7c c:/program files (x86)/atmel/studio/7.0/toolchain/arm/arm-gnu-toolchain/bin/../lib/gcc/arm-none-eabi/5.3.1/armv6-m\libgcc.a(floatunsisf.o)
                0x10013410                __aeabi_ui2f
 .text          0x1001348c      0x658 c:/program files (x86)/atmel/studio/7.0/toolchain/arm/arm-gnu-toolchain/bin/../lib/gcc/arm-none-eabi/5.3.1/armv6-m\libgcc.a(adddf3.o)
                0x1001348c                __aeabi_dadd
 .text          0x10013ae4      0x62c c:/program files (x86)/atmel/studio/7.0/toolchain/arm/arm-gnu-toolchain/bin/../lib/gcc/arm-none-eabi/5.3.1/armv6-m\libgcc.a(divdf3.o)
                0x10013ae4                __aeabi_ddiv
 .text          0x10014110       0x80 c:/program files (x86)/atmel/studio/7.0/toolchain/arm/arm-gnu-toolchain/bin/../lib/gcc/arm-none-eabi/5.3.1/armv6-m\libgcc.a(eqdf2.o)
                0x10014110                __nedf2
                0x10014110                __eqdf2
 .text          0x10014190       0xc8 c:/program files (x86)/atmel/studio/7.0/toolchain/arm/arm-gnu-toolchain/bin/../lib/gcc/arm-none-eabi/5.3.1/armv6-m\libgcc.a(gedf2.o)
                0x10014190                __gedf2
                0x10014190                __gtdf2
 .text          0x10014258       0xd4 c:/program files (x86)/atmel/studio/7.0/toolchain/arm/arm-gnu-toolchain/bin/../lib/gcc/arm-none-eabi/5.3.1/armv6-m\libgcc.a(ledf2.o)
                0x10014258                __ledf2
                0x10014258                __ltdf2
 .text          0x1001432c      0x4f4 c:/program files (x86)/atmel/studio/7.0/toolchain/arm/arm-gnu-toolchain/bin/../lib/gcc/arm-none-eabi/5.3.1/armv6-m\libgcc.a(muldf3.o)
                0x1001432c                __aeabi_dmul
 .text          0x10014820      0x6a8 c:/program files (x86)/atmel/studio/7.0/toolchain/arm/arm-gnu-toolchain/bin/../lib/gcc/arm-none-eabi/5.3.1/armv6-m\libgcc.a(subdf3.o)
                0x10014820                __aeabi_dsub
 .text          0x10014ec8       0x40 c:/program files (x86)/atmel/studio/7.0/toolchain/arm/arm-gnu-toolchain/bin/../lib/gcc/arm-none-eabi/5.3.1/armv6-m\libgcc.a(unorddf2.o)
                0x10014ec8                __aeabi_dcmpun
 .text          0x10014f08       0x6c c:/program files (x86)/atmel/studio/7.0/toolchain/arm/arm-gnu-toolchain/bin/../lib/gcc/arm-none-eabi/5.3.1/armv6-m\libgcc.a(fixdfsi.o)
                0x10014f08                __aeabi_d2iz
 .text          0x10014f74       0x84 c:/program files (x86)/atmel/studio/7.0/toolchain/arm/arm-gnu-toolchain/bin/../lib/gcc/arm-none-eabi/5.3.1/armv6-m\libgcc.a(floatsidf.o)
                0x10014f74                __aeabi_i2d
 .text          0x10014ff8       0x70 c:/program files (x86)/atmel/studio/7.0/toolchain/arm/arm-gnu-toolchain/bin/../lib/gcc/arm-none-eabi/5.3.1/armv6-m\libgcc.a(floatunsidf.o)
                0x10014ff8                __aeabi_ui2d
 .text          0x10015068       0xa8 c:/program files (x86)/atmel/studio/7.0/toolchain/arm/arm-gnu-toolchain/bin/../lib/gcc/arm-none-eabi/5.3.1/armv6-m\libgcc.a(extendsfdf2.o)
                0x10015068                __aeabi_f2d
 .text          0x10015110      0x118 c:/program files (x86)/atmel/studio/7.0/toolchain/arm/arm-gnu-toolchain/bin/../lib/gcc/arm-none-eabi/5.3.1/armv6-m\libgcc.a(truncdfsf2.o)
                0x10015110                __aeabi_d2f
 .text          0x10015228       0x3c c:/program files (x86)/atmel/studio/7.0/toolchain/arm/arm-gnu-toolchain/bin/../lib/gcc/arm-none-eabi/5.3.1/armv6-m\libgcc.a(_clzsi2.o)
                0x10015228                __clzsi2
 .text.__errno  0x10015264        0xc c:/program files (x86)/atmel/studio/7.0/toolchain/arm/arm-gnu-toolchain/bin/../lib/gcc/arm-none-eabi/5.3.1/../../../../arm-none-eabi/lib/armv6-m\libc_nano.a(lib_a-errno.o)
                0x10015264                __errno
 .text.__libc_init_array
                0x10015270       0x4c c:/program files (x86)/atmel/studio/7.0/toolchain/arm/arm-gnu-toolchain/bin/../lib/gcc/arm-none-eabi/5.3.1/../../../../arm-none-eabi/lib/armv6-m\libc_nano.a(lib_a-init.o)
                0x10015270                __libc_init_array
 .text.malloc   0x100152bc       0x14 c:/program files (x86)/atmel/studio/7.0/toolchain/arm/arm-gnu-toolchain/bin/../lib/gcc/arm-none-eabi/5.3.1/../../../../arm-none-eabi/lib/armv6-m\libc_nano.a(lib_a-malloc.o)
                0x100152bc                malloc
 .text.memcmp   0x100152d0       0x1e c:/program files (x86)/atmel/studio/7.0/toolchain/arm/arm-gnu-toolchain/bin/../lib/gcc/arm-none-eabi/5.3.1/../../../../arm-none-eabi/lib/armv6-m\libc_nano.a(lib_a-memcmp.o)
                0x100152d0                memcmp
 .text.memcpy   0x100152ee       0x12 c:/program files (x86)/atmel/studio/7.0/toolchain/arm/arm-gnu-toolchain/bin/../lib/gcc/arm-none-eabi/5.3.1/../../../../arm-none-eabi/lib/armv6-m\libc_nano.a(lib_a-memcpy-stub.o)
                0x100152ee                memcpy
 .text.memset   0x10015300       0x10 c:/program files (x86)/atmel/studio/7.0/toolchain/arm/arm-gnu-toolchain/bin/../lib/gcc/arm-none-eabi/5.3.1/../../../../arm-none-eabi/lib/armv6-m\libc_nano.a(lib_a-memset.o)
                0x10015300                memset
 .text._free_r  0x10015310       0x8c c:/program files (x86)/atmel/studio/7.0/toolchain/arm/arm-gnu-toolchain/bin/../lib/gcc/arm-none-eabi/5.3.1/../../../../arm-none-eabi/lib/armv6-m\libc_nano.a(lib_a-nano-freer.o)
                0x10015310                _free_r
 .text._malloc_r
                0x1001539c       0xac c:/program files (x86)/atmel/studio/7.0/toolchain/arm/arm-gnu-toolchain/bin/../lib/gcc/arm-none-eabi/5.3.1/../../../../arm-none-eabi/lib/armv6-m\libc_nano.a(lib_a-nano-mallocr.o)
                0x1001539c                _malloc_r
 .text.rand     0x10015448       0x78 c:/program files (x86)/atmel/studio/7.0/toolchain/arm/arm-gnu-toolchain/bin/../lib/gcc/arm-none-eabi/5.3.1/../../../../arm-none-eabi/lib/armv6-m\libc_nano.a(lib_a-rand.o)
                0x10015448                rand
 .text._sbrk_r  0x100154c0       0x24 c:/program files (x86)/atmel/studio/7.0/toolchain/arm/arm-gnu-toolchain/bin/../lib/gcc/arm-none-eabi/5.3.1/../../../../arm-none-eabi/lib/armv6-m\libc_nano.a(lib_a-sbrkr.o)
                0x100154c0                _sbrk_r
 .text.setbuf   0x100154e4       0x12 c:/program files (x86)/atmel/studio/7.0/toolchain/arm/arm-gnu-toolchain/bin/../lib/gcc/arm-none-eabi/5.3.1/../../../../arm-none-eabi/lib/armv6-m\libc_nano.a(lib_a-setbuf.o)
                0x100154e4                setbuf
 *fill*         0x100154f6        0x2 
 .text.setvbuf  0x100154f8      0x160 c:/program files (x86)/atmel/studio/7.0/toolchain/arm/arm-gnu-toolchain/bin/../lib/gcc/arm-none-eabi/5.3.1/../../../../arm-none-eabi/lib/armv6-m\libc_nano.a(lib_a-setvbuf.o)
                0x100154f8                setvbuf
 .text.__sflush_r
                0x10015658      0x10c c:/program files (x86)/atmel/studio/7.0/toolchain/arm/arm-gnu-toolchain/bin/../lib/gcc/arm-none-eabi/5.3.1/../../../../arm-none-eabi/lib/armv6-m\libc_nano.a(lib_a-fflush.o)
                0x10015658                __sflush_r
 .text._fflush_r
                0x10015764       0x58 c:/program files (x86)/atmel/studio/7.0/toolchain/arm/arm-gnu-toolchain/bin/../lib/gcc/arm-none-eabi/5.3.1/../../../../arm-none-eabi/lib/armv6-m\libc_nano.a(lib_a-fflush.o)
                0x10015764                _fflush_r
 .text._cleanup_r
                0x100157bc       0x10 c:/program files (x86)/atmel/studio/7.0/toolchain/arm/arm-gnu-toolchain/bin/../lib/gcc/arm-none-eabi/5.3.1/../../../../arm-none-eabi/lib/armv6-m\libc_nano.a(lib_a-findfp.o)
                0x100157bc                _cleanup_r
 .text.std.isra.0
                0x100157cc       0x48 c:/program files (x86)/atmel/studio/7.0/toolchain/arm/arm-gnu-toolchain/bin/../lib/gcc/arm-none-eabi/5.3.1/../../../../arm-none-eabi/lib/armv6-m\libc_nano.a(lib_a-findfp.o)
 .text.__sfmoreglue
                0x10015814       0x2c c:/program files (x86)/atmel/studio/7.0/toolchain/arm/arm-gnu-toolchain/bin/../lib/gcc/arm-none-eabi/5.3.1/../../../../arm-none-eabi/lib/armv6-m\libc_nano.a(lib_a-findfp.o)
                0x10015814                __sfmoreglue
 .text.__sinit  0x10015840       0x68 c:/program files (x86)/atmel/studio/7.0/toolchain/arm/arm-gnu-toolchain/bin/../lib/gcc/arm-none-eabi/5.3.1/../../../../arm-none-eabi/lib/armv6-m\libc_nano.a(lib_a-findfp.o)
                0x10015840                __sinit
 .text.__sfp    0x100158a8       0x7c c:/program files (x86)/atmel/studio/7.0/toolchain/arm/arm-gnu-toolchain/bin/../lib/gcc/arm-none-eabi/5.3.1/../../../../arm-none-eabi/lib/armv6-m\libc_nano.a(lib_a-findfp.o)
                0x100158a8                __sfp
 .text._fwalk_reent
                0x10015924       0x42 c:/program files (x86)/atmel/studio/7.0/toolchain/arm/arm-gnu-toolchain/bin/../lib/gcc/arm-none-eabi/5.3.1/../../../../arm-none-eabi/lib/armv6-m\libc_nano.a(lib_a-fwalk.o)
                0x10015924                _fwalk_reent
 *fill*         0x10015966        0x2 
 .text.__swhatbuf_r
                0x10015968       0x4c c:/program files (x86)/atmel/studio/7.0/toolchain/arm/arm-gnu-toolchain/bin/../lib/gcc/arm-none-eabi/5.3.1/../../../../arm-none-eabi/lib/armv6-m\libc_nano.a(lib_a-makebuf.o)
                0x10015968                __swhatbuf_r
 .text.__sread  0x100159b4       0x28 c:/program files (x86)/atmel/studio/7.0/toolchain/arm/arm-gnu-toolchain/bin/../lib/gcc/arm-none-eabi/5.3.1/../../../../arm-none-eabi/lib/armv6-m\libc_nano.a(lib_a-stdio.o)
                0x100159b4                __sread
 .text.__swrite
                0x100159dc       0x38 c:/program files (x86)/atmel/studio/7.0/toolchain/arm/arm-gnu-toolchain/bin/../lib/gcc/arm-none-eabi/5.3.1/../../../../arm-none-eabi/lib/armv6-m\libc_nano.a(lib_a-stdio.o)
                0x100159dc                __swrite
 .text.__sseek  0x10015a14       0x2c c:/program files (x86)/atmel/studio/7.0/toolchain/arm/arm-gnu-toolchain/bin/../lib/gcc/arm-none-eabi/5.3.1/../../../../arm-none-eabi/lib/armv6-m\libc_nano.a(lib_a-stdio.o)
                0x10015a14                __sseek
 .text.__sclose
                0x10015a40        0xc c:/program files (x86)/atmel/studio/7.0/toolchain/arm/arm-gnu-toolchain/bin/../lib/gcc/arm-none-eabi/5.3.1/../../../../arm-none-eabi/lib/armv6-m\libc_nano.a(lib_a-stdio.o)
                0x10015a40                __sclose
 .text._write_r
                0x10015a4c       0x28 c:/program files (x86)/atmel/studio/7.0/toolchain/arm/arm-gnu-toolchain/bin/../lib/gcc/arm-none-eabi/5.3.1/../../../../arm-none-eabi/lib/armv6-m\libc_nano.a(lib_a-writer.o)
                0x10015a4c                _write_r
 .text._close_r
                0x10015a74       0x24 c:/program files (x86)/atmel/studio/7.0/toolchain/arm/arm-gnu-toolchain/bin/../lib/gcc/arm-none-eabi/5.3.1/../../../../arm-none-eabi/lib/armv6-m\libc_nano.a(lib_a-closer.o)
                0x10015a74                _close_r
 .text._fstat_r
                0x10015a98       0x24 c:/program files (x86)/atmel/studio/7.0/toolchain/arm/arm-gnu-toolchain/bin/../lib/gcc/arm-none-eabi/5.3.1/../../../../arm-none-eabi/lib/armv6-m\libc_nano.a(lib_a-fstatr.o)
                0x10015a98                _fstat_r
 .text._lseek_r
                0x10015abc       0x28 c:/program files (x86)/atmel/studio/7.0/toolchain/arm/arm-gnu-toolchain/bin/../lib/gcc/arm-none-eabi/5.3.1/../../../../arm-none-eabi/lib/armv6-m\libc_nano.a(lib_a-lseekr.o)
                0x10015abc                _lseek_r
 .text._read_r  0x10015ae4       0x28 c:/program files (x86)/atmel/studio/7.0/toolchain/arm/arm-gnu-toolchain/bin/../lib/gcc/arm-none-eabi/5.3.1/../../../../arm-none-eabi/lib/armv6-m\libc_nano.a(lib_a-readr.o)
                0x10015ae4                _read_r
 *(.glue_7t)
 .glue_7t       0x10015b0c        0x0 linker stubs
 *(.glue_7)
 .glue_7        0x10015b0c        0x0 linker stubs
 *(.rodata .rodata* .gnu.linkonce.r.*)
 .rodata.CSWTCH.46
                0x10015b0c        0x3 src/sms_v_0_2/src/sms_ble.o
 .rodata.CSWTCH.47
                0x10015b0f        0x3 src/sms_v_0_2/src/sms_ble.o
 .rodata.CSWTCH.48
                0x10015b12        0x3 src/sms_v_0_2/src/sms_ble.o
 .rodata.str1.1
                0x10015b15       0x29 src/sms_v_0_2/src/sms_ble.o
 *fill*         0x10015b3e        0x2 
 .rodata.sms_ble_gap_cb
                0x10015b40       0x4c src/sms_v_0_2/src/sms_ble.o
                0x10015b40                sms_ble_gap_cb
 .rodata.sms_ble_gatt_server_cb
                0x10015b8c       0x28 src/sms_v_0_2/src/sms_ble.o
                0x10015b8c                sms_ble_gatt_server_cb
 .rodata.str1.1
                0x10015bb4       0x24 src/sms_v_0_2/src/sms_button.o
 .rodata.CSWTCH.18
                0x10015bd8       0x10 src/sms_v_0_2/src/sms_mpu.o
 .rodata.CSWTCH.42
                0x10015be8        0xc src/sms_v_0_2/src/sms_timer.o
 .rodata.str1.1
                0x10015bf4       0x28 src/sms_v_0_2/src/sms_timer.o
 .rodata        0x10015c1c        0xd src/ASF/thirdparty/wireless/ble_smart_sdk/ble_services/ble_mgr/ble_manager.o
 *fill*         0x10015c29        0x3 
 .rodata.ble_mgr_gatt_server_handle
                0x10015c2c       0x28 src/ASF/thirdparty/wireless/ble_smart_sdk/ble_services/ble_mgr/ble_manager.o
 .rodata.str1.1
                0x10015c54       0x11 src/ASF/thirdparty/wireless/ble_smart_sdk/ble_services/ble_mgr/ble_manager.o
 *fill*         0x10015c65        0x3 
 .rodata.ble_mgr_gap_handle
                0x10015c68       0x4c src/ASF/thirdparty/wireless/ble_smart_sdk/ble_services/ble_mgr/ble_manager.o
 .rodata.CSWTCH.94
                0x10015cb4        0x7 src/ASF/thirdparty/wireless/ble_smart_sdk/ble_services/ble_mgr/ble_manager.o
 *fill*         0x10015cbb        0x1 
 .rodata.CSWTCH.95
                0x10015cbc       0x1c src/ASF/thirdparty/wireless/ble_smart_sdk/ble_services/ble_mgr/ble_manager.o
 .rodata        0x10015cd8        0xb ../src/ASF/thirdparty/wireless/ble_smart_sdk/lib/cm0/gcc\libblusdk.a(gap.o)
 .rodata.CSWTCH.45
                0x10015ce3        0x3 ../src/ASF/thirdparty/wireless/ble_smart_sdk/lib/cm0/gcc\libblusdk.a(gap.o)
 .rodata.CSWTCH.47
                0x10015ce6        0xf ../src/ASF/thirdparty/wireless/ble_smart_sdk/lib/cm0/gcc\libblusdk.a(gap.o)
 .rodata.client_conf_uuid
                0x10015cf5        0x2 ../src/ASF/thirdparty/wireless/ble_smart_sdk/lib/cm0/gcc\libblusdk.a(gatt_server.o)
                0x10015cf5                client_conf_uuid
 .rodata.presentation_format_uuid
                0x10015cf7        0x2 ../src/ASF/thirdparty/wireless/ble_smart_sdk/lib/cm0/gcc\libblusdk.a(gatt_server.o)
                0x10015cf7                presentation_format_uuid
 .rodata.user_desc_uuid
                0x10015cf9        0x2 ../src/ASF/thirdparty/wireless/ble_smart_sdk/lib/cm0/gcc\libblusdk.a(gatt_server.o)
                0x10015cf9                user_desc_uuid
 .rodata.server_conf_uuid
                0x10015cfb        0x2 ../src/ASF/thirdparty/wireless/ble_smart_sdk/lib/cm0/gcc\libblusdk.a(gatt_server.o)
                0x10015cfb                server_conf_uuid
 .rodata.extended_props_uuid
                0x10015cfd        0x2 ../src/ASF/thirdparty/wireless/ble_smart_sdk/lib/cm0/gcc\libblusdk.a(gatt_server.o)
                0x10015cfd                extended_props_uuid
 .rodata.include_uuid
                0x10015cff        0x2 ../src/ASF/thirdparty/wireless/ble_smart_sdk/lib/cm0/gcc\libblusdk.a(gatt_server.o)
                0x10015cff                include_uuid
 .rodata.char_uuid
                0x10015d01        0x2 ../src/ASF/thirdparty/wireless/ble_smart_sdk/lib/cm0/gcc\libblusdk.a(gatt_server.o)
                0x10015d01                char_uuid
 *fill*         0x10015d03        0x1 
 .rodata.str1.4
                0x10015d04        0x4 c:/program files (x86)/atmel/studio/7.0/toolchain/arm/arm-gnu-toolchain/bin/../lib/gcc/arm-none-eabi/5.3.1/../../../../arm-none-eabi/lib/armv6-m\libm.a(lib_a-w_pow.o)
 .rodata.str1.4
                0x10015d08        0x6 c:/program files (x86)/atmel/studio/7.0/toolchain/arm/arm-gnu-toolchain/bin/../lib/gcc/arm-none-eabi/5.3.1/../../../../arm-none-eabi/lib/armv6-m\libm.a(lib_a-wf_sqrt.o)
 *fill*         0x10015d0e        0x2 
 .rodata.str1.4
                0x10015d10        0x4 c:/program files (x86)/atmel/studio/7.0/toolchain/arm/arm-gnu-toolchain/bin/../lib/gcc/arm-none-eabi/5.3.1/../../../../arm-none-eabi/lib/armv6-m\libm.a(lib_a-e_pow.o)
                                  0x1 (size before relaxing)
 *fill*         0x10015d14        0x4 
 .rodata.TWO52  0x10015d18       0x10 c:/program files (x86)/atmel/studio/7.0/toolchain/arm/arm-gnu-toolchain/bin/../lib/gcc/arm-none-eabi/5.3.1/../../../../arm-none-eabi/lib/armv6-m\libm.a(lib_a-s_rint.o)
 .rodata        0x10015d28       0x80 c:/program files (x86)/atmel/studio/7.0/toolchain/arm/arm-gnu-toolchain/bin/../lib/gcc/arm-none-eabi/5.3.1/armv6-m\libgcc.a(divsf3.o)
 .rodata        0x10015da8       0x40 c:/program files (x86)/atmel/studio/7.0/toolchain/arm/arm-gnu-toolchain/bin/../lib/gcc/arm-none-eabi/5.3.1/armv6-m\libgcc.a(mulsf3.o)
 .rodata        0x10015de8       0x40 c:/program files (x86)/atmel/studio/7.0/toolchain/arm/arm-gnu-toolchain/bin/../lib/gcc/arm-none-eabi/5.3.1/armv6-m\libgcc.a(divdf3.o)
 .rodata        0x10015e28       0x40 c:/program files (x86)/atmel/studio/7.0/toolchain/arm/arm-gnu-toolchain/bin/../lib/gcc/arm-none-eabi/5.3.1/armv6-m\libgcc.a(muldf3.o)
 .rodata.str1.1
                0x10015e68        0x2 c:/program files (x86)/atmel/studio/7.0/toolchain/arm/arm-gnu-toolchain/bin/../lib/gcc/arm-none-eabi/5.3.1/../../../../arm-none-eabi/lib/armv6-m\libc_nano.a(lib_a-impure.o)
 *fill*         0x10015e6a        0x2 
 .rodata._global_impure_ptr
                0x10015e6c        0x4 c:/program files (x86)/atmel/studio/7.0/toolchain/arm/arm-gnu-toolchain/bin/../lib/gcc/arm-none-eabi/5.3.1/../../../../arm-none-eabi/lib/armv6-m\libc_nano.a(lib_a-impure.o)
                0x10015e6c                _global_impure_ptr
 .rodata.__sf_fake_stdin
                0x10015e70       0x20 c:/program files (x86)/atmel/studio/7.0/toolchain/arm/arm-gnu-toolchain/bin/../lib/gcc/arm-none-eabi/5.3.1/../../../../arm-none-eabi/lib/armv6-m\libc_nano.a(lib_a-findfp.o)
                0x10015e70                __sf_fake_stdin
 .rodata.__sf_fake_stdout
                0x10015e90       0x20 c:/program files (x86)/atmel/studio/7.0/toolchain/arm/arm-gnu-toolchain/bin/../lib/gcc/arm-none-eabi/5.3.1/../../../../arm-none-eabi/lib/armv6-m\libc_nano.a(lib_a-findfp.o)
                0x10015e90                __sf_fake_stdout
 .rodata.__sf_fake_stderr
                0x10015eb0       0x20 c:/program files (x86)/atmel/studio/7.0/toolchain/arm/arm-gnu-toolchain/bin/../lib/gcc/arm-none-eabi/5.3.1/../../../../arm-none-eabi/lib/armv6-m\libc_nano.a(lib_a-findfp.o)
                0x10015eb0                __sf_fake_stderr
 *(.ARM.extab* .gnu.linkonce.armextab.*)
                0x10015ed0                . = ALIGN (0x4)
 *(.init)
 .init          0x10015ed0        0x4 c:/program files (x86)/atmel/studio/7.0/toolchain/arm/arm-gnu-toolchain/bin/../lib/gcc/arm-none-eabi/5.3.1/armv6-m/crti.o
                0x10015ed0                _init
 .init          0x10015ed4        0x8 c:/program files (x86)/atmel/studio/7.0/toolchain/arm/arm-gnu-toolchain/bin/../lib/gcc/arm-none-eabi/5.3.1/armv6-m/crtn.o
                0x10015edc                . = ALIGN (0x4)
                0x10015edc                __preinit_array_start = .
 *(.preinit_array)
                0x10015edc                __preinit_array_end = .
                0x10015edc                . = ALIGN (0x4)
                0x10015edc                __init_array_start = .
 *(SORT(.init_array.*))
 *(.init_array)
 .init_array    0x10015edc        0x4 c:/program files (x86)/atmel/studio/7.0/toolchain/arm/arm-gnu-toolchain/bin/../lib/gcc/arm-none-eabi/5.3.1/armv6-m/crtbegin.o
                0x10015ee0                __init_array_end = .
                0x10015ee0                . = ALIGN (0x4)
 *crtbegin.o(.ctors)
 *(EXCLUDE_FILE(*crtend.o) .ctors)
 *(SORT(.ctors.*))
 *crtend.o(.ctors)
                0x10015ee0                . = ALIGN (0x4)
 *(.fini)
 .fini          0x10015ee0        0x4 c:/program files (x86)/atmel/studio/7.0/toolchain/arm/arm-gnu-toolchain/bin/../lib/gcc/arm-none-eabi/5.3.1/armv6-m/crti.o
                0x10015ee0                _fini
 .fini          0x10015ee4        0x8 c:/program files (x86)/atmel/studio/7.0/toolchain/arm/arm-gnu-toolchain/bin/../lib/gcc/arm-none-eabi/5.3.1/armv6-m/crtn.o
                0x10015eec                . = ALIGN (0x4)
                0x10015eec                __fini_array_start = .
 *(.fini_array)
 .fini_array    0x10015eec        0x4 c:/program files (x86)/atmel/studio/7.0/toolchain/arm/arm-gnu-toolchain/bin/../lib/gcc/arm-none-eabi/5.3.1/armv6-m/crtbegin.o
 *(SORT(.fini_array.*))
                0x10015ef0                __fini_array_end = .
 *crtbegin.o(.dtors)
 *(EXCLUDE_FILE(*crtend.o) .dtors)
 *(SORT(.dtors.*))
 *crtend.o(.dtors)
                0x10015ef0                . = ALIGN (0x4)
                0x10015ef0                _efixed = .

.vfp11_veneer   0x10015ef0        0x0
 .vfp11_veneer  0x10015ef0        0x0 linker stubs

.v4_bx          0x10015ef0        0x0
 .v4_bx         0x10015ef0        0x0 linker stubs

.iplt           0x10015ef0        0x0
 .iplt          0x10015ef0        0x0 c:/program files (x86)/atmel/studio/7.0/toolchain/arm/arm-gnu-toolchain/bin/../lib/gcc/arm-none-eabi/5.3.1/armv6-m/crtbegin.o

.eh_frame       0x10015ef0        0x0
 .eh_frame      0x10015ef0        0x0 c:/program files (x86)/atmel/studio/7.0/toolchain/arm/arm-gnu-toolchain/bin/../lib/gcc/arm-none-eabi/5.3.1/armv6-m/crtbegin.o

.rel.dyn        0x10015ef0        0x0
 .rel.iplt      0x10015ef0        0x0 c:/program files (x86)/atmel/studio/7.0/toolchain/arm/arm-gnu-toolchain/bin/../lib/gcc/arm-none-eabi/5.3.1/armv6-m/crtbegin.o

.jcr            0x10015ef0        0x0
 .jcr           0x10015ef0        0x0 c:/program files (x86)/atmel/studio/7.0/toolchain/arm/arm-gnu-toolchain/bin/../lib/gcc/arm-none-eabi/5.3.1/armv6-m/crtbegin.o

.igot.plt       0x10015ef0        0x0
 .igot.plt      0x10015ef0        0x0 c:/program files (x86)/atmel/studio/7.0/toolchain/arm/arm-gnu-toolchain/bin/../lib/gcc/arm-none-eabi/5.3.1/armv6-m/crtbegin.o
                0x10015ef0                . = ALIGN (0x4)
                0x10015ef0                _etext = .

.relocate       0x10015ef0       0x74
                0x10015ef0                . = ALIGN (0x4)
                0x10015ef0                _srelocate = .
 *(.ramfunc .ramfunc.*)
 *(.data .data.*)
 .data.q1.15548
                0x10015ef0        0x4 src/ASF/thirdparty/sensor/mpu9250_kriswiner/quaternion_ahrs.o
 .data.l2cap_avail_buffers
                0x10015ef4        0x1 ../src/ASF/thirdparty/wireless/ble_smart_sdk/lib/cm0/gcc\libblusdk.a(l2cc_task.o)
                0x10015ef4                l2cap_avail_buffers
 *fill*         0x10015ef5        0x3 
 .data.dummy_buffer
                0x10015ef8        0x4 ../src/ASF/thirdparty/wireless/ble_smart_sdk/lib/cm0/gcc\libblusdk.a(interface.o)
                0x10015ef8                dummy_buffer
 .data.__fdlib_version
                0x10015efc        0x1 c:/program files (x86)/atmel/studio/7.0/toolchain/arm/arm-gnu-toolchain/bin/../lib/gcc/arm-none-eabi/5.3.1/../../../../arm-none-eabi/lib/armv6-m\libm.a(lib_a-s_lib_ver.o)
                0x10015efc                __fdlib_version
 *fill*         0x10015efd        0x3 
 .data.impure_data
                0x10015f00       0x60 c:/program files (x86)/atmel/studio/7.0/toolchain/arm/arm-gnu-toolchain/bin/../lib/gcc/arm-none-eabi/5.3.1/../../../../arm-none-eabi/lib/armv6-m\libc_nano.a(lib_a-impure.o)
 .data._impure_ptr
                0x10015f60        0x4 c:/program files (x86)/atmel/studio/7.0/toolchain/arm/arm-gnu-toolchain/bin/../lib/gcc/arm-none-eabi/5.3.1/../../../../arm-none-eabi/lib/armv6-m\libc_nano.a(lib_a-impure.o)
                0x10015f60                _impure_ptr
                0x10015f64                . = ALIGN (0x4)
                0x10015f64                _erelocate = .

.bss            0x10015f64     0x2ef4
                0x10015f64                . = ALIGN (0x4)
                0x10015f64                _sbss = .
                0x10015f64                _szero = .
 *(.bss .bss.*)
 .bss           0x10015f64       0x1c c:/program files (x86)/atmel/studio/7.0/toolchain/arm/arm-gnu-toolchain/bin/../lib/gcc/arm-none-eabi/5.3.1/armv6-m/crtbegin.o
 .bss.aon_sleep_timer_callback
                0x10015f80        0x4 src/ASF/sam0/drivers/aon_sleep_timer/aon_sleep_timer.o
 .bss.heap.5286
                0x10015f84        0x4 src/ASF/sam0/utils/syscalls/gcc/syscalls.o
 .bss.q2.15549  0x10015f88        0x4 src/ASF/thirdparty/sensor/mpu9250_kriswiner/quaternion_ahrs.o
 .bss.q3.15550  0x10015f8c        0x4 src/ASF/thirdparty/sensor/mpu9250_kriswiner/quaternion_ahrs.o
 .bss.q4.15551  0x10015f90        0x4 src/ASF/thirdparty/sensor/mpu9250_kriswiner/quaternion_ahrs.o
 .bss.dualtimer_callback_timer1
                0x10015f94        0x4 src/ASF/sam0/drivers/dualtimer/dualtimer.o
 .bss.dualtimer_callback_timer2
                0x10015f98        0x4 src/ASF/sam0/drivers/dualtimer/dualtimer.o
 .bss.event_pool_memory
                0x10015f9c      0x400 src/ASF/thirdparty/wireless/ble_smart_sdk/ble_services/ble_mgr/ble_manager.o
                0x10015f9c                event_pool_memory
 .bss.att_db_data
                0x1001639c      0x4e0 src/ASF/thirdparty/wireless/ble_smart_sdk/ble_services/ble_mgr/ble_manager.o
                0x1001639c                att_db_data
 .bss.ble_user_event_cb
                0x1001687c        0x4 src/ASF/thirdparty/wireless/ble_smart_sdk/ble_services/ble_mgr/ble_manager.o
                0x1001687c                ble_user_event_cb
 .bss.scan_response_count
                0x10016880        0x1 src/ASF/thirdparty/wireless/ble_smart_sdk/ble_services/ble_mgr/ble_manager.o
                0x10016880                scan_response_count
 .bss.ble_peripheral_dev_address
                0x10016881        0x7 src/ASF/thirdparty/wireless/ble_smart_sdk/ble_services/ble_mgr/ble_manager.o
 .bss.event_params_memory
                0x10016888     0x1000 src/ASF/thirdparty/wireless/ble_smart_sdk/ble_services/ble_mgr/ble_manager.o
                0x10016888                event_params_memory
 .bss.ulp_status
                0x10017888        0x1 src/ASF/thirdparty/wireless/ble_smart_sdk/ble_services/ble_mgr/ble_manager.o
                0x10017888                ulp_status
 *fill*         0x10017889        0x3 
 .bss.tick      0x1001788c        0x4 src/ASF/thirdparty/wireless/ble_smart_sdk/services/uart/console_serial.o
                0x1001788c                tick
 .bss.read_status
                0x10017890        0x1 src/ASF/thirdparty/wireless/ble_smart_sdk/services/uart/console_serial.o
                0x10017890                read_status
 .bss.string_input
                0x10017891        0x1 src/ASF/thirdparty/wireless/ble_smart_sdk/services/uart/console_serial.o
                0x10017891                string_input
 *fill*         0x10017892        0x2 
 .bss.user_callback_func
                0x10017894        0x4 src/ASF/thirdparty/wireless/ble_smart_sdk/services/uart/console_serial.o
                0x10017894                user_callback_func
 .bss.platform_event_pending_list
                0x10017898        0x4 src/ASF/thirdparty/wireless/ble_smart_sdk/src/event_handler.o
 .bss.platform_event_free_list
                0x1001789c        0x4 src/ASF/thirdparty/wireless/ble_smart_sdk/src/event_handler.o
 .bss.platform_event_pool
                0x100178a0       0x78 src/ASF/thirdparty/wireless/ble_smart_sdk/src/event_handler.o
 .bss.ke_free   0x10017918        0x4 src/ASF/thirdparty/wireless/ble_smart_sdk/src/platform_drv.o
 .bss.gapm_get_id_from_task
                0x1001791c        0x4 src/ASF/thirdparty/wireless/ble_smart_sdk/src/platform_drv.o
 .bss.gapm_get_task_from_id
                0x10017920        0x4 src/ASF/thirdparty/wireless/ble_smart_sdk/src/platform_drv.o
 .bss.os_sem_up
                0x10017924        0x4 src/ASF/thirdparty/wireless/ble_smart_sdk/src/platform_drv.o
 .bss.pwr_wait_BLE_out_of_reset
                0x10017928        0x4 src/ASF/thirdparty/wireless/ble_smart_sdk/src/platform_drv.o
 .bss.platform_initialized
                0x1001792c        0x1 src/ASF/thirdparty/wireless/ble_smart_sdk/src/platform_drv.o
                0x1001792c                platform_initialized
 *fill*         0x1001792d        0x3 
 .bss.pwr_disable_arm_wakeup
                0x10017930        0x4 src/ASF/thirdparty/wireless/ble_smart_sdk/src/platform_drv.o
 .bss.gstrFwSem
                0x10017934        0x4 src/ASF/thirdparty/wireless/ble_smart_sdk/src/platform_drv.o
 .bss.os_sem_down
                0x10017938        0x4 src/ASF/thirdparty/wireless/ble_smart_sdk/src/platform_drv.o
 .bss.ke_msg_hdr.13330
                0x1001793c        0x4 src/ASF/thirdparty/wireless/ble_smart_sdk/src/platform_drv.o
 .bss.pwr_enable_arm_wakeup
                0x10017940        0x4 src/ASF/thirdparty/wireless/ble_smart_sdk/src/platform_drv.o
 .bss.NMI_MsgQueueRecv
                0x10017944        0x4 src/ASF/thirdparty/wireless/ble_smart_sdk/src/platform_drv.o
 .bss.ke_msg_send
                0x10017948        0x4 src/ASF/thirdparty/wireless/ble_smart_sdk/src/platform_drv.o
 .bss.ble_stack_message_handler
                0x1001794c        0x4 src/ASF/thirdparty/wireless/ble_smart_sdk/src/platform_drv.o
 .bss.rcv_msg.13329
                0x10017950        0x4 src/ASF/thirdparty/wireless/ble_smart_sdk/src/platform_drv.o
 .bss.pwr_arm_wakeup_req
                0x10017954        0x4 src/ASF/thirdparty/wireless/ble_smart_sdk/src/platform_drv.o
 .bss.ke_msg_alloc
                0x10017958        0x4 src/ASF/thirdparty/wireless/ble_smart_sdk/src/platform_drv.o
 .bss.InternalAppMsgQHandle
                0x1001795c        0x4 src/ASF/thirdparty/wireless/ble_smart_sdk/src/platform_drv.o
 .bss.spare_event
                0x10017960       0x10 ../src/ASF/thirdparty/wireless/ble_smart_sdk/lib/cm0/gcc\libblusdk.a(event.o)
 .bss.spare_event_busy
                0x10017970        0x1 ../src/ASF/thirdparty/wireless/ble_smart_sdk/lib/cm0/gcc\libblusdk.a(event.o)
 *fill*         0x10017971        0x3 
 .bss.event_pending_list
                0x10017974        0x4 ../src/ASF/thirdparty/wireless/ble_smart_sdk/lib/cm0/gcc\libblusdk.a(event.o)
 .bss.event_free_list
                0x10017978        0x4 ../src/ASF/thirdparty/wireless/ble_smart_sdk/lib/cm0/gcc\libblusdk.a(event.o)
 .bss.u16GattcSeqNo
                0x1001797c        0x2 ../src/ASF/thirdparty/wireless/ble_smart_sdk/lib/cm0/gcc\libblusdk.a(gatt_client.o)
 *fill*         0x1001797e        0x2 
 .bss.pu8valuesBuffer
                0x10017980        0x4 ../src/ASF/thirdparty/wireless/ble_smart_sdk/lib/cm0/gcc\libblusdk.a(gatt_server.o)
                0x10017980                pu8valuesBuffer
 .bss.unNull    0x10017984        0x1 ../src/ASF/thirdparty/wireless/ble_smart_sdk/lib/cm0/gcc\libblusdk.a(gatt_server.o)
                0x10017984                unNull
 *fill*         0x10017985        0x3 
 .bss.ptstrattDb
                0x10017988        0x4 ../src/ASF/thirdparty/wireless/ble_smart_sdk/lib/cm0/gcc\libblusdk.a(gatt_server.o)
                0x10017988                ptstrattDb
 .bss.pu8valuesBufferEnd
                0x1001798c        0x4 ../src/ASF/thirdparty/wireless/ble_smart_sdk/lib/cm0/gcc\libblusdk.a(gatt_server.o)
                0x1001798c                pu8valuesBufferEnd
 .bss.u32numberOfValues
                0x10017990        0x4 ../src/ASF/thirdparty/wireless/ble_smart_sdk/lib/cm0/gcc\libblusdk.a(gatt_server.o)
                0x10017990                u32numberOfValues
 .bss.u32dbMemorySize
                0x10017994        0x4 ../src/ASF/thirdparty/wireless/ble_smart_sdk/lib/cm0/gcc\libblusdk.a(gatt_server.o)
                0x10017994                u32dbMemorySize
 .bss.service_setup_buffer
                0x10017998        0x4 ../src/ASF/thirdparty/wireless/ble_smart_sdk/lib/cm0/gcc\libblusdk.a(gatt_server.o)
                0x10017998                service_setup_buffer
 .bss.event_param_buff
                0x1001799c        0x4 ../src/ASF/thirdparty/wireless/ble_smart_sdk/lib/cm0/gcc\libblusdk.a(interface.o)
                0x1001799c                event_param_buff
 .bss.event_param_buff_length
                0x100179a0        0x4 ../src/ASF/thirdparty/wireless/ble_smart_sdk/lib/cm0/gcc\libblusdk.a(interface.o)
                0x100179a0                event_param_buff_length
 .bss.cmd_cmpl_flag
                0x100179a4        0x4 ../src/ASF/thirdparty/wireless/ble_smart_sdk/lib/cm0/gcc\libblusdk.a(interface.o)
 .bss.dummy_key.7283
                0x100179a8       0x10 ../src/ASF/thirdparty/wireless/ble_smart_sdk/lib/cm0/gcc\libblusdk.a(gapc_task.o)
 .bss.dummy_key.7401
                0x100179b8       0x10 ../src/ASF/thirdparty/wireless/ble_smart_sdk/lib/cm0/gcc\libblusdk.a(gapc_task.o)
 .bss.dummy_key.7419
                0x100179c8       0x10 ../src/ASF/thirdparty/wireless/ble_smart_sdk/lib/cm0/gcc\libblusdk.a(gapc_task.o)
 .bss.peer_key_info
                0x100179d8       0x46 ../src/ASF/thirdparty/wireless/ble_smart_sdk/lib/cm0/gcc\libblusdk.a(gapc_task.o)
 .bss.g_seq_num_tx
                0x10017a1e        0x2 ../src/ASF/thirdparty/wireless/ble_smart_sdk/lib/cm0/gcc\libblusdk.a(gattc_task.o)
 .bss.Seq_NUM   0x10017a20        0x2 ../src/ASF/thirdparty/wireless/ble_smart_sdk/lib/cm0/gcc\libblusdk.a(gattc_task.o)
                0x10017a20                Seq_NUM
 *fill*         0x10017a22        0x2 
 .bss.u32usedBuffers
                0x10017a24        0x4 ../src/ASF/thirdparty/wireless/ble_smart_sdk/lib/cm0/gcc\libblusdk.a(gattm_task.o)
                0x10017a24                u32usedBuffers
 .bss.__malloc_sbrk_start
                0x10017a28        0x4 c:/program files (x86)/atmel/studio/7.0/toolchain/arm/arm-gnu-toolchain/bin/../lib/gcc/arm-none-eabi/5.3.1/../../../../arm-none-eabi/lib/armv6-m\libc_nano.a(lib_a-nano-mallocr.o)
                0x10017a28                __malloc_sbrk_start
 .bss.__malloc_free_list
                0x10017a2c        0x4 c:/program files (x86)/atmel/studio/7.0/toolchain/arm/arm-gnu-toolchain/bin/../lib/gcc/arm-none-eabi/5.3.1/../../../../arm-none-eabi/lib/armv6-m\libc_nano.a(lib_a-nano-mallocr.o)
                0x10017a2c                __malloc_free_list
 *(COMMON)
 COMMON         0x10017a30      0x231 src/ASF/thirdparty/sensor/mpu9250_kriswiner/quaternion_ahrs.o
                0x10017a30                timer1_current_mode
                0x10017a34                mpu_device
                0x10017b14                sms_ble_timeout
                0x10017b18                sms_working_mode
                0x10017b19                ulp_ready
                0x10017b1a                ble_instance
                0x10017b1c                sms_connection_handle
                0x10017b20                button_instance
                0x10017b80                spi_rdata
                0x10017b90                timer1_instance
                0x10017b93                spi_wdata
                0x10017ba4                pressure_device
                0x10017c28                i2c_rpacket
                0x10017c30                sensors_active
                0x10017c31                sms_ble_ind_retry
                0x10017c32                sms_ble_conn_handle
                0x10017c34                i2c_master_instance
                0x10017c3c                timer2_instance
                0x10017c3f                timer2_current_mode
                0x10017c40                spi_slave_ms58_instance
                0x10017c43                ulp_active
                0x10017c44                i2c_wpacket
                0x10017c4c                spi_master_ms58_instance
                0x10017c54                msp
                0x10017c58                sms_ble_send_cnt
                0x10017c5a                sms_btn_cnt
                0x10017c5c                psp
                0x10017c60                sms_led_blink_cnt
 *fill*         0x10017c61        0x3 
 COMMON         0x10017c64       0xd8 src/ASF/sam0/drivers/gpio/gpio.o
                0x10017c64                _gpio_instances
 COMMON         0x10017d3c        0x4 src/ASF/sam0/drivers/system/system_sam_b.o
                0x10017d3c                system_clock_value
 COMMON         0x10017d40        0x8 src/ASF/sam0/drivers/uart/uart.o
                0x10017d40                _uart_instances
 COMMON         0x10017d48        0x4 src/ASF/sam0/utils/stdio/read.o
                0x10017d48                ptr_get
 COMMON         0x10017d4c        0x8 src/ASF/sam0/utils/stdio/write.o
                0x10017d4c                ptr_put
                0x10017d50                stdio_base
 COMMON         0x10017d54      0x840 src/ASF/thirdparty/wireless/ble_smart_sdk/ble_services/ble_mgr/ble_manager.o
                0x10017d54                ble_mgr_htpt_event_cb
                0x10017d58                ble_mgr_gatt_server_event_cb
                0x10017d6c                ble_dev_info
                0x10017fd8                ble_device_count
                0x10017fdc                ble_mgr_dtm_event_cb
                0x10017ff0                ble_mgr_gap_event_cb
                0x10018004                ble_mgr_gatt_client_event_cb
                0x10018018                connected_state_info
                0x1001802c                pf_cfg
                0x10018048                event
                0x1001804c                ble_mgr_l2cap_event_cb
                0x10018050                scan_info
                0x10018384                ble_event_params
                0x10018590                ble_mgr_custom_event_cb
 COMMON         0x10018594       0x4c src/ASF/thirdparty/wireless/ble_smart_sdk/services/uart/console_serial.o
                0x10018594                uart_instance
                0x100185b8                config_uart
 COMMON         0x100185e0      0x2ea src/ASF/thirdparty/wireless/ble_smart_sdk/src/platform_drv.o
                0x100185e0                default_samb11_clock_init
                0x100185e8                rwip_prevent_sleep_set
                0x100185ec                platform_unregister_isr
                0x100185f0                wakeup_event_pending
                0x100185f4                rwip_prevent_sleep_clear
                0x100185f8                actualfreq
                0x100185fc                port_list
                0x1001862e                rx_buffer
                0x100188b0                platform_register_isr
                0x100188b4                handle_ext_wakeup_isr
                0x100188b8                wakeup_source_active_cb
                0x100188bc                samb11_app_resume_cb
                0x100188c0                updateuartbr_fp
                0x100188c4                apps_resume_cb
                0x100188c8                plf_event_buff_index
 *fill*         0x100188ca        0x2 
 COMMON         0x100188cc        0xc src/ASF/thirdparty/wireless/ble_smart_sdk/src/port_from_sdk.o
                0x100188cc                wakeup_source_callback
 COMMON         0x100188d8        0xc ../src/ASF/thirdparty/wireless/ble_smart_sdk/lib/cm0/gcc\libblusdk.a(event.o)
                0x100188d8                watched_event
 COMMON         0x100188e4      0x16a ../src/ASF/thirdparty/wireless/ble_smart_sdk/lib/cm0/gcc\libblusdk.a(gap.o)
                0x100188e4                app_task_type
                0x100188e6                gstrConnData
                0x10018976                device
 *fill*         0x10018a4e        0x2 
 COMMON         0x10018a50      0x404 ../src/ASF/thirdparty/wireless/ble_smart_sdk/lib/cm0/gcc\libblusdk.a(interface.o)
                0x10018a50                event_param_buff_index
                0x10018a54                dummy_buffer_buff
                0x10018c54                interface_send_msg
 COMMON         0x10018e54        0x4 c:/program files (x86)/atmel/studio/7.0/toolchain/arm/arm-gnu-toolchain/bin/../lib/gcc/arm-none-eabi/5.3.1/../../../../arm-none-eabi/lib/armv6-m\libc_nano.a(lib_a-reent.o)
                0x10018e54                errno
                0x10018e58                . = ALIGN (0x4)
                0x10018e58                _ebss = .
                0x10018e58                _ezero = .

.stack          0x10018e58      0x800
                0x10018e58                . = ALIGN (0x8)
                0x10018e58                _sstack = .
                0x10019658                . = (. + STACK_SIZE)
 *fill*         0x10018e58      0x800 
                0x10019658                . = ALIGN (0x8)
                0x10019658                _estack = .
                [!provide]                PROVIDE (__exidx_start, .)

.ARM.exidx
 *(.ARM.exidx* .gnu.linkonce.armexidx.*)
                [!provide]                PROVIDE (__exidx_end, .)
                0x10019658                . = ALIGN (0x4)
                0x10019658                _end = .
OUTPUT(SMS_peripheral1.elf elf32-littlearm)

.ARM.attributes
                0x00000000       0x28
 .ARM.attributes
                0x00000000       0x1e c:/program files (x86)/atmel/studio/7.0/toolchain/arm/arm-gnu-toolchain/bin/../lib/gcc/arm-none-eabi/5.3.1/armv6-m/crti.o
 .ARM.attributes
                0x0000001e       0x2c c:/program files (x86)/atmel/studio/7.0/toolchain/arm/arm-gnu-toolchain/bin/../lib/gcc/arm-none-eabi/5.3.1/armv6-m/crtbegin.o
 .ARM.attributes
                0x0000004a       0x31 src/ASF/sam0/drivers/aon_sleep_timer/aon_sleep_timer.o
 .ARM.attributes
                0x0000007b       0x31 src/ASF/sam0/drivers/i2c/i2c_master.o
 .ARM.attributes
                0x000000ac       0x31 src/ASF/sam0/utils/cmsis/samb11/source/gcc/startup_samb11.o
 .ARM.attributes
                0x000000dd       0x31 src/ASF/sam0/utils/syscalls/gcc/syscalls.o
 .ARM.attributes
                0x0000010e       0x31 src/ASF/thirdparty/sensor/mpu9250_kriswiner/quaternion_ahrs.o
 .ARM.attributes
                0x0000013f       0x31 src/sms_v_0_2/src/sms_ble.o
 .ARM.attributes
                0x00000170       0x31 src/sms_v_0_2/src/sms_button.o
 .ARM.attributes
                0x000001a1       0x31 src/sms_v_0_2/src/sms_common.o
 .ARM.attributes
                0x000001d2       0x31 src/sms_v_0_2/src/sms_i2c.o
 .ARM.attributes
                0x00000203       0x31 src/sms_v_0_2/src/sms_mpu.o
 .ARM.attributes
                0x00000234       0x31 src/sms_v_0_2/src/sms_led.o
 .ARM.attributes
                0x00000265       0x31 src/sms_v_0_2/src/sms_pressure.o
 .ARM.attributes
                0x00000296       0x31 src/sms_v_0_2/src/sms_sensors.o
 .ARM.attributes
                0x000002c7       0x31 src/sms_v_0_2/src/sms_spi.o
 .ARM.attributes
                0x000002f8       0x31 src/sms_v_0_2/src/sms_timer.o
 .ARM.attributes
                0x00000329       0x31 src/ASF/sam0/drivers/spi/spi.o
 .ARM.attributes
                0x0000035a       0x31 src/ASF/sam0/drivers/dualtimer/dualtimer.o
 .ARM.attributes
                0x0000038b       0x31 src/ASF/sam0/drivers/gpio/gpio.o
 .ARM.attributes
                0x000003bc       0x31 src/ASF/sam0/drivers/system/system_sam_b.o
 .ARM.attributes
                0x000003ed       0x31 src/ASF/sam0/drivers/uart/uart.o
 .ARM.attributes
                0x0000041e       0x31 src/ASF/sam0/utils/stdio/read.o
 .ARM.attributes
                0x0000044f       0x31 src/ASF/sam0/utils/stdio/write.o
 .ARM.attributes
                0x00000480       0x31 src/ASF/thirdparty/wireless/ble_smart_sdk/ble_services/ble_mgr/ble_manager.o
 .ARM.attributes
                0x000004b1       0x31 src/ASF/thirdparty/wireless/ble_smart_sdk/services/uart/console_serial.o
 .ARM.attributes
                0x000004e2       0x31 src/ASF/thirdparty/wireless/ble_smart_sdk/src/event_handler.o
 .ARM.attributes
                0x00000513       0x31 src/ASF/thirdparty/wireless/ble_smart_sdk/src/platform_drv.o
 .ARM.attributes
                0x00000544       0x31 src/ASF/thirdparty/wireless/ble_smart_sdk/src/port_from_sdk.o
 .ARM.attributes
                0x00000575       0x31 src/sms_peripheral1.o
 .ARM.attributes
                0x000005a6       0x31 ../src/ASF/thirdparty/wireless/ble_smart_sdk/lib/cm0/gcc\libblusdk.a(event.o)
 .ARM.attributes
                0x000005d7       0x31 ../src/ASF/thirdparty/wireless/ble_smart_sdk/lib/cm0/gcc\libblusdk.a(gap.o)
 .ARM.attributes
                0x00000608       0x31 ../src/ASF/thirdparty/wireless/ble_smart_sdk/lib/cm0/gcc\libblusdk.a(gatt_client.o)
 .ARM.attributes
                0x00000639       0x31 ../src/ASF/thirdparty/wireless/ble_smart_sdk/lib/cm0/gcc\libblusdk.a(gatt_server.o)
 .ARM.attributes
                0x0000066a       0x31 ../src/ASF/thirdparty/wireless/ble_smart_sdk/lib/cm0/gcc\libblusdk.a(l2cc_task.o)
 .ARM.attributes
                0x0000069b       0x31 ../src/ASF/thirdparty/wireless/ble_smart_sdk/lib/cm0/gcc\libblusdk.a(security.o)
 .ARM.attributes
                0x000006cc       0x31 ../src/ASF/thirdparty/wireless/ble_smart_sdk/lib/cm0/gcc\libblusdk.a(interface.o)
 .ARM.attributes
                0x000006fd       0x31 ../src/ASF/thirdparty/wireless/ble_smart_sdk/lib/cm0/gcc\libblusdk.a(dbg_task.o)
 .ARM.attributes
                0x0000072e       0x31 ../src/ASF/thirdparty/wireless/ble_smart_sdk/lib/cm0/gcc\libblusdk.a(gapc_task.o)
 .ARM.attributes
                0x0000075f       0x31 ../src/ASF/thirdparty/wireless/ble_smart_sdk/lib/cm0/gcc\libblusdk.a(gapm_task.o)
 .ARM.attributes
                0x00000790       0x31 ../src/ASF/thirdparty/wireless/ble_smart_sdk/lib/cm0/gcc\libblusdk.a(gattc_task.o)
 .ARM.attributes
                0x000007c1       0x31 ../src/ASF/thirdparty/wireless/ble_smart_sdk/lib/cm0/gcc\libblusdk.a(gattm_task.o)
 .ARM.attributes
                0x000007f2       0x31 ../src/ASF/thirdparty/wireless/ble_smart_sdk/lib/cm0/gcc\libblusdk.a(htpt_task.o)
 .ARM.attributes
                0x00000823       0x2c c:/program files (x86)/atmel/studio/7.0/toolchain/arm/arm-gnu-toolchain/bin/../lib/gcc/arm-none-eabi/5.3.1/../../../../arm-none-eabi/lib/armv6-m\libm.a(lib_a-w_pow.o)
 .ARM.attributes
                0x0000084f       0x2c c:/program files (x86)/atmel/studio/7.0/toolchain/arm/arm-gnu-toolchain/bin/../lib/gcc/arm-none-eabi/5.3.1/../../../../arm-none-eabi/lib/armv6-m\libm.a(lib_a-wf_sqrt.o)
 .ARM.attributes
                0x0000087b       0x2c c:/program files (x86)/atmel/studio/7.0/toolchain/arm/arm-gnu-toolchain/bin/../lib/gcc/arm-none-eabi/5.3.1/../../../../arm-none-eabi/lib/armv6-m\libm.a(lib_a-e_pow.o)
 .ARM.attributes
                0x000008a7       0x2c c:/program files (x86)/atmel/studio/7.0/toolchain/arm/arm-gnu-toolchain/bin/../lib/gcc/arm-none-eabi/5.3.1/../../../../arm-none-eabi/lib/armv6-m\libm.a(lib_a-e_sqrt.o)
 .ARM.attributes
                0x000008d3       0x2c c:/program files (x86)/atmel/studio/7.0/toolchain/arm/arm-gnu-toolchain/bin/../lib/gcc/arm-none-eabi/5.3.1/../../../../arm-none-eabi/lib/armv6-m\libm.a(lib_a-ef_sqrt.o)
 .ARM.attributes
                0x000008ff       0x2c c:/program files (x86)/atmel/studio/7.0/toolchain/arm/arm-gnu-toolchain/bin/../lib/gcc/arm-none-eabi/5.3.1/../../../../arm-none-eabi/lib/armv6-m\libm.a(lib_a-s_fabs.o)
 .ARM.attributes
                0x0000092b       0x2c c:/program files (x86)/atmel/studio/7.0/toolchain/arm/arm-gnu-toolchain/bin/../lib/gcc/arm-none-eabi/5.3.1/../../../../arm-none-eabi/lib/armv6-m\libm.a(lib_a-s_finite.o)
 .ARM.attributes
                0x00000957       0x2c c:/program files (x86)/atmel/studio/7.0/toolchain/arm/arm-gnu-toolchain/bin/../lib/gcc/arm-none-eabi/5.3.1/../../../../arm-none-eabi/lib/armv6-m\libm.a(lib_a-s_lib_ver.o)
 .ARM.attributes
                0x00000983       0x2c c:/program files (x86)/atmel/studio/7.0/toolchain/arm/arm-gnu-toolchain/bin/../lib/gcc/arm-none-eabi/5.3.1/../../../../arm-none-eabi/lib/armv6-m\libm.a(lib_a-s_matherr.o)
 .ARM.attributes
                0x000009af       0x2c c:/program files (x86)/atmel/studio/7.0/toolchain/arm/arm-gnu-toolchain/bin/../lib/gcc/arm-none-eabi/5.3.1/../../../../arm-none-eabi/lib/armv6-m\libm.a(lib_a-s_nan.o)
 .ARM.attributes
                0x000009db       0x2c c:/program files (x86)/atmel/studio/7.0/toolchain/arm/arm-gnu-toolchain/bin/../lib/gcc/arm-none-eabi/5.3.1/../../../../arm-none-eabi/lib/armv6-m\libm.a(lib_a-s_rint.o)
 .ARM.attributes
                0x00000a07       0x2c c:/program files (x86)/atmel/studio/7.0/toolchain/arm/arm-gnu-toolchain/bin/../lib/gcc/arm-none-eabi/5.3.1/../../../../arm-none-eabi/lib/armv6-m\libm.a(lib_a-s_scalbn.o)
 .ARM.attributes
                0x00000a33       0x2c c:/program files (x86)/atmel/studio/7.0/toolchain/arm/arm-gnu-toolchain/bin/../lib/gcc/arm-none-eabi/5.3.1/../../../../arm-none-eabi/lib/armv6-m\libm.a(lib_a-s_copysign.o)
 .ARM.attributes
                0x00000a5f       0x1e c:/program files (x86)/atmel/studio/7.0/toolchain/arm/arm-gnu-toolchain/bin/../lib/gcc/arm-none-eabi/5.3.1/armv6-m\libgcc.a(_thumb1_case_sqi.o)
 .ARM.attributes
                0x00000a7d       0x1e c:/program files (x86)/atmel/studio/7.0/toolchain/arm/arm-gnu-toolchain/bin/../lib/gcc/arm-none-eabi/5.3.1/armv6-m\libgcc.a(_thumb1_case_uqi.o)
 .ARM.attributes
                0x00000a9b       0x1e c:/program files (x86)/atmel/studio/7.0/toolchain/arm/arm-gnu-toolchain/bin/../lib/gcc/arm-none-eabi/5.3.1/armv6-m\libgcc.a(_thumb1_case_uhi.o)
 .ARM.attributes
                0x00000ab9       0x1e c:/program files (x86)/atmel/studio/7.0/toolchain/arm/arm-gnu-toolchain/bin/../lib/gcc/arm-none-eabi/5.3.1/armv6-m\libgcc.a(_udivsi3.o)
 .ARM.attributes
                0x00000ad7       0x1e c:/program files (x86)/atmel/studio/7.0/toolchain/arm/arm-gnu-toolchain/bin/../lib/gcc/arm-none-eabi/5.3.1/armv6-m\libgcc.a(_divsi3.o)
 .ARM.attributes
                0x00000af5       0x1e c:/program files (x86)/atmel/studio/7.0/toolchain/arm/arm-gnu-toolchain/bin/../lib/gcc/arm-none-eabi/5.3.1/armv6-m\libgcc.a(_dvmd_tls.o)
 .ARM.attributes
                0x00000b13       0x1e c:/program files (x86)/atmel/studio/7.0/toolchain/arm/arm-gnu-toolchain/bin/../lib/gcc/arm-none-eabi/5.3.1/armv6-m\libgcc.a(_arm_cmpdf2.o)
 .ARM.attributes
                0x00000b31       0x1e c:/program files (x86)/atmel/studio/7.0/toolchain/arm/arm-gnu-toolchain/bin/../lib/gcc/arm-none-eabi/5.3.1/armv6-m\libgcc.a(_arm_cmpsf2.o)
 .ARM.attributes
                0x00000b4f       0x2c c:/program files (x86)/atmel/studio/7.0/toolchain/arm/arm-gnu-toolchain/bin/../lib/gcc/arm-none-eabi/5.3.1/armv6-m\libgcc.a(_muldi3.o)
 .ARM.attributes
                0x00000b7b       0x2c c:/program files (x86)/atmel/studio/7.0/toolchain/arm/arm-gnu-toolchain/bin/../lib/gcc/arm-none-eabi/5.3.1/armv6-m\libgcc.a(_fixunssfsi.o)
 .ARM.attributes
                0x00000ba7       0x2c c:/program files (x86)/atmel/studio/7.0/toolchain/arm/arm-gnu-toolchain/bin/../lib/gcc/arm-none-eabi/5.3.1/armv6-m\libgcc.a(_fixunsdfsi.o)
 .ARM.attributes
                0x00000bd3       0x2c c:/program files (x86)/atmel/studio/7.0/toolchain/arm/arm-gnu-toolchain/bin/../lib/gcc/arm-none-eabi/5.3.1/armv6-m\libgcc.a(addsf3.o)
 .ARM.attributes
                0x00000bff       0x2c c:/program files (x86)/atmel/studio/7.0/toolchain/arm/arm-gnu-toolchain/bin/../lib/gcc/arm-none-eabi/5.3.1/armv6-m\libgcc.a(divsf3.o)
 .ARM.attributes
                0x00000c2b       0x2c c:/program files (x86)/atmel/studio/7.0/toolchain/arm/arm-gnu-toolchain/bin/../lib/gcc/arm-none-eabi/5.3.1/armv6-m\libgcc.a(eqsf2.o)
 .ARM.attributes
                0x00000c57       0x2c c:/program files (x86)/atmel/studio/7.0/toolchain/arm/arm-gnu-toolchain/bin/../lib/gcc/arm-none-eabi/5.3.1/armv6-m\libgcc.a(gesf2.o)
 .ARM.attributes
                0x00000c83       0x2c c:/program files (x86)/atmel/studio/7.0/toolchain/arm/arm-gnu-toolchain/bin/../lib/gcc/arm-none-eabi/5.3.1/armv6-m\libgcc.a(lesf2.o)
 .ARM.attributes
                0x00000caf       0x2c c:/program files (x86)/atmel/studio/7.0/toolchain/arm/arm-gnu-toolchain/bin/../lib/gcc/arm-none-eabi/5.3.1/armv6-m\libgcc.a(mulsf3.o)
 .ARM.attributes
                0x00000cdb       0x2c c:/program files (x86)/atmel/studio/7.0/toolchain/arm/arm-gnu-toolchain/bin/../lib/gcc/arm-none-eabi/5.3.1/armv6-m\libgcc.a(subsf3.o)
 .ARM.attributes
                0x00000d07       0x2c c:/program files (x86)/atmel/studio/7.0/toolchain/arm/arm-gnu-toolchain/bin/../lib/gcc/arm-none-eabi/5.3.1/armv6-m\libgcc.a(unordsf2.o)
 .ARM.attributes
                0x00000d33       0x2c c:/program files (x86)/atmel/studio/7.0/toolchain/arm/arm-gnu-toolchain/bin/../lib/gcc/arm-none-eabi/5.3.1/armv6-m\libgcc.a(fixsfsi.o)
 .ARM.attributes
                0x00000d5f       0x2c c:/program files (x86)/atmel/studio/7.0/toolchain/arm/arm-gnu-toolchain/bin/../lib/gcc/arm-none-eabi/5.3.1/armv6-m\libgcc.a(floatsisf.o)
 .ARM.attributes
                0x00000d8b       0x2c c:/program files (x86)/atmel/studio/7.0/toolchain/arm/arm-gnu-toolchain/bin/../lib/gcc/arm-none-eabi/5.3.1/armv6-m\libgcc.a(floatunsisf.o)
 .ARM.attributes
                0x00000db7       0x2c c:/program files (x86)/atmel/studio/7.0/toolchain/arm/arm-gnu-toolchain/bin/../lib/gcc/arm-none-eabi/5.3.1/armv6-m\libgcc.a(adddf3.o)
 .ARM.attributes
                0x00000de3       0x2c c:/program files (x86)/atmel/studio/7.0/toolchain/arm/arm-gnu-toolchain/bin/../lib/gcc/arm-none-eabi/5.3.1/armv6-m\libgcc.a(divdf3.o)
 .ARM.attributes
                0x00000e0f       0x2c c:/program files (x86)/atmel/studio/7.0/toolchain/arm/arm-gnu-toolchain/bin/../lib/gcc/arm-none-eabi/5.3.1/armv6-m\libgcc.a(eqdf2.o)
 .ARM.attributes
                0x00000e3b       0x2c c:/program files (x86)/atmel/studio/7.0/toolchain/arm/arm-gnu-toolchain/bin/../lib/gcc/arm-none-eabi/5.3.1/armv6-m\libgcc.a(gedf2.o)
 .ARM.attributes
                0x00000e67       0x2c c:/program files (x86)/atmel/studio/7.0/toolchain/arm/arm-gnu-toolchain/bin/../lib/gcc/arm-none-eabi/5.3.1/armv6-m\libgcc.a(ledf2.o)
 .ARM.attributes
                0x00000e93       0x2c c:/program files (x86)/atmel/studio/7.0/toolchain/arm/arm-gnu-toolchain/bin/../lib/gcc/arm-none-eabi/5.3.1/armv6-m\libgcc.a(muldf3.o)
 .ARM.attributes
                0x00000ebf       0x2c c:/program files (x86)/atmel/studio/7.0/toolchain/arm/arm-gnu-toolchain/bin/../lib/gcc/arm-none-eabi/5.3.1/armv6-m\libgcc.a(subdf3.o)
 .ARM.attributes
                0x00000eeb       0x2c c:/program files (x86)/atmel/studio/7.0/toolchain/arm/arm-gnu-toolchain/bin/../lib/gcc/arm-none-eabi/5.3.1/armv6-m\libgcc.a(unorddf2.o)
 .ARM.attributes
                0x00000f17       0x2c c:/program files (x86)/atmel/studio/7.0/toolchain/arm/arm-gnu-toolchain/bin/../lib/gcc/arm-none-eabi/5.3.1/armv6-m\libgcc.a(fixdfsi.o)
 .ARM.attributes
                0x00000f43       0x2c c:/program files (x86)/atmel/studio/7.0/toolchain/arm/arm-gnu-toolchain/bin/../lib/gcc/arm-none-eabi/5.3.1/armv6-m\libgcc.a(floatsidf.o)
 .ARM.attributes
                0x00000f6f       0x2c c:/program files (x86)/atmel/studio/7.0/toolchain/arm/arm-gnu-toolchain/bin/../lib/gcc/arm-none-eabi/5.3.1/armv6-m\libgcc.a(floatunsidf.o)
 .ARM.attributes
                0x00000f9b       0x2c c:/program files (x86)/atmel/studio/7.0/toolchain/arm/arm-gnu-toolchain/bin/../lib/gcc/arm-none-eabi/5.3.1/armv6-m\libgcc.a(extendsfdf2.o)
 .ARM.attributes
                0x00000fc7       0x2c c:/program files (x86)/atmel/studio/7.0/toolchain/arm/arm-gnu-toolchain/bin/../lib/gcc/arm-none-eabi/5.3.1/armv6-m\libgcc.a(truncdfsf2.o)
 .ARM.attributes
                0x00000ff3       0x1e c:/program files (x86)/atmel/studio/7.0/toolchain/arm/arm-gnu-toolchain/bin/../lib/gcc/arm-none-eabi/5.3.1/armv6-m\libgcc.a(_clzsi2.o)
 .ARM.attributes
                0x00001011       0x2c c:/program files (x86)/atmel/studio/7.0/toolchain/arm/arm-gnu-toolchain/bin/../lib/gcc/arm-none-eabi/5.3.1/../../../../arm-none-eabi/lib/armv6-m\libc_nano.a(lib_a-errno.o)
 .ARM.attributes
                0x0000103d       0x2c c:/program files (x86)/atmel/studio/7.0/toolchain/arm/arm-gnu-toolchain/bin/../lib/gcc/arm-none-eabi/5.3.1/../../../../arm-none-eabi/lib/armv6-m\libc_nano.a(lib_a-impure.o)
 .ARM.attributes
                0x00001069       0x2c c:/program files (x86)/atmel/studio/7.0/toolchain/arm/arm-gnu-toolchain/bin/../lib/gcc/arm-none-eabi/5.3.1/../../../../arm-none-eabi/lib/armv6-m\libc_nano.a(lib_a-init.o)
 .ARM.attributes
                0x00001095       0x2c c:/program files (x86)/atmel/studio/7.0/toolchain/arm/arm-gnu-toolchain/bin/../lib/gcc/arm-none-eabi/5.3.1/../../../../arm-none-eabi/lib/armv6-m\libc_nano.a(lib_a-malloc.o)
 .ARM.attributes
                0x000010c1       0x2c c:/program files (x86)/atmel/studio/7.0/toolchain/arm/arm-gnu-toolchain/bin/../lib/gcc/arm-none-eabi/5.3.1/../../../../arm-none-eabi/lib/armv6-m\libc_nano.a(lib_a-memcmp.o)
 .ARM.attributes
                0x000010ed       0x2c c:/program files (x86)/atmel/studio/7.0/toolchain/arm/arm-gnu-toolchain/bin/../lib/gcc/arm-none-eabi/5.3.1/../../../../arm-none-eabi/lib/armv6-m\libc_nano.a(lib_a-memcpy-stub.o)
 .ARM.attributes
                0x00001119       0x2c c:/program files (x86)/atmel/studio/7.0/toolchain/arm/arm-gnu-toolchain/bin/../lib/gcc/arm-none-eabi/5.3.1/../../../../arm-none-eabi/lib/armv6-m\libc_nano.a(lib_a-memset.o)
 .ARM.attributes
                0x00001145       0x2c c:/program files (x86)/atmel/studio/7.0/toolchain/arm/arm-gnu-toolchain/bin/../lib/gcc/arm-none-eabi/5.3.1/../../../../arm-none-eabi/lib/armv6-m\libc_nano.a(lib_a-nano-freer.o)
 .ARM.attributes
                0x00001171       0x2c c:/program files (x86)/atmel/studio/7.0/toolchain/arm/arm-gnu-toolchain/bin/../lib/gcc/arm-none-eabi/5.3.1/../../../../arm-none-eabi/lib/armv6-m\libc_nano.a(lib_a-nano-mallocr.o)
 .ARM.attributes
                0x0000119d       0x2c c:/program files (x86)/atmel/studio/7.0/toolchain/arm/arm-gnu-toolchain/bin/../lib/gcc/arm-none-eabi/5.3.1/../../../../arm-none-eabi/lib/armv6-m\libc_nano.a(lib_a-rand.o)
 .ARM.attributes
                0x000011c9       0x2c c:/program files (x86)/atmel/studio/7.0/toolchain/arm/arm-gnu-toolchain/bin/../lib/gcc/arm-none-eabi/5.3.1/../../../../arm-none-eabi/lib/armv6-m\libc_nano.a(lib_a-sbrkr.o)
 .ARM.attributes
                0x000011f5       0x2c c:/program files (x86)/atmel/studio/7.0/toolchain/arm/arm-gnu-toolchain/bin/../lib/gcc/arm-none-eabi/5.3.1/../../../../arm-none-eabi/lib/armv6-m\libc_nano.a(lib_a-setbuf.o)
 .ARM.attributes
                0x00001221       0x2c c:/program files (x86)/atmel/studio/7.0/toolchain/arm/arm-gnu-toolchain/bin/../lib/gcc/arm-none-eabi/5.3.1/../../../../arm-none-eabi/lib/armv6-m\libc_nano.a(lib_a-setvbuf.o)
 .ARM.attributes
                0x0000124d       0x2c c:/program files (x86)/atmel/studio/7.0/toolchain/arm/arm-gnu-toolchain/bin/../lib/gcc/arm-none-eabi/5.3.1/../../../../arm-none-eabi/lib/armv6-m\libc_nano.a(lib_a-fflush.o)
 .ARM.attributes
                0x00001279       0x2c c:/program files (x86)/atmel/studio/7.0/toolchain/arm/arm-gnu-toolchain/bin/../lib/gcc/arm-none-eabi/5.3.1/../../../../arm-none-eabi/lib/armv6-m\libc_nano.a(lib_a-findfp.o)
 .ARM.attributes
                0x000012a5       0x2c c:/program files (x86)/atmel/studio/7.0/toolchain/arm/arm-gnu-toolchain/bin/../lib/gcc/arm-none-eabi/5.3.1/../../../../arm-none-eabi/lib/armv6-m\libc_nano.a(lib_a-fwalk.o)
 .ARM.attributes
                0x000012d1       0x2c c:/program files (x86)/atmel/studio/7.0/toolchain/arm/arm-gnu-toolchain/bin/../lib/gcc/arm-none-eabi/5.3.1/../../../../arm-none-eabi/lib/armv6-m\libc_nano.a(lib_a-makebuf.o)
 .ARM.attributes
                0x000012fd       0x2c c:/program files (x86)/atmel/studio/7.0/toolchain/arm/arm-gnu-toolchain/bin/../lib/gcc/arm-none-eabi/5.3.1/../../../../arm-none-eabi/lib/armv6-m\libc_nano.a(lib_a-reent.o)
 .ARM.attributes
                0x00001329       0x2c c:/program files (x86)/atmel/studio/7.0/toolchain/arm/arm-gnu-toolchain/bin/../lib/gcc/arm-none-eabi/5.3.1/../../../../arm-none-eabi/lib/armv6-m\libc_nano.a(lib_a-stdio.o)
 .ARM.attributes
                0x00001355       0x2c c:/program files (x86)/atmel/studio/7.0/toolchain/arm/arm-gnu-toolchain/bin/../lib/gcc/arm-none-eabi/5.3.1/../../../../arm-none-eabi/lib/armv6-m\libc_nano.a(lib_a-writer.o)
 .ARM.attributes
                0x00001381       0x2c c:/program files (x86)/atmel/studio/7.0/toolchain/arm/arm-gnu-toolchain/bin/../lib/gcc/arm-none-eabi/5.3.1/../../../../arm-none-eabi/lib/armv6-m\libc_nano.a(lib_a-closer.o)
 .ARM.attributes
                0x000013ad       0x2c c:/program files (x86)/atmel/studio/7.0/toolchain/arm/arm-gnu-toolchain/bin/../lib/gcc/arm-none-eabi/5.3.1/../../../../arm-none-eabi/lib/armv6-m\libc_nano.a(lib_a-fstatr.o)
 .ARM.attributes
                0x000013d9       0x2c c:/program files (x86)/atmel/studio/7.0/toolchain/arm/arm-gnu-toolchain/bin/../lib/gcc/arm-none-eabi/5.3.1/../../../../arm-none-eabi/lib/armv6-m\libc_nano.a(lib_a-lseekr.o)
 .ARM.attributes
                0x00001405       0x2c c:/program files (x86)/atmel/studio/7.0/toolchain/arm/arm-gnu-toolchain/bin/../lib/gcc/arm-none-eabi/5.3.1/../../../../arm-none-eabi/lib/armv6-m\libc_nano.a(lib_a-readr.o)
 .ARM.attributes
                0x00001431       0x1e c:/program files (x86)/atmel/studio/7.0/toolchain/arm/arm-gnu-toolchain/bin/../lib/gcc/arm-none-eabi/5.3.1/armv6-m/crtn.o

.comment        0x00000000       0xb4
 .comment       0x00000000       0x59 src/ASF/sam0/drivers/aon_sleep_timer/aon_sleep_timer.o
                                 0x5a (size before relaxing)
 .comment       0x00000059       0x5a src/ASF/sam0/drivers/i2c/i2c_master.o
 .comment       0x00000059       0x5a src/ASF/sam0/utils/cmsis/samb11/source/gcc/startup_samb11.o
 .comment       0x00000059       0x5a src/ASF/sam0/utils/syscalls/gcc/syscalls.o
 .comment       0x00000059       0x5a src/ASF/thirdparty/sensor/mpu9250_kriswiner/quaternion_ahrs.o
 .comment       0x00000059       0x5a src/sms_v_0_2/src/sms_ble.o
 .comment       0x00000059       0x5a src/sms_v_0_2/src/sms_button.o
 .comment       0x00000059       0x5a src/sms_v_0_2/src/sms_common.o
 .comment       0x00000059       0x5a src/sms_v_0_2/src/sms_i2c.o
 .comment       0x00000059       0x5a src/sms_v_0_2/src/sms_mpu.o
 .comment       0x00000059       0x5a src/sms_v_0_2/src/sms_led.o
 .comment       0x00000059       0x5a src/sms_v_0_2/src/sms_pressure.o
 .comment       0x00000059       0x5a src/sms_v_0_2/src/sms_sensors.o
 .comment       0x00000059       0x5a src/sms_v_0_2/src/sms_spi.o
 .comment       0x00000059       0x5a src/sms_v_0_2/src/sms_timer.o
 .comment       0x00000059       0x5a src/ASF/sam0/drivers/spi/spi.o
 .comment       0x00000059       0x5a src/ASF/sam0/drivers/dualtimer/dualtimer.o
 .comment       0x00000059       0x5a src/ASF/sam0/drivers/gpio/gpio.o
 .comment       0x00000059       0x5a src/ASF/sam0/drivers/system/system_sam_b.o
 .comment       0x00000059       0x5a src/ASF/sam0/drivers/uart/uart.o
 .comment       0x00000059       0x5a src/ASF/sam0/utils/stdio/read.o
 .comment       0x00000059       0x5a src/ASF/sam0/utils/stdio/write.o
 .comment       0x00000059       0x5a src/ASF/thirdparty/wireless/ble_smart_sdk/ble_services/ble_mgr/ble_manager.o
 .comment       0x00000059       0x5a src/ASF/thirdparty/wireless/ble_smart_sdk/services/uart/console_serial.o
 .comment       0x00000059       0x5a src/ASF/thirdparty/wireless/ble_smart_sdk/src/event_handler.o
 .comment       0x00000059       0x5a src/ASF/thirdparty/wireless/ble_smart_sdk/src/platform_drv.o
 .comment       0x00000059       0x5a src/ASF/thirdparty/wireless/ble_smart_sdk/src/port_from_sdk.o
 .comment       0x00000059       0x5a src/sms_peripheral1.o
 .comment       0x00000059       0x5b ../src/ASF/thirdparty/wireless/ble_smart_sdk/lib/cm0/gcc\libblusdk.a(event.o)
                                 0x5c (size before relaxing)
 .comment       0x000000b4       0x5c ../src/ASF/thirdparty/wireless/ble_smart_sdk/lib/cm0/gcc\libblusdk.a(gap.o)
 .comment       0x000000b4       0x5c ../src/ASF/thirdparty/wireless/ble_smart_sdk/lib/cm0/gcc\libblusdk.a(gatt_client.o)
 .comment       0x000000b4       0x5c ../src/ASF/thirdparty/wireless/ble_smart_sdk/lib/cm0/gcc\libblusdk.a(gatt_server.o)
 .comment       0x000000b4       0x5c ../src/ASF/thirdparty/wireless/ble_smart_sdk/lib/cm0/gcc\libblusdk.a(l2cc_task.o)
 .comment       0x000000b4       0x5c ../src/ASF/thirdparty/wireless/ble_smart_sdk/lib/cm0/gcc\libblusdk.a(security.o)
 .comment       0x000000b4       0x5c ../src/ASF/thirdparty/wireless/ble_smart_sdk/lib/cm0/gcc\libblusdk.a(interface.o)
 .comment       0x000000b4       0x5c ../src/ASF/thirdparty/wireless/ble_smart_sdk/lib/cm0/gcc\libblusdk.a(dbg_task.o)
 .comment       0x000000b4       0x5c ../src/ASF/thirdparty/wireless/ble_smart_sdk/lib/cm0/gcc\libblusdk.a(gapc_task.o)
 .comment       0x000000b4       0x5c ../src/ASF/thirdparty/wireless/ble_smart_sdk/lib/cm0/gcc\libblusdk.a(gapm_task.o)
 .comment       0x000000b4       0x5c ../src/ASF/thirdparty/wireless/ble_smart_sdk/lib/cm0/gcc\libblusdk.a(gattc_task.o)
 .comment       0x000000b4       0x5c ../src/ASF/thirdparty/wireless/ble_smart_sdk/lib/cm0/gcc\libblusdk.a(gattm_task.o)
 .comment       0x000000b4       0x5c ../src/ASF/thirdparty/wireless/ble_smart_sdk/lib/cm0/gcc\libblusdk.a(htpt_task.o)

.debug_frame    0x00000000      0xda4
 .debug_frame   0x00000000       0x3c c:/program files (x86)/atmel/studio/7.0/toolchain/arm/arm-gnu-toolchain/bin/../lib/gcc/arm-none-eabi/5.3.1/../../../../arm-none-eabi/lib/armv6-m\libm.a(lib_a-w_pow.o)
 .debug_frame   0x0000003c       0x30 c:/program files (x86)/atmel/studio/7.0/toolchain/arm/arm-gnu-toolchain/bin/../lib/gcc/arm-none-eabi/5.3.1/../../../../arm-none-eabi/lib/armv6-m\libm.a(lib_a-wf_sqrt.o)
 .debug_frame   0x0000006c       0x3c c:/program files (x86)/atmel/studio/7.0/toolchain/arm/arm-gnu-toolchain/bin/../lib/gcc/arm-none-eabi/5.3.1/../../../../arm-none-eabi/lib/armv6-m\libm.a(lib_a-e_pow.o)
 .debug_frame   0x000000a8       0x3c c:/program files (x86)/atmel/studio/7.0/toolchain/arm/arm-gnu-toolchain/bin/../lib/gcc/arm-none-eabi/5.3.1/../../../../arm-none-eabi/lib/armv6-m\libm.a(lib_a-e_sqrt.o)
 .debug_frame   0x000000e4       0x2c c:/program files (x86)/atmel/studio/7.0/toolchain/arm/arm-gnu-toolchain/bin/../lib/gcc/arm-none-eabi/5.3.1/../../../../arm-none-eabi/lib/armv6-m\libm.a(lib_a-ef_sqrt.o)
 .debug_frame   0x00000110       0x20 c:/program files (x86)/atmel/studio/7.0/toolchain/arm/arm-gnu-toolchain/bin/../lib/gcc/arm-none-eabi/5.3.1/../../../../arm-none-eabi/lib/armv6-m\libm.a(lib_a-s_fabs.o)
 .debug_frame   0x00000130       0x20 c:/program files (x86)/atmel/studio/7.0/toolchain/arm/arm-gnu-toolchain/bin/../lib/gcc/arm-none-eabi/5.3.1/../../../../arm-none-eabi/lib/armv6-m\libm.a(lib_a-s_finite.o)
 .debug_frame   0x00000150       0x20 c:/program files (x86)/atmel/studio/7.0/toolchain/arm/arm-gnu-toolchain/bin/../lib/gcc/arm-none-eabi/5.3.1/../../../../arm-none-eabi/lib/armv6-m\libm.a(lib_a-s_matherr.o)
 .debug_frame   0x00000170       0x20 c:/program files (x86)/atmel/studio/7.0/toolchain/arm/arm-gnu-toolchain/bin/../lib/gcc/arm-none-eabi/5.3.1/../../../../arm-none-eabi/lib/armv6-m\libm.a(lib_a-s_nan.o)
 .debug_frame   0x00000190       0x38 c:/program files (x86)/atmel/studio/7.0/toolchain/arm/arm-gnu-toolchain/bin/../lib/gcc/arm-none-eabi/5.3.1/../../../../arm-none-eabi/lib/armv6-m\libm.a(lib_a-s_rint.o)
 .debug_frame   0x000001c8       0x2c c:/program files (x86)/atmel/studio/7.0/toolchain/arm/arm-gnu-toolchain/bin/../lib/gcc/arm-none-eabi/5.3.1/../../../../arm-none-eabi/lib/armv6-m\libm.a(lib_a-s_scalbn.o)
 .debug_frame   0x000001f4       0x2c c:/program files (x86)/atmel/studio/7.0/toolchain/arm/arm-gnu-toolchain/bin/../lib/gcc/arm-none-eabi/5.3.1/../../../../arm-none-eabi/lib/armv6-m\libm.a(lib_a-s_copysign.o)
 .debug_frame   0x00000220       0x20 c:/program files (x86)/atmel/studio/7.0/toolchain/arm/arm-gnu-toolchain/bin/../lib/gcc/arm-none-eabi/5.3.1/armv6-m\libgcc.a(_udivsi3.o)
 .debug_frame   0x00000240       0x20 c:/program files (x86)/atmel/studio/7.0/toolchain/arm/arm-gnu-toolchain/bin/../lib/gcc/arm-none-eabi/5.3.1/armv6-m\libgcc.a(_divsi3.o)
 .debug_frame   0x00000260       0x34 c:/program files (x86)/atmel/studio/7.0/toolchain/arm/arm-gnu-toolchain/bin/../lib/gcc/arm-none-eabi/5.3.1/armv6-m\libgcc.a(_muldi3.o)
 .debug_frame   0x00000294       0x28 c:/program files (x86)/atmel/studio/7.0/toolchain/arm/arm-gnu-toolchain/bin/../lib/gcc/arm-none-eabi/5.3.1/armv6-m\libgcc.a(_fixunssfsi.o)
 .debug_frame   0x000002bc       0x2c c:/program files (x86)/atmel/studio/7.0/toolchain/arm/arm-gnu-toolchain/bin/../lib/gcc/arm-none-eabi/5.3.1/armv6-m\libgcc.a(_fixunsdfsi.o)
 .debug_frame   0x000002e8       0x30 c:/program files (x86)/atmel/studio/7.0/toolchain/arm/arm-gnu-toolchain/bin/../lib/gcc/arm-none-eabi/5.3.1/armv6-m\libgcc.a(addsf3.o)
 .debug_frame   0x00000318       0x3c c:/program files (x86)/atmel/studio/7.0/toolchain/arm/arm-gnu-toolchain/bin/../lib/gcc/arm-none-eabi/5.3.1/armv6-m\libgcc.a(divsf3.o)
 .debug_frame   0x00000354       0x2c c:/program files (x86)/atmel/studio/7.0/toolchain/arm/arm-gnu-toolchain/bin/../lib/gcc/arm-none-eabi/5.3.1/armv6-m\libgcc.a(eqsf2.o)
 .debug_frame   0x00000380       0x30 c:/program files (x86)/atmel/studio/7.0/toolchain/arm/arm-gnu-toolchain/bin/../lib/gcc/arm-none-eabi/5.3.1/armv6-m\libgcc.a(gesf2.o)
 .debug_frame   0x000003b0       0x30 c:/program files (x86)/atmel/studio/7.0/toolchain/arm/arm-gnu-toolchain/bin/../lib/gcc/arm-none-eabi/5.3.1/armv6-m\libgcc.a(lesf2.o)
 .debug_frame   0x000003e0       0x38 c:/program files (x86)/atmel/studio/7.0/toolchain/arm/arm-gnu-toolchain/bin/../lib/gcc/arm-none-eabi/5.3.1/armv6-m\libgcc.a(mulsf3.o)
 .debug_frame   0x00000418       0x30 c:/program files (x86)/atmel/studio/7.0/toolchain/arm/arm-gnu-toolchain/bin/../lib/gcc/arm-none-eabi/5.3.1/armv6-m\libgcc.a(subsf3.o)
 .debug_frame   0x00000448       0x20 c:/program files (x86)/atmel/studio/7.0/toolchain/arm/arm-gnu-toolchain/bin/../lib/gcc/arm-none-eabi/5.3.1/armv6-m\libgcc.a(unordsf2.o)
 .debug_frame   0x00000468       0x20 c:/program files (x86)/atmel/studio/7.0/toolchain/arm/arm-gnu-toolchain/bin/../lib/gcc/arm-none-eabi/5.3.1/armv6-m\libgcc.a(fixsfsi.o)
 .debug_frame   0x00000488       0x2c c:/program files (x86)/atmel/studio/7.0/toolchain/arm/arm-gnu-toolchain/bin/../lib/gcc/arm-none-eabi/5.3.1/armv6-m\libgcc.a(floatsisf.o)
 .debug_frame   0x000004b4       0x2c c:/program files (x86)/atmel/studio/7.0/toolchain/arm/arm-gnu-toolchain/bin/../lib/gcc/arm-none-eabi/5.3.1/armv6-m\libgcc.a(floatunsisf.o)
 .debug_frame   0x000004e0       0x3c c:/program files (x86)/atmel/studio/7.0/toolchain/arm/arm-gnu-toolchain/bin/../lib/gcc/arm-none-eabi/5.3.1/armv6-m\libgcc.a(adddf3.o)
 .debug_frame   0x0000051c       0x3c c:/program files (x86)/atmel/studio/7.0/toolchain/arm/arm-gnu-toolchain/bin/../lib/gcc/arm-none-eabi/5.3.1/armv6-m\libgcc.a(divdf3.o)
 .debug_frame   0x00000558       0x38 c:/program files (x86)/atmel/studio/7.0/toolchain/arm/arm-gnu-toolchain/bin/../lib/gcc/arm-none-eabi/5.3.1/armv6-m\libgcc.a(eqdf2.o)
 .debug_frame   0x00000590       0x38 c:/program files (x86)/atmel/studio/7.0/toolchain/arm/arm-gnu-toolchain/bin/../lib/gcc/arm-none-eabi/5.3.1/armv6-m\libgcc.a(gedf2.o)
 .debug_frame   0x000005c8       0x38 c:/program files (x86)/atmel/studio/7.0/toolchain/arm/arm-gnu-toolchain/bin/../lib/gcc/arm-none-eabi/5.3.1/armv6-m\libgcc.a(ledf2.o)
 .debug_frame   0x00000600       0x3c c:/program files (x86)/atmel/studio/7.0/toolchain/arm/arm-gnu-toolchain/bin/../lib/gcc/arm-none-eabi/5.3.1/armv6-m\libgcc.a(muldf3.o)
 .debug_frame   0x0000063c       0x38 c:/program files (x86)/atmel/studio/7.0/toolchain/arm/arm-gnu-toolchain/bin/../lib/gcc/arm-none-eabi/5.3.1/armv6-m\libgcc.a(subdf3.o)
 .debug_frame   0x00000674       0x2c c:/program files (x86)/atmel/studio/7.0/toolchain/arm/arm-gnu-toolchain/bin/../lib/gcc/arm-none-eabi/5.3.1/armv6-m\libgcc.a(unorddf2.o)
 .debug_frame   0x000006a0       0x2c c:/program files (x86)/atmel/studio/7.0/toolchain/arm/arm-gnu-toolchain/bin/../lib/gcc/arm-none-eabi/5.3.1/armv6-m\libgcc.a(fixdfsi.o)
 .debug_frame   0x000006cc       0x2c c:/program files (x86)/atmel/studio/7.0/toolchain/arm/arm-gnu-toolchain/bin/../lib/gcc/arm-none-eabi/5.3.1/armv6-m\libgcc.a(floatsidf.o)
 .debug_frame   0x000006f8       0x2c c:/program files (x86)/atmel/studio/7.0/toolchain/arm/arm-gnu-toolchain/bin/../lib/gcc/arm-none-eabi/5.3.1/armv6-m\libgcc.a(floatunsidf.o)
 .debug_frame   0x00000724       0x2c c:/program files (x86)/atmel/studio/7.0/toolchain/arm/arm-gnu-toolchain/bin/../lib/gcc/arm-none-eabi/5.3.1/armv6-m\libgcc.a(extendsfdf2.o)
 .debug_frame   0x00000750       0x2c c:/program files (x86)/atmel/studio/7.0/toolchain/arm/arm-gnu-toolchain/bin/../lib/gcc/arm-none-eabi/5.3.1/armv6-m\libgcc.a(truncdfsf2.o)
 .debug_frame   0x0000077c       0x20 c:/program files (x86)/atmel/studio/7.0/toolchain/arm/arm-gnu-toolchain/bin/../lib/gcc/arm-none-eabi/5.3.1/../../../../arm-none-eabi/lib/armv6-m\libc_nano.a(lib_a-errno.o)
 .debug_frame   0x0000079c       0x2c c:/program files (x86)/atmel/studio/7.0/toolchain/arm/arm-gnu-toolchain/bin/../lib/gcc/arm-none-eabi/5.3.1/../../../../arm-none-eabi/lib/armv6-m\libc_nano.a(lib_a-init.o)
 .debug_frame   0x000007c8       0x40 c:/program files (x86)/atmel/studio/7.0/toolchain/arm/arm-gnu-toolchain/bin/../lib/gcc/arm-none-eabi/5.3.1/../../../../arm-none-eabi/lib/armv6-m\libc_nano.a(lib_a-malloc.o)
 .debug_frame   0x00000808       0x2c c:/program files (x86)/atmel/studio/7.0/toolchain/arm/arm-gnu-toolchain/bin/../lib/gcc/arm-none-eabi/5.3.1/../../../../arm-none-eabi/lib/armv6-m\libc_nano.a(lib_a-memcmp.o)
 .debug_frame   0x00000834       0x28 c:/program files (x86)/atmel/studio/7.0/toolchain/arm/arm-gnu-toolchain/bin/../lib/gcc/arm-none-eabi/5.3.1/../../../../arm-none-eabi/lib/armv6-m\libc_nano.a(lib_a-memcpy-stub.o)
 .debug_frame   0x0000085c       0x20 c:/program files (x86)/atmel/studio/7.0/toolchain/arm/arm-gnu-toolchain/bin/../lib/gcc/arm-none-eabi/5.3.1/../../../../arm-none-eabi/lib/armv6-m\libc_nano.a(lib_a-memset.o)
 .debug_frame   0x0000087c       0x2c c:/program files (x86)/atmel/studio/7.0/toolchain/arm/arm-gnu-toolchain/bin/../lib/gcc/arm-none-eabi/5.3.1/../../../../arm-none-eabi/lib/armv6-m\libc_nano.a(lib_a-nano-freer.o)
 .debug_frame   0x000008a8       0x2c c:/program files (x86)/atmel/studio/7.0/toolchain/arm/arm-gnu-toolchain/bin/../lib/gcc/arm-none-eabi/5.3.1/../../../../arm-none-eabi/lib/armv6-m\libc_nano.a(lib_a-nano-mallocr.o)
 .debug_frame   0x000008d4       0x44 c:/program files (x86)/atmel/studio/7.0/toolchain/arm/arm-gnu-toolchain/bin/../lib/gcc/arm-none-eabi/5.3.1/../../../../arm-none-eabi/lib/armv6-m\libc_nano.a(lib_a-rand.o)
 .debug_frame   0x00000918       0x2c c:/program files (x86)/atmel/studio/7.0/toolchain/arm/arm-gnu-toolchain/bin/../lib/gcc/arm-none-eabi/5.3.1/../../../../arm-none-eabi/lib/armv6-m\libc_nano.a(lib_a-sbrkr.o)
 .debug_frame   0x00000944       0x28 c:/program files (x86)/atmel/studio/7.0/toolchain/arm/arm-gnu-toolchain/bin/../lib/gcc/arm-none-eabi/5.3.1/../../../../arm-none-eabi/lib/armv6-m\libc_nano.a(lib_a-setbuf.o)
 .debug_frame   0x0000096c       0x30 c:/program files (x86)/atmel/studio/7.0/toolchain/arm/arm-gnu-toolchain/bin/../lib/gcc/arm-none-eabi/5.3.1/../../../../arm-none-eabi/lib/armv6-m\libc_nano.a(lib_a-setvbuf.o)
 .debug_frame   0x0000099c       0x68 c:/program files (x86)/atmel/studio/7.0/toolchain/arm/arm-gnu-toolchain/bin/../lib/gcc/arm-none-eabi/5.3.1/../../../../arm-none-eabi/lib/armv6-m\libc_nano.a(lib_a-fflush.o)
 .debug_frame   0x00000a04      0x140 c:/program files (x86)/atmel/studio/7.0/toolchain/arm/arm-gnu-toolchain/bin/../lib/gcc/arm-none-eabi/5.3.1/../../../../arm-none-eabi/lib/armv6-m\libc_nano.a(lib_a-findfp.o)
 .debug_frame   0x00000b44       0x58 c:/program files (x86)/atmel/studio/7.0/toolchain/arm/arm-gnu-toolchain/bin/../lib/gcc/arm-none-eabi/5.3.1/../../../../arm-none-eabi/lib/armv6-m\libc_nano.a(lib_a-fwalk.o)
 .debug_frame   0x00000b9c       0x54 c:/program files (x86)/atmel/studio/7.0/toolchain/arm/arm-gnu-toolchain/bin/../lib/gcc/arm-none-eabi/5.3.1/../../../../arm-none-eabi/lib/armv6-m\libc_nano.a(lib_a-makebuf.o)
 .debug_frame   0x00000bf0       0x48 c:/program files (x86)/atmel/studio/7.0/toolchain/arm/arm-gnu-toolchain/bin/../lib/gcc/arm-none-eabi/5.3.1/../../../../arm-none-eabi/lib/armv6-m\libc_nano.a(lib_a-reent.o)
 .debug_frame   0x00000c38       0x90 c:/program files (x86)/atmel/studio/7.0/toolchain/arm/arm-gnu-toolchain/bin/../lib/gcc/arm-none-eabi/5.3.1/../../../../arm-none-eabi/lib/armv6-m\libc_nano.a(lib_a-stdio.o)
 .debug_frame   0x00000cc8       0x2c c:/program files (x86)/atmel/studio/7.0/toolchain/arm/arm-gnu-toolchain/bin/../lib/gcc/arm-none-eabi/5.3.1/../../../../arm-none-eabi/lib/armv6-m\libc_nano.a(lib_a-writer.o)
 .debug_frame   0x00000cf4       0x2c c:/program files (x86)/atmel/studio/7.0/toolchain/arm/arm-gnu-toolchain/bin/../lib/gcc/arm-none-eabi/5.3.1/../../../../arm-none-eabi/lib/armv6-m\libc_nano.a(lib_a-closer.o)
 .debug_frame   0x00000d20       0x2c c:/program files (x86)/atmel/studio/7.0/toolchain/arm/arm-gnu-toolchain/bin/../lib/gcc/arm-none-eabi/5.3.1/../../../../arm-none-eabi/lib/armv6-m\libc_nano.a(lib_a-fstatr.o)
 .debug_frame   0x00000d4c       0x2c c:/program files (x86)/atmel/studio/7.0/toolchain/arm/arm-gnu-toolchain/bin/../lib/gcc/arm-none-eabi/5.3.1/../../../../arm-none-eabi/lib/armv6-m\libc_nano.a(lib_a-lseekr.o)
 .debug_frame   0x00000d78       0x2c c:/program files (x86)/atmel/studio/7.0/toolchain/arm/arm-gnu-toolchain/bin/../lib/gcc/arm-none-eabi/5.3.1/../../../../arm-none-eabi/lib/armv6-m\libc_nano.a(lib_a-readr.o)

Cross Reference Table

Symbol                                            File
PORT1_COMB_Handler                                src/ASF/thirdparty/wireless/ble_smart_sdk/src/port_from_sdk.o
                                                  src/ASF/thirdparty/wireless/ble_smart_sdk/src/platform_drv.o
Seq_NUM                                           ../src/ASF/thirdparty/wireless/ble_smart_sdk/lib/cm0/gcc\libblusdk.a(gattc_task.o)
SystemCoreClock                                   src/ASF/sam0/utils/cmsis/samb11/source/system_samb11.o
SystemCoreClockUpdate                             src/ASF/sam0/utils/cmsis/samb11/source/system_samb11.o
SystemInit                                        src/ASF/sam0/utils/cmsis/samb11/source/system_samb11.o
_Jv_RegisterClasses                               c:/program files (x86)/atmel/studio/7.0/toolchain/arm/arm-gnu-toolchain/bin/../lib/gcc/arm-none-eabi/5.3.1/armv6-m/crtbegin.o
__aeabi_cdcmpeq                                   c:/program files (x86)/atmel/studio/7.0/toolchain/arm/arm-gnu-toolchain/bin/../lib/gcc/arm-none-eabi/5.3.1/armv6-m\libgcc.a(_arm_cmpdf2.o)
__aeabi_cdcmple                                   c:/program files (x86)/atmel/studio/7.0/toolchain/arm/arm-gnu-toolchain/bin/../lib/gcc/arm-none-eabi/5.3.1/armv6-m\libgcc.a(_arm_cmpdf2.o)
__aeabi_cdrcmple                                  c:/program files (x86)/atmel/studio/7.0/toolchain/arm/arm-gnu-toolchain/bin/../lib/gcc/arm-none-eabi/5.3.1/armv6-m\libgcc.a(_arm_cmpdf2.o)
__aeabi_cfcmpeq                                   c:/program files (x86)/atmel/studio/7.0/toolchain/arm/arm-gnu-toolchain/bin/../lib/gcc/arm-none-eabi/5.3.1/armv6-m\libgcc.a(_arm_cmpsf2.o)
__aeabi_cfcmple                                   c:/program files (x86)/atmel/studio/7.0/toolchain/arm/arm-gnu-toolchain/bin/../lib/gcc/arm-none-eabi/5.3.1/armv6-m\libgcc.a(_arm_cmpsf2.o)
__aeabi_cfrcmple                                  c:/program files (x86)/atmel/studio/7.0/toolchain/arm/arm-gnu-toolchain/bin/../lib/gcc/arm-none-eabi/5.3.1/armv6-m\libgcc.a(_arm_cmpsf2.o)
__aeabi_d2f                                       c:/program files (x86)/atmel/studio/7.0/toolchain/arm/arm-gnu-toolchain/bin/../lib/gcc/arm-none-eabi/5.3.1/armv6-m\libgcc.a(truncdfsf2.o)
                                                  c:/program files (x86)/atmel/studio/7.0/toolchain/arm/arm-gnu-toolchain/bin/../lib/gcc/arm-none-eabi/5.3.1/../../../../arm-none-eabi/lib/armv6-m\libm.a(lib_a-wf_sqrt.o)
                                                  src/sms_v_0_2/src/sms_mpu.o
                                                  src/ASF/thirdparty/sensor/mpu9250_kriswiner/quaternion_ahrs.o
__aeabi_d2iz                                      c:/program files (x86)/atmel/studio/7.0/toolchain/arm/arm-gnu-toolchain/bin/../lib/gcc/arm-none-eabi/5.3.1/armv6-m\libgcc.a(fixdfsi.o)
                                                  c:/program files (x86)/atmel/studio/7.0/toolchain/arm/arm-gnu-toolchain/bin/../lib/gcc/arm-none-eabi/5.3.1/armv6-m\libgcc.a(_fixunsdfsi.o)
__aeabi_d2uiz                                     c:/program files (x86)/atmel/studio/7.0/toolchain/arm/arm-gnu-toolchain/bin/../lib/gcc/arm-none-eabi/5.3.1/armv6-m\libgcc.a(_fixunsdfsi.o)
                                                  src/ASF/thirdparty/wireless/ble_smart_sdk/services/uart/console_serial.o
__aeabi_dadd                                      c:/program files (x86)/atmel/studio/7.0/toolchain/arm/arm-gnu-toolchain/bin/../lib/gcc/arm-none-eabi/5.3.1/armv6-m\libgcc.a(adddf3.o)
                                                  c:/program files (x86)/atmel/studio/7.0/toolchain/arm/arm-gnu-toolchain/bin/../lib/gcc/arm-none-eabi/5.3.1/../../../../arm-none-eabi/lib/armv6-m\libm.a(lib_a-s_scalbn.o)
                                                  c:/program files (x86)/atmel/studio/7.0/toolchain/arm/arm-gnu-toolchain/bin/../lib/gcc/arm-none-eabi/5.3.1/../../../../arm-none-eabi/lib/armv6-m\libm.a(lib_a-s_rint.o)
                                                  c:/program files (x86)/atmel/studio/7.0/toolchain/arm/arm-gnu-toolchain/bin/../lib/gcc/arm-none-eabi/5.3.1/../../../../arm-none-eabi/lib/armv6-m\libm.a(lib_a-e_sqrt.o)
                                                  c:/program files (x86)/atmel/studio/7.0/toolchain/arm/arm-gnu-toolchain/bin/../lib/gcc/arm-none-eabi/5.3.1/../../../../arm-none-eabi/lib/armv6-m\libm.a(lib_a-e_pow.o)
                                                  src/sms_v_0_2/src/sms_mpu.o
__aeabi_dcmpeq                                    c:/program files (x86)/atmel/studio/7.0/toolchain/arm/arm-gnu-toolchain/bin/../lib/gcc/arm-none-eabi/5.3.1/armv6-m\libgcc.a(_arm_cmpdf2.o)
                                                  c:/program files (x86)/atmel/studio/7.0/toolchain/arm/arm-gnu-toolchain/bin/../lib/gcc/arm-none-eabi/5.3.1/../../../../arm-none-eabi/lib/armv6-m\libm.a(lib_a-w_pow.o)
__aeabi_dcmpge                                    c:/program files (x86)/atmel/studio/7.0/toolchain/arm/arm-gnu-toolchain/bin/../lib/gcc/arm-none-eabi/5.3.1/armv6-m\libgcc.a(_arm_cmpdf2.o)
                                                  c:/program files (x86)/atmel/studio/7.0/toolchain/arm/arm-gnu-toolchain/bin/../lib/gcc/arm-none-eabi/5.3.1/armv6-m\libgcc.a(_fixunsdfsi.o)
__aeabi_dcmpgt                                    c:/program files (x86)/atmel/studio/7.0/toolchain/arm/arm-gnu-toolchain/bin/../lib/gcc/arm-none-eabi/5.3.1/armv6-m\libgcc.a(_arm_cmpdf2.o)
                                                  c:/program files (x86)/atmel/studio/7.0/toolchain/arm/arm-gnu-toolchain/bin/../lib/gcc/arm-none-eabi/5.3.1/../../../../arm-none-eabi/lib/armv6-m\libm.a(lib_a-e_pow.o)
__aeabi_dcmple                                    c:/program files (x86)/atmel/studio/7.0/toolchain/arm/arm-gnu-toolchain/bin/../lib/gcc/arm-none-eabi/5.3.1/armv6-m\libgcc.a(_arm_cmpdf2.o)
                                                  c:/program files (x86)/atmel/studio/7.0/toolchain/arm/arm-gnu-toolchain/bin/../lib/gcc/arm-none-eabi/5.3.1/../../../../arm-none-eabi/lib/armv6-m\libm.a(lib_a-e_pow.o)
__aeabi_dcmplt                                    c:/program files (x86)/atmel/studio/7.0/toolchain/arm/arm-gnu-toolchain/bin/../lib/gcc/arm-none-eabi/5.3.1/armv6-m\libgcc.a(_arm_cmpdf2.o)
                                                  c:/program files (x86)/atmel/studio/7.0/toolchain/arm/arm-gnu-toolchain/bin/../lib/gcc/arm-none-eabi/5.3.1/../../../../arm-none-eabi/lib/armv6-m\libm.a(lib_a-w_pow.o)
__aeabi_dcmpun                                    c:/program files (x86)/atmel/studio/7.0/toolchain/arm/arm-gnu-toolchain/bin/../lib/gcc/arm-none-eabi/5.3.1/armv6-m\libgcc.a(unorddf2.o)
                                                  c:/program files (x86)/atmel/studio/7.0/toolchain/arm/arm-gnu-toolchain/bin/../lib/gcc/arm-none-eabi/5.3.1/../../../../arm-none-eabi/lib/armv6-m\libm.a(lib_a-w_pow.o)
__aeabi_ddiv                                      c:/program files (x86)/atmel/studio/7.0/toolchain/arm/arm-gnu-toolchain/bin/../lib/gcc/arm-none-eabi/5.3.1/armv6-m\libgcc.a(divdf3.o)
                                                  c:/program files (x86)/atmel/studio/7.0/toolchain/arm/arm-gnu-toolchain/bin/../lib/gcc/arm-none-eabi/5.3.1/../../../../arm-none-eabi/lib/armv6-m\libm.a(lib_a-e_sqrt.o)
                                                  c:/program files (x86)/atmel/studio/7.0/toolchain/arm/arm-gnu-toolchain/bin/../lib/gcc/arm-none-eabi/5.3.1/../../../../arm-none-eabi/lib/armv6-m\libm.a(lib_a-e_pow.o)
                                                  c:/program files (x86)/atmel/studio/7.0/toolchain/arm/arm-gnu-toolchain/bin/../lib/gcc/arm-none-eabi/5.3.1/../../../../arm-none-eabi/lib/armv6-m\libm.a(lib_a-wf_sqrt.o)
                                                  c:/program files (x86)/atmel/studio/7.0/toolchain/arm/arm-gnu-toolchain/bin/../lib/gcc/arm-none-eabi/5.3.1/../../../../arm-none-eabi/lib/armv6-m\libm.a(lib_a-w_pow.o)
                                                  src/sms_v_0_2/src/sms_mpu.o
__aeabi_dmul                                      c:/program files (x86)/atmel/studio/7.0/toolchain/arm/arm-gnu-toolchain/bin/../lib/gcc/arm-none-eabi/5.3.1/armv6-m\libgcc.a(muldf3.o)
                                                  c:/program files (x86)/atmel/studio/7.0/toolchain/arm/arm-gnu-toolchain/bin/../lib/gcc/arm-none-eabi/5.3.1/../../../../arm-none-eabi/lib/armv6-m\libm.a(lib_a-s_scalbn.o)
                                                  c:/program files (x86)/atmel/studio/7.0/toolchain/arm/arm-gnu-toolchain/bin/../lib/gcc/arm-none-eabi/5.3.1/../../../../arm-none-eabi/lib/armv6-m\libm.a(lib_a-e_sqrt.o)
                                                  c:/program files (x86)/atmel/studio/7.0/toolchain/arm/arm-gnu-toolchain/bin/../lib/gcc/arm-none-eabi/5.3.1/../../../../arm-none-eabi/lib/armv6-m\libm.a(lib_a-e_pow.o)
                                                  c:/program files (x86)/atmel/studio/7.0/toolchain/arm/arm-gnu-toolchain/bin/../lib/gcc/arm-none-eabi/5.3.1/../../../../arm-none-eabi/lib/armv6-m\libm.a(lib_a-w_pow.o)
                                                  src/ASF/thirdparty/wireless/ble_smart_sdk/services/uart/console_serial.o
                                                  src/sms_v_0_2/src/sms_mpu.o
                                                  src/ASF/thirdparty/sensor/mpu9250_kriswiner/quaternion_ahrs.o
__aeabi_dsub                                      c:/program files (x86)/atmel/studio/7.0/toolchain/arm/arm-gnu-toolchain/bin/../lib/gcc/arm-none-eabi/5.3.1/armv6-m\libgcc.a(subdf3.o)
                                                  c:/program files (x86)/atmel/studio/7.0/toolchain/arm/arm-gnu-toolchain/bin/../lib/gcc/arm-none-eabi/5.3.1/armv6-m\libgcc.a(_fixunsdfsi.o)
                                                  c:/program files (x86)/atmel/studio/7.0/toolchain/arm/arm-gnu-toolchain/bin/../lib/gcc/arm-none-eabi/5.3.1/../../../../arm-none-eabi/lib/armv6-m\libm.a(lib_a-s_rint.o)
                                                  c:/program files (x86)/atmel/studio/7.0/toolchain/arm/arm-gnu-toolchain/bin/../lib/gcc/arm-none-eabi/5.3.1/../../../../arm-none-eabi/lib/armv6-m\libm.a(lib_a-e_sqrt.o)
                                                  c:/program files (x86)/atmel/studio/7.0/toolchain/arm/arm-gnu-toolchain/bin/../lib/gcc/arm-none-eabi/5.3.1/../../../../arm-none-eabi/lib/armv6-m\libm.a(lib_a-e_pow.o)
                                                  src/sms_v_0_2/src/sms_mpu.o
                                                  src/ASF/thirdparty/sensor/mpu9250_kriswiner/quaternion_ahrs.o
__aeabi_f2d                                       c:/program files (x86)/atmel/studio/7.0/toolchain/arm/arm-gnu-toolchain/bin/../lib/gcc/arm-none-eabi/5.3.1/armv6-m\libgcc.a(extendsfdf2.o)
                                                  c:/program files (x86)/atmel/studio/7.0/toolchain/arm/arm-gnu-toolchain/bin/../lib/gcc/arm-none-eabi/5.3.1/../../../../arm-none-eabi/lib/armv6-m\libm.a(lib_a-wf_sqrt.o)
                                                  src/sms_v_0_2/src/sms_mpu.o
                                                  src/ASF/thirdparty/sensor/mpu9250_kriswiner/quaternion_ahrs.o
__aeabi_f2iz                                      c:/program files (x86)/atmel/studio/7.0/toolchain/arm/arm-gnu-toolchain/bin/../lib/gcc/arm-none-eabi/5.3.1/armv6-m\libgcc.a(fixsfsi.o)
                                                  c:/program files (x86)/atmel/studio/7.0/toolchain/arm/arm-gnu-toolchain/bin/../lib/gcc/arm-none-eabi/5.3.1/armv6-m\libgcc.a(_fixunssfsi.o)
__aeabi_f2uiz                                     c:/program files (x86)/atmel/studio/7.0/toolchain/arm/arm-gnu-toolchain/bin/../lib/gcc/arm-none-eabi/5.3.1/armv6-m\libgcc.a(_fixunssfsi.o)
                                                  src/sms_v_0_2/src/sms_ble.o
__aeabi_fadd                                      c:/program files (x86)/atmel/studio/7.0/toolchain/arm/arm-gnu-toolchain/bin/../lib/gcc/arm-none-eabi/5.3.1/armv6-m\libgcc.a(addsf3.o)
                                                  c:/program files (x86)/atmel/studio/7.0/toolchain/arm/arm-gnu-toolchain/bin/../lib/gcc/arm-none-eabi/5.3.1/../../../../arm-none-eabi/lib/armv6-m\libm.a(lib_a-ef_sqrt.o)
                                                  src/ASF/thirdparty/sensor/mpu9250_kriswiner/quaternion_ahrs.o
__aeabi_fcmpeq                                    c:/program files (x86)/atmel/studio/7.0/toolchain/arm/arm-gnu-toolchain/bin/../lib/gcc/arm-none-eabi/5.3.1/armv6-m\libgcc.a(_arm_cmpsf2.o)
                                                  src/ASF/thirdparty/sensor/mpu9250_kriswiner/quaternion_ahrs.o
__aeabi_fcmpge                                    c:/program files (x86)/atmel/studio/7.0/toolchain/arm/arm-gnu-toolchain/bin/../lib/gcc/arm-none-eabi/5.3.1/armv6-m\libgcc.a(_arm_cmpsf2.o)
                                                  c:/program files (x86)/atmel/studio/7.0/toolchain/arm/arm-gnu-toolchain/bin/../lib/gcc/arm-none-eabi/5.3.1/armv6-m\libgcc.a(_fixunssfsi.o)
__aeabi_fcmpgt                                    c:/program files (x86)/atmel/studio/7.0/toolchain/arm/arm-gnu-toolchain/bin/../lib/gcc/arm-none-eabi/5.3.1/armv6-m\libgcc.a(_arm_cmpsf2.o)
__aeabi_fcmple                                    c:/program files (x86)/atmel/studio/7.0/toolchain/arm/arm-gnu-toolchain/bin/../lib/gcc/arm-none-eabi/5.3.1/armv6-m\libgcc.a(_arm_cmpsf2.o)
__aeabi_fcmplt                                    c:/program files (x86)/atmel/studio/7.0/toolchain/arm/arm-gnu-toolchain/bin/../lib/gcc/arm-none-eabi/5.3.1/armv6-m\libgcc.a(_arm_cmpsf2.o)
                                                  c:/program files (x86)/atmel/studio/7.0/toolchain/arm/arm-gnu-toolchain/bin/../lib/gcc/arm-none-eabi/5.3.1/../../../../arm-none-eabi/lib/armv6-m\libm.a(lib_a-wf_sqrt.o)
__aeabi_fcmpun                                    c:/program files (x86)/atmel/studio/7.0/toolchain/arm/arm-gnu-toolchain/bin/../lib/gcc/arm-none-eabi/5.3.1/armv6-m\libgcc.a(unordsf2.o)
                                                  c:/program files (x86)/atmel/studio/7.0/toolchain/arm/arm-gnu-toolchain/bin/../lib/gcc/arm-none-eabi/5.3.1/../../../../arm-none-eabi/lib/armv6-m\libm.a(lib_a-wf_sqrt.o)
__aeabi_fdiv                                      c:/program files (x86)/atmel/studio/7.0/toolchain/arm/arm-gnu-toolchain/bin/../lib/gcc/arm-none-eabi/5.3.1/armv6-m\libgcc.a(divsf3.o)
                                                  c:/program files (x86)/atmel/studio/7.0/toolchain/arm/arm-gnu-toolchain/bin/../lib/gcc/arm-none-eabi/5.3.1/../../../../arm-none-eabi/lib/armv6-m\libm.a(lib_a-ef_sqrt.o)
                                                  src/sms_v_0_2/src/sms_mpu.o
                                                  src/ASF/thirdparty/sensor/mpu9250_kriswiner/quaternion_ahrs.o
__aeabi_fmul                                      c:/program files (x86)/atmel/studio/7.0/toolchain/arm/arm-gnu-toolchain/bin/../lib/gcc/arm-none-eabi/5.3.1/armv6-m\libgcc.a(mulsf3.o)
                                                  c:/program files (x86)/atmel/studio/7.0/toolchain/arm/arm-gnu-toolchain/bin/../lib/gcc/arm-none-eabi/5.3.1/../../../../arm-none-eabi/lib/armv6-m\libm.a(lib_a-ef_sqrt.o)
                                                  ../src/ASF/thirdparty/wireless/ble_smart_sdk/lib/cm0/gcc\libblusdk.a(calib_task.o)
                                                  src/sms_v_0_2/src/sms_mpu.o
                                                  src/sms_v_0_2/src/sms_ble.o
                                                  src/ASF/thirdparty/sensor/mpu9250_kriswiner/quaternion_ahrs.o
__aeabi_fsub                                      c:/program files (x86)/atmel/studio/7.0/toolchain/arm/arm-gnu-toolchain/bin/../lib/gcc/arm-none-eabi/5.3.1/armv6-m\libgcc.a(subsf3.o)
                                                  c:/program files (x86)/atmel/studio/7.0/toolchain/arm/arm-gnu-toolchain/bin/../lib/gcc/arm-none-eabi/5.3.1/armv6-m\libgcc.a(_fixunssfsi.o)
                                                  c:/program files (x86)/atmel/studio/7.0/toolchain/arm/arm-gnu-toolchain/bin/../lib/gcc/arm-none-eabi/5.3.1/../../../../arm-none-eabi/lib/armv6-m\libm.a(lib_a-ef_sqrt.o)
                                                  src/sms_v_0_2/src/sms_mpu.o
                                                  src/ASF/thirdparty/sensor/mpu9250_kriswiner/quaternion_ahrs.o
__aeabi_i2d                                       c:/program files (x86)/atmel/studio/7.0/toolchain/arm/arm-gnu-toolchain/bin/../lib/gcc/arm-none-eabi/5.3.1/armv6-m\libgcc.a(floatsidf.o)
                                                  c:/program files (x86)/atmel/studio/7.0/toolchain/arm/arm-gnu-toolchain/bin/../lib/gcc/arm-none-eabi/5.3.1/../../../../arm-none-eabi/lib/armv6-m\libm.a(lib_a-e_pow.o)
__aeabi_i2f                                       c:/program files (x86)/atmel/studio/7.0/toolchain/arm/arm-gnu-toolchain/bin/../lib/gcc/arm-none-eabi/5.3.1/armv6-m\libgcc.a(floatsisf.o)
                                                  src/sms_v_0_2/src/sms_mpu.o
__aeabi_idiv                                      c:/program files (x86)/atmel/studio/7.0/toolchain/arm/arm-gnu-toolchain/bin/../lib/gcc/arm-none-eabi/5.3.1/armv6-m\libgcc.a(_divsi3.o)
                                                  src/sms_v_0_2/src/sms_mpu.o
__aeabi_idiv0                                     c:/program files (x86)/atmel/studio/7.0/toolchain/arm/arm-gnu-toolchain/bin/../lib/gcc/arm-none-eabi/5.3.1/armv6-m\libgcc.a(_dvmd_tls.o)
                                                  c:/program files (x86)/atmel/studio/7.0/toolchain/arm/arm-gnu-toolchain/bin/../lib/gcc/arm-none-eabi/5.3.1/armv6-m\libgcc.a(_divsi3.o)
                                                  c:/program files (x86)/atmel/studio/7.0/toolchain/arm/arm-gnu-toolchain/bin/../lib/gcc/arm-none-eabi/5.3.1/armv6-m\libgcc.a(_udivsi3.o)
__aeabi_idivmod                                   c:/program files (x86)/atmel/studio/7.0/toolchain/arm/arm-gnu-toolchain/bin/../lib/gcc/arm-none-eabi/5.3.1/armv6-m\libgcc.a(_divsi3.o)
__aeabi_ldiv0                                     c:/program files (x86)/atmel/studio/7.0/toolchain/arm/arm-gnu-toolchain/bin/../lib/gcc/arm-none-eabi/5.3.1/armv6-m\libgcc.a(_dvmd_tls.o)
__aeabi_lmul                                      c:/program files (x86)/atmel/studio/7.0/toolchain/arm/arm-gnu-toolchain/bin/../lib/gcc/arm-none-eabi/5.3.1/armv6-m\libgcc.a(_muldi3.o)
                                                  c:/program files (x86)/atmel/studio/7.0/toolchain/arm/arm-gnu-toolchain/bin/../lib/gcc/arm-none-eabi/5.3.1/../../../../arm-none-eabi/lib/armv6-m\libc_nano.a(lib_a-rand.o)
                                                  src/sms_v_0_2/src/sms_pressure.o
__aeabi_ui2d                                      c:/program files (x86)/atmel/studio/7.0/toolchain/arm/arm-gnu-toolchain/bin/../lib/gcc/arm-none-eabi/5.3.1/armv6-m\libgcc.a(floatunsidf.o)
                                                  src/ASF/thirdparty/wireless/ble_smart_sdk/services/uart/console_serial.o
__aeabi_ui2f                                      c:/program files (x86)/atmel/studio/7.0/toolchain/arm/arm-gnu-toolchain/bin/../lib/gcc/arm-none-eabi/5.3.1/armv6-m\libgcc.a(floatunsisf.o)
                                                  ../src/ASF/thirdparty/wireless/ble_smart_sdk/lib/cm0/gcc\libblusdk.a(calib_task.o)
                                                  src/sms_v_0_2/src/sms_mpu.o
__aeabi_uidiv                                     c:/program files (x86)/atmel/studio/7.0/toolchain/arm/arm-gnu-toolchain/bin/../lib/gcc/arm-none-eabi/5.3.1/armv6-m\libgcc.a(_udivsi3.o)
                                                  c:/program files (x86)/atmel/studio/7.0/toolchain/arm/arm-gnu-toolchain/bin/../lib/gcc/arm-none-eabi/5.3.1/armv6-m\libgcc.a(divdf3.o)
                                                  ../src/ASF/thirdparty/wireless/ble_smart_sdk/lib/cm0/gcc\libblusdk.a(gattm_task.o)
                                                  src/ASF/sam0/drivers/uart/uart.o
                                                  src/sms_v_0_2/src/sms_mpu.o
__aeabi_uidivmod                                  c:/program files (x86)/atmel/studio/7.0/toolchain/arm/arm-gnu-toolchain/bin/../lib/gcc/arm-none-eabi/5.3.1/armv6-m\libgcc.a(_udivsi3.o)
                                                  c:/program files (x86)/atmel/studio/7.0/toolchain/arm/arm-gnu-toolchain/bin/../lib/gcc/arm-none-eabi/5.3.1/armv6-m\libgcc.a(divdf3.o)
__bss_end__                                       c:/program files (x86)/atmel/studio/7.0/toolchain/arm/arm-gnu-toolchain/bin/../lib/gcc/arm-none-eabi/5.3.1/../../../../arm-none-eabi/lib/armv6-m/crt0.o
__bss_start__                                     c:/program files (x86)/atmel/studio/7.0/toolchain/arm/arm-gnu-toolchain/bin/../lib/gcc/arm-none-eabi/5.3.1/../../../../arm-none-eabi/lib/armv6-m/crt0.o
__call_exitprocs                                  c:/program files (x86)/atmel/studio/7.0/toolchain/arm/arm-gnu-toolchain/bin/../lib/gcc/arm-none-eabi/5.3.1/../../../../arm-none-eabi/lib/armv6-m\libc_nano.a(lib_a-exit.o)
__clzsi2                                          c:/program files (x86)/atmel/studio/7.0/toolchain/arm/arm-gnu-toolchain/bin/../lib/gcc/arm-none-eabi/5.3.1/armv6-m\libgcc.a(_clzsi2.o)
                                                  c:/program files (x86)/atmel/studio/7.0/toolchain/arm/arm-gnu-toolchain/bin/../lib/gcc/arm-none-eabi/5.3.1/armv6-m\libgcc.a(extendsfdf2.o)
                                                  c:/program files (x86)/atmel/studio/7.0/toolchain/arm/arm-gnu-toolchain/bin/../lib/gcc/arm-none-eabi/5.3.1/armv6-m\libgcc.a(floatunsidf.o)
                                                  c:/program files (x86)/atmel/studio/7.0/toolchain/arm/arm-gnu-toolchain/bin/../lib/gcc/arm-none-eabi/5.3.1/armv6-m\libgcc.a(floatsidf.o)
                                                  c:/program files (x86)/atmel/studio/7.0/toolchain/arm/arm-gnu-toolchain/bin/../lib/gcc/arm-none-eabi/5.3.1/armv6-m\libgcc.a(subdf3.o)
                                                  c:/program files (x86)/atmel/studio/7.0/toolchain/arm/arm-gnu-toolchain/bin/../lib/gcc/arm-none-eabi/5.3.1/armv6-m\libgcc.a(muldf3.o)
                                                  c:/program files (x86)/atmel/studio/7.0/toolchain/arm/arm-gnu-toolchain/bin/../lib/gcc/arm-none-eabi/5.3.1/armv6-m\libgcc.a(divdf3.o)
                                                  c:/program files (x86)/atmel/studio/7.0/toolchain/arm/arm-gnu-toolchain/bin/../lib/gcc/arm-none-eabi/5.3.1/armv6-m\libgcc.a(adddf3.o)
                                                  c:/program files (x86)/atmel/studio/7.0/toolchain/arm/arm-gnu-toolchain/bin/../lib/gcc/arm-none-eabi/5.3.1/armv6-m\libgcc.a(floatunsisf.o)
                                                  c:/program files (x86)/atmel/studio/7.0/toolchain/arm/arm-gnu-toolchain/bin/../lib/gcc/arm-none-eabi/5.3.1/armv6-m\libgcc.a(floatsisf.o)
                                                  c:/program files (x86)/atmel/studio/7.0/toolchain/arm/arm-gnu-toolchain/bin/../lib/gcc/arm-none-eabi/5.3.1/armv6-m\libgcc.a(subsf3.o)
                                                  c:/program files (x86)/atmel/studio/7.0/toolchain/arm/arm-gnu-toolchain/bin/../lib/gcc/arm-none-eabi/5.3.1/armv6-m\libgcc.a(mulsf3.o)
                                                  c:/program files (x86)/atmel/studio/7.0/toolchain/arm/arm-gnu-toolchain/bin/../lib/gcc/arm-none-eabi/5.3.1/armv6-m\libgcc.a(divsf3.o)
                                                  c:/program files (x86)/atmel/studio/7.0/toolchain/arm/arm-gnu-toolchain/bin/../lib/gcc/arm-none-eabi/5.3.1/armv6-m\libgcc.a(addsf3.o)
__deregister_frame_info                           c:/program files (x86)/atmel/studio/7.0/toolchain/arm/arm-gnu-toolchain/bin/../lib/gcc/arm-none-eabi/5.3.1/armv6-m/crtbegin.o
__divsi3                                          c:/program files (x86)/atmel/studio/7.0/toolchain/arm/arm-gnu-toolchain/bin/../lib/gcc/arm-none-eabi/5.3.1/armv6-m\libgcc.a(_divsi3.o)
__dso_handle                                      c:/program files (x86)/atmel/studio/7.0/toolchain/arm/arm-gnu-toolchain/bin/../lib/gcc/arm-none-eabi/5.3.1/armv6-m/crtbegin.o
__eqdf2                                           c:/program files (x86)/atmel/studio/7.0/toolchain/arm/arm-gnu-toolchain/bin/../lib/gcc/arm-none-eabi/5.3.1/armv6-m\libgcc.a(eqdf2.o)
                                                  c:/program files (x86)/atmel/studio/7.0/toolchain/arm/arm-gnu-toolchain/bin/../lib/gcc/arm-none-eabi/5.3.1/armv6-m\libgcc.a(_arm_cmpdf2.o)
__eqsf2                                           c:/program files (x86)/atmel/studio/7.0/toolchain/arm/arm-gnu-toolchain/bin/../lib/gcc/arm-none-eabi/5.3.1/armv6-m\libgcc.a(eqsf2.o)
                                                  c:/program files (x86)/atmel/studio/7.0/toolchain/arm/arm-gnu-toolchain/bin/../lib/gcc/arm-none-eabi/5.3.1/armv6-m\libgcc.a(_arm_cmpsf2.o)
__errno                                           c:/program files (x86)/atmel/studio/7.0/toolchain/arm/arm-gnu-toolchain/bin/../lib/gcc/arm-none-eabi/5.3.1/../../../../arm-none-eabi/lib/armv6-m\libc_nano.a(lib_a-errno.o)
                                                  c:/program files (x86)/atmel/studio/7.0/toolchain/arm/arm-gnu-toolchain/bin/../lib/gcc/arm-none-eabi/5.3.1/../../../../arm-none-eabi/lib/armv6-m\libm.a(lib_a-wf_sqrt.o)
                                                  c:/program files (x86)/atmel/studio/7.0/toolchain/arm/arm-gnu-toolchain/bin/../lib/gcc/arm-none-eabi/5.3.1/../../../../arm-none-eabi/lib/armv6-m\libm.a(lib_a-w_pow.o)
__fdlib_version                                   c:/program files (x86)/atmel/studio/7.0/toolchain/arm/arm-gnu-toolchain/bin/../lib/gcc/arm-none-eabi/5.3.1/../../../../arm-none-eabi/lib/armv6-m\libm.a(lib_a-s_lib_ver.o)
                                                  c:/program files (x86)/atmel/studio/7.0/toolchain/arm/arm-gnu-toolchain/bin/../lib/gcc/arm-none-eabi/5.3.1/../../../../arm-none-eabi/lib/armv6-m\libm.a(lib_a-wf_sqrt.o)
                                                  c:/program files (x86)/atmel/studio/7.0/toolchain/arm/arm-gnu-toolchain/bin/../lib/gcc/arm-none-eabi/5.3.1/../../../../arm-none-eabi/lib/armv6-m\libm.a(lib_a-w_pow.o)
__fixunsdfsi                                      c:/program files (x86)/atmel/studio/7.0/toolchain/arm/arm-gnu-toolchain/bin/../lib/gcc/arm-none-eabi/5.3.1/armv6-m\libgcc.a(_fixunsdfsi.o)
__fixunssfsi                                      c:/program files (x86)/atmel/studio/7.0/toolchain/arm/arm-gnu-toolchain/bin/../lib/gcc/arm-none-eabi/5.3.1/armv6-m\libgcc.a(_fixunssfsi.o)
__fp_lock_all                                     c:/program files (x86)/atmel/studio/7.0/toolchain/arm/arm-gnu-toolchain/bin/../lib/gcc/arm-none-eabi/5.3.1/../../../../arm-none-eabi/lib/armv6-m\libc_nano.a(lib_a-findfp.o)
__fp_unlock_all                                   c:/program files (x86)/atmel/studio/7.0/toolchain/arm/arm-gnu-toolchain/bin/../lib/gcc/arm-none-eabi/5.3.1/../../../../arm-none-eabi/lib/armv6-m\libc_nano.a(lib_a-findfp.o)
__gedf2                                           c:/program files (x86)/atmel/studio/7.0/toolchain/arm/arm-gnu-toolchain/bin/../lib/gcc/arm-none-eabi/5.3.1/armv6-m\libgcc.a(gedf2.o)
                                                  c:/program files (x86)/atmel/studio/7.0/toolchain/arm/arm-gnu-toolchain/bin/../lib/gcc/arm-none-eabi/5.3.1/armv6-m\libgcc.a(_arm_cmpdf2.o)
__gesf2                                           c:/program files (x86)/atmel/studio/7.0/toolchain/arm/arm-gnu-toolchain/bin/../lib/gcc/arm-none-eabi/5.3.1/armv6-m\libgcc.a(gesf2.o)
                                                  c:/program files (x86)/atmel/studio/7.0/toolchain/arm/arm-gnu-toolchain/bin/../lib/gcc/arm-none-eabi/5.3.1/armv6-m\libgcc.a(_arm_cmpsf2.o)
__gnu_thumb1_case_sqi                             c:/program files (x86)/atmel/studio/7.0/toolchain/arm/arm-gnu-toolchain/bin/../lib/gcc/arm-none-eabi/5.3.1/armv6-m\libgcc.a(_thumb1_case_sqi.o)
                                                  ../src/ASF/thirdparty/wireless/ble_smart_sdk/lib/cm0/gcc\libblusdk.a(gap.o)
__gnu_thumb1_case_uhi                             c:/program files (x86)/atmel/studio/7.0/toolchain/arm/arm-gnu-toolchain/bin/../lib/gcc/arm-none-eabi/5.3.1/armv6-m\libgcc.a(_thumb1_case_uhi.o)
                                                  src/ASF/sam0/drivers/system/system_sam_b.o
__gnu_thumb1_case_uqi                             c:/program files (x86)/atmel/studio/7.0/toolchain/arm/arm-gnu-toolchain/bin/../lib/gcc/arm-none-eabi/5.3.1/armv6-m\libgcc.a(_thumb1_case_uqi.o)
                                                  ../src/ASF/thirdparty/wireless/ble_smart_sdk/lib/cm0/gcc\libblusdk.a(gattc_task.o)
                                                  ../src/ASF/thirdparty/wireless/ble_smart_sdk/lib/cm0/gcc\libblusdk.a(gapm_task.o)
                                                  ../src/ASF/thirdparty/wireless/ble_smart_sdk/lib/cm0/gcc\libblusdk.a(gapc_task.o)
                                                  ../src/ASF/thirdparty/wireless/ble_smart_sdk/lib/cm0/gcc\libblusdk.a(gap.o)
                                                  src/ASF/sam0/drivers/uart/uart.o
                                                  src/ASF/sam0/drivers/system/system_sam_b.o
                                                  src/ASF/sam0/drivers/gpio/gpio.o
                                                  src/ASF/sam0/drivers/spi/spi.o
                                                  src/sms_v_0_2/src/sms_mpu.o
                                                  src/sms_v_0_2/src/sms_button.o
                                                  src/sms_v_0_2/src/sms_ble.o
__gtdf2                                           c:/program files (x86)/atmel/studio/7.0/toolchain/arm/arm-gnu-toolchain/bin/../lib/gcc/arm-none-eabi/5.3.1/armv6-m\libgcc.a(gedf2.o)
__gtsf2                                           c:/program files (x86)/atmel/studio/7.0/toolchain/arm/arm-gnu-toolchain/bin/../lib/gcc/arm-none-eabi/5.3.1/armv6-m\libgcc.a(gesf2.o)
__ieee754_pow                                     c:/program files (x86)/atmel/studio/7.0/toolchain/arm/arm-gnu-toolchain/bin/../lib/gcc/arm-none-eabi/5.3.1/../../../../arm-none-eabi/lib/armv6-m\libm.a(lib_a-e_pow.o)
                                                  c:/program files (x86)/atmel/studio/7.0/toolchain/arm/arm-gnu-toolchain/bin/../lib/gcc/arm-none-eabi/5.3.1/../../../../arm-none-eabi/lib/armv6-m\libm.a(lib_a-w_pow.o)
__ieee754_sqrt                                    c:/program files (x86)/atmel/studio/7.0/toolchain/arm/arm-gnu-toolchain/bin/../lib/gcc/arm-none-eabi/5.3.1/../../../../arm-none-eabi/lib/armv6-m\libm.a(lib_a-e_sqrt.o)
                                                  c:/program files (x86)/atmel/studio/7.0/toolchain/arm/arm-gnu-toolchain/bin/../lib/gcc/arm-none-eabi/5.3.1/../../../../arm-none-eabi/lib/armv6-m\libm.a(lib_a-e_pow.o)
__ieee754_sqrtf                                   c:/program files (x86)/atmel/studio/7.0/toolchain/arm/arm-gnu-toolchain/bin/../lib/gcc/arm-none-eabi/5.3.1/../../../../arm-none-eabi/lib/armv6-m\libm.a(lib_a-ef_sqrt.o)
                                                  c:/program files (x86)/atmel/studio/7.0/toolchain/arm/arm-gnu-toolchain/bin/../lib/gcc/arm-none-eabi/5.3.1/../../../../arm-none-eabi/lib/armv6-m\libm.a(lib_a-wf_sqrt.o)
__init_array_end                                  c:/program files (x86)/atmel/studio/7.0/toolchain/arm/arm-gnu-toolchain/bin/../lib/gcc/arm-none-eabi/5.3.1/../../../../arm-none-eabi/lib/armv6-m\libc_nano.a(lib_a-init.o)
__init_array_start                                c:/program files (x86)/atmel/studio/7.0/toolchain/arm/arm-gnu-toolchain/bin/../lib/gcc/arm-none-eabi/5.3.1/../../../../arm-none-eabi/lib/armv6-m\libc_nano.a(lib_a-init.o)
__ledf2                                           c:/program files (x86)/atmel/studio/7.0/toolchain/arm/arm-gnu-toolchain/bin/../lib/gcc/arm-none-eabi/5.3.1/armv6-m\libgcc.a(ledf2.o)
                                                  c:/program files (x86)/atmel/studio/7.0/toolchain/arm/arm-gnu-toolchain/bin/../lib/gcc/arm-none-eabi/5.3.1/armv6-m\libgcc.a(_arm_cmpdf2.o)
__lesf2                                           c:/program files (x86)/atmel/studio/7.0/toolchain/arm/arm-gnu-toolchain/bin/../lib/gcc/arm-none-eabi/5.3.1/armv6-m\libgcc.a(lesf2.o)
                                                  c:/program files (x86)/atmel/studio/7.0/toolchain/arm/arm-gnu-toolchain/bin/../lib/gcc/arm-none-eabi/5.3.1/armv6-m\libgcc.a(_arm_cmpsf2.o)
__libc_fini_array                                 c:/program files (x86)/atmel/studio/7.0/toolchain/arm/arm-gnu-toolchain/bin/../lib/gcc/arm-none-eabi/5.3.1/../../../../arm-none-eabi/lib/armv6-m/crt0.o
__libc_init_array                                 c:/program files (x86)/atmel/studio/7.0/toolchain/arm/arm-gnu-toolchain/bin/../lib/gcc/arm-none-eabi/5.3.1/../../../../arm-none-eabi/lib/armv6-m\libc_nano.a(lib_a-init.o)
                                                  src/ASF/sam0/utils/cmsis/samb11/source/gcc/startup_samb11.o
                                                  c:/program files (x86)/atmel/studio/7.0/toolchain/arm/arm-gnu-toolchain/bin/../lib/gcc/arm-none-eabi/5.3.1/../../../../arm-none-eabi/lib/armv6-m/crt0.o
__ltdf2                                           c:/program files (x86)/atmel/studio/7.0/toolchain/arm/arm-gnu-toolchain/bin/../lib/gcc/arm-none-eabi/5.3.1/armv6-m\libgcc.a(ledf2.o)
__ltsf2                                           c:/program files (x86)/atmel/studio/7.0/toolchain/arm/arm-gnu-toolchain/bin/../lib/gcc/arm-none-eabi/5.3.1/armv6-m\libgcc.a(lesf2.o)
__malloc_free_list                                c:/program files (x86)/atmel/studio/7.0/toolchain/arm/arm-gnu-toolchain/bin/../lib/gcc/arm-none-eabi/5.3.1/../../../../arm-none-eabi/lib/armv6-m\libc_nano.a(lib_a-nano-mallocr.o)
                                                  c:/program files (x86)/atmel/studio/7.0/toolchain/arm/arm-gnu-toolchain/bin/../lib/gcc/arm-none-eabi/5.3.1/../../../../arm-none-eabi/lib/armv6-m\libc_nano.a(lib_a-nano-freer.o)
__malloc_sbrk_start                               c:/program files (x86)/atmel/studio/7.0/toolchain/arm/arm-gnu-toolchain/bin/../lib/gcc/arm-none-eabi/5.3.1/../../../../arm-none-eabi/lib/armv6-m\libc_nano.a(lib_a-nano-mallocr.o)
__muldi3                                          c:/program files (x86)/atmel/studio/7.0/toolchain/arm/arm-gnu-toolchain/bin/../lib/gcc/arm-none-eabi/5.3.1/armv6-m\libgcc.a(_muldi3.o)
__nedf2                                           c:/program files (x86)/atmel/studio/7.0/toolchain/arm/arm-gnu-toolchain/bin/../lib/gcc/arm-none-eabi/5.3.1/armv6-m\libgcc.a(eqdf2.o)
__nesf2                                           c:/program files (x86)/atmel/studio/7.0/toolchain/arm/arm-gnu-toolchain/bin/../lib/gcc/arm-none-eabi/5.3.1/armv6-m\libgcc.a(eqsf2.o)
__preinit_array_end                               c:/program files (x86)/atmel/studio/7.0/toolchain/arm/arm-gnu-toolchain/bin/../lib/gcc/arm-none-eabi/5.3.1/../../../../arm-none-eabi/lib/armv6-m\libc_nano.a(lib_a-init.o)
__preinit_array_start                             c:/program files (x86)/atmel/studio/7.0/toolchain/arm/arm-gnu-toolchain/bin/../lib/gcc/arm-none-eabi/5.3.1/../../../../arm-none-eabi/lib/armv6-m\libc_nano.a(lib_a-init.o)
__register_frame_info                             c:/program files (x86)/atmel/studio/7.0/toolchain/arm/arm-gnu-toolchain/bin/../lib/gcc/arm-none-eabi/5.3.1/armv6-m/crtbegin.o
__sclose                                          c:/program files (x86)/atmel/studio/7.0/toolchain/arm/arm-gnu-toolchain/bin/../lib/gcc/arm-none-eabi/5.3.1/../../../../arm-none-eabi/lib/armv6-m\libc_nano.a(lib_a-stdio.o)
                                                  c:/program files (x86)/atmel/studio/7.0/toolchain/arm/arm-gnu-toolchain/bin/../lib/gcc/arm-none-eabi/5.3.1/../../../../arm-none-eabi/lib/armv6-m\libc_nano.a(lib_a-findfp.o)
__seofread                                        c:/program files (x86)/atmel/studio/7.0/toolchain/arm/arm-gnu-toolchain/bin/../lib/gcc/arm-none-eabi/5.3.1/../../../../arm-none-eabi/lib/armv6-m\libc_nano.a(lib_a-stdio.o)
__sf_fake_stderr                                  c:/program files (x86)/atmel/studio/7.0/toolchain/arm/arm-gnu-toolchain/bin/../lib/gcc/arm-none-eabi/5.3.1/../../../../arm-none-eabi/lib/armv6-m\libc_nano.a(lib_a-findfp.o)
                                                  c:/program files (x86)/atmel/studio/7.0/toolchain/arm/arm-gnu-toolchain/bin/../lib/gcc/arm-none-eabi/5.3.1/../../../../arm-none-eabi/lib/armv6-m\libc_nano.a(lib_a-fflush.o)
                                                  c:/program files (x86)/atmel/studio/7.0/toolchain/arm/arm-gnu-toolchain/bin/../lib/gcc/arm-none-eabi/5.3.1/../../../../arm-none-eabi/lib/armv6-m\libc_nano.a(lib_a-setvbuf.o)
                                                  c:/program files (x86)/atmel/studio/7.0/toolchain/arm/arm-gnu-toolchain/bin/../lib/gcc/arm-none-eabi/5.3.1/../../../../arm-none-eabi/lib/armv6-m\libc_nano.a(lib_a-impure.o)
__sf_fake_stdin                                   c:/program files (x86)/atmel/studio/7.0/toolchain/arm/arm-gnu-toolchain/bin/../lib/gcc/arm-none-eabi/5.3.1/../../../../arm-none-eabi/lib/armv6-m\libc_nano.a(lib_a-findfp.o)
                                                  c:/program files (x86)/atmel/studio/7.0/toolchain/arm/arm-gnu-toolchain/bin/../lib/gcc/arm-none-eabi/5.3.1/../../../../arm-none-eabi/lib/armv6-m\libc_nano.a(lib_a-fflush.o)
                                                  c:/program files (x86)/atmel/studio/7.0/toolchain/arm/arm-gnu-toolchain/bin/../lib/gcc/arm-none-eabi/5.3.1/../../../../arm-none-eabi/lib/armv6-m\libc_nano.a(lib_a-setvbuf.o)
                                                  c:/program files (x86)/atmel/studio/7.0/toolchain/arm/arm-gnu-toolchain/bin/../lib/gcc/arm-none-eabi/5.3.1/../../../../arm-none-eabi/lib/armv6-m\libc_nano.a(lib_a-impure.o)
__sf_fake_stdout                                  c:/program files (x86)/atmel/studio/7.0/toolchain/arm/arm-gnu-toolchain/bin/../lib/gcc/arm-none-eabi/5.3.1/../../../../arm-none-eabi/lib/armv6-m\libc_nano.a(lib_a-findfp.o)
                                                  c:/program files (x86)/atmel/studio/7.0/toolchain/arm/arm-gnu-toolchain/bin/../lib/gcc/arm-none-eabi/5.3.1/../../../../arm-none-eabi/lib/armv6-m\libc_nano.a(lib_a-fflush.o)
                                                  c:/program files (x86)/atmel/studio/7.0/toolchain/arm/arm-gnu-toolchain/bin/../lib/gcc/arm-none-eabi/5.3.1/../../../../arm-none-eabi/lib/armv6-m\libc_nano.a(lib_a-setvbuf.o)
                                                  c:/program files (x86)/atmel/studio/7.0/toolchain/arm/arm-gnu-toolchain/bin/../lib/gcc/arm-none-eabi/5.3.1/../../../../arm-none-eabi/lib/armv6-m\libc_nano.a(lib_a-impure.o)
__sflush_r                                        c:/program files (x86)/atmel/studio/7.0/toolchain/arm/arm-gnu-toolchain/bin/../lib/gcc/arm-none-eabi/5.3.1/../../../../arm-none-eabi/lib/armv6-m\libc_nano.a(lib_a-fflush.o)
__sfmoreglue                                      c:/program files (x86)/atmel/studio/7.0/toolchain/arm/arm-gnu-toolchain/bin/../lib/gcc/arm-none-eabi/5.3.1/../../../../arm-none-eabi/lib/armv6-m\libc_nano.a(lib_a-findfp.o)
__sfp                                             c:/program files (x86)/atmel/studio/7.0/toolchain/arm/arm-gnu-toolchain/bin/../lib/gcc/arm-none-eabi/5.3.1/../../../../arm-none-eabi/lib/armv6-m\libc_nano.a(lib_a-findfp.o)
__sfp_lock_acquire                                c:/program files (x86)/atmel/studio/7.0/toolchain/arm/arm-gnu-toolchain/bin/../lib/gcc/arm-none-eabi/5.3.1/../../../../arm-none-eabi/lib/armv6-m\libc_nano.a(lib_a-findfp.o)
__sfp_lock_release                                c:/program files (x86)/atmel/studio/7.0/toolchain/arm/arm-gnu-toolchain/bin/../lib/gcc/arm-none-eabi/5.3.1/../../../../arm-none-eabi/lib/armv6-m\libc_nano.a(lib_a-findfp.o)
__sinit                                           c:/program files (x86)/atmel/studio/7.0/toolchain/arm/arm-gnu-toolchain/bin/../lib/gcc/arm-none-eabi/5.3.1/../../../../arm-none-eabi/lib/armv6-m\libc_nano.a(lib_a-findfp.o)
                                                  c:/program files (x86)/atmel/studio/7.0/toolchain/arm/arm-gnu-toolchain/bin/../lib/gcc/arm-none-eabi/5.3.1/../../../../arm-none-eabi/lib/armv6-m\libc_nano.a(lib_a-fflush.o)
                                                  c:/program files (x86)/atmel/studio/7.0/toolchain/arm/arm-gnu-toolchain/bin/../lib/gcc/arm-none-eabi/5.3.1/../../../../arm-none-eabi/lib/armv6-m\libc_nano.a(lib_a-setvbuf.o)
__sinit_lock_acquire                              c:/program files (x86)/atmel/studio/7.0/toolchain/arm/arm-gnu-toolchain/bin/../lib/gcc/arm-none-eabi/5.3.1/../../../../arm-none-eabi/lib/armv6-m\libc_nano.a(lib_a-findfp.o)
__sinit_lock_release                              c:/program files (x86)/atmel/studio/7.0/toolchain/arm/arm-gnu-toolchain/bin/../lib/gcc/arm-none-eabi/5.3.1/../../../../arm-none-eabi/lib/armv6-m\libc_nano.a(lib_a-findfp.o)
__smakebuf_r                                      c:/program files (x86)/atmel/studio/7.0/toolchain/arm/arm-gnu-toolchain/bin/../lib/gcc/arm-none-eabi/5.3.1/../../../../arm-none-eabi/lib/armv6-m\libc_nano.a(lib_a-makebuf.o)
__sread                                           c:/program files (x86)/atmel/studio/7.0/toolchain/arm/arm-gnu-toolchain/bin/../lib/gcc/arm-none-eabi/5.3.1/../../../../arm-none-eabi/lib/armv6-m\libc_nano.a(lib_a-stdio.o)
                                                  c:/program files (x86)/atmel/studio/7.0/toolchain/arm/arm-gnu-toolchain/bin/../lib/gcc/arm-none-eabi/5.3.1/../../../../arm-none-eabi/lib/armv6-m\libc_nano.a(lib_a-findfp.o)
__sseek                                           c:/program files (x86)/atmel/studio/7.0/toolchain/arm/arm-gnu-toolchain/bin/../lib/gcc/arm-none-eabi/5.3.1/../../../../arm-none-eabi/lib/armv6-m\libc_nano.a(lib_a-stdio.o)
                                                  c:/program files (x86)/atmel/studio/7.0/toolchain/arm/arm-gnu-toolchain/bin/../lib/gcc/arm-none-eabi/5.3.1/../../../../arm-none-eabi/lib/armv6-m\libc_nano.a(lib_a-findfp.o)
__stack                                           c:/program files (x86)/atmel/studio/7.0/toolchain/arm/arm-gnu-toolchain/bin/../lib/gcc/arm-none-eabi/5.3.1/../../../../arm-none-eabi/lib/armv6-m/crt0.o
__swhatbuf_r                                      c:/program files (x86)/atmel/studio/7.0/toolchain/arm/arm-gnu-toolchain/bin/../lib/gcc/arm-none-eabi/5.3.1/../../../../arm-none-eabi/lib/armv6-m\libc_nano.a(lib_a-makebuf.o)
                                                  c:/program files (x86)/atmel/studio/7.0/toolchain/arm/arm-gnu-toolchain/bin/../lib/gcc/arm-none-eabi/5.3.1/../../../../arm-none-eabi/lib/armv6-m\libc_nano.a(lib_a-setvbuf.o)
__swrite                                          c:/program files (x86)/atmel/studio/7.0/toolchain/arm/arm-gnu-toolchain/bin/../lib/gcc/arm-none-eabi/5.3.1/../../../../arm-none-eabi/lib/armv6-m\libc_nano.a(lib_a-stdio.o)
                                                  c:/program files (x86)/atmel/studio/7.0/toolchain/arm/arm-gnu-toolchain/bin/../lib/gcc/arm-none-eabi/5.3.1/../../../../arm-none-eabi/lib/armv6-m\libc_nano.a(lib_a-findfp.o)
__udivsi3                                         c:/program files (x86)/atmel/studio/7.0/toolchain/arm/arm-gnu-toolchain/bin/../lib/gcc/arm-none-eabi/5.3.1/armv6-m\libgcc.a(_udivsi3.o)
_cleanup                                          c:/program files (x86)/atmel/studio/7.0/toolchain/arm/arm-gnu-toolchain/bin/../lib/gcc/arm-none-eabi/5.3.1/../../../../arm-none-eabi/lib/armv6-m\libc_nano.a(lib_a-findfp.o)
_cleanup_r                                        c:/program files (x86)/atmel/studio/7.0/toolchain/arm/arm-gnu-toolchain/bin/../lib/gcc/arm-none-eabi/5.3.1/../../../../arm-none-eabi/lib/armv6-m\libc_nano.a(lib_a-findfp.o)
                                                  c:/program files (x86)/atmel/studio/7.0/toolchain/arm/arm-gnu-toolchain/bin/../lib/gcc/arm-none-eabi/5.3.1/../../../../arm-none-eabi/lib/armv6-m\libc_nano.a(lib_a-makebuf.o)
_close                                            src/ASF/sam0/utils/syscalls/gcc/syscalls.o
                                                  c:/program files (x86)/atmel/studio/7.0/toolchain/arm/arm-gnu-toolchain/bin/../lib/gcc/arm-none-eabi/5.3.1/../../../../arm-none-eabi/lib/armv6-m\libc_nano.a(lib_a-closer.o)
_close_r                                          c:/program files (x86)/atmel/studio/7.0/toolchain/arm/arm-gnu-toolchain/bin/../lib/gcc/arm-none-eabi/5.3.1/../../../../arm-none-eabi/lib/armv6-m\libc_nano.a(lib_a-closer.o)
                                                  c:/program files (x86)/atmel/studio/7.0/toolchain/arm/arm-gnu-toolchain/bin/../lib/gcc/arm-none-eabi/5.3.1/../../../../arm-none-eabi/lib/armv6-m\libc_nano.a(lib_a-stdio.o)
_end                                              src/ASF/sam0/utils/syscalls/gcc/syscalls.o
_erelocate                                        src/ASF/sam0/utils/cmsis/samb11/source/gcc/startup_samb11.o
_etext                                            src/ASF/sam0/utils/cmsis/samb11/source/gcc/startup_samb11.o
_exit                                             src/ASF/sam0/utils/syscalls/gcc/syscalls.o
                                                  c:/program files (x86)/atmel/studio/7.0/toolchain/arm/arm-gnu-toolchain/bin/../lib/gcc/arm-none-eabi/5.3.1/../../../../arm-none-eabi/lib/armv6-m\libc_nano.a(lib_a-exit.o)
_ezero                                            src/ASF/sam0/utils/cmsis/samb11/source/gcc/startup_samb11.o
_fflush_r                                         c:/program files (x86)/atmel/studio/7.0/toolchain/arm/arm-gnu-toolchain/bin/../lib/gcc/arm-none-eabi/5.3.1/../../../../arm-none-eabi/lib/armv6-m\libc_nano.a(lib_a-fflush.o)
                                                  c:/program files (x86)/atmel/studio/7.0/toolchain/arm/arm-gnu-toolchain/bin/../lib/gcc/arm-none-eabi/5.3.1/../../../../arm-none-eabi/lib/armv6-m\libc_nano.a(lib_a-findfp.o)
                                                  c:/program files (x86)/atmel/studio/7.0/toolchain/arm/arm-gnu-toolchain/bin/../lib/gcc/arm-none-eabi/5.3.1/../../../../arm-none-eabi/lib/armv6-m\libc_nano.a(lib_a-setvbuf.o)
_fini                                             c:/program files (x86)/atmel/studio/7.0/toolchain/arm/arm-gnu-toolchain/bin/../lib/gcc/arm-none-eabi/5.3.1/armv6-m/crti.o
_free_r                                           c:/program files (x86)/atmel/studio/7.0/toolchain/arm/arm-gnu-toolchain/bin/../lib/gcc/arm-none-eabi/5.3.1/../../../../arm-none-eabi/lib/armv6-m\libc_nano.a(lib_a-nano-freer.o)
                                                  c:/program files (x86)/atmel/studio/7.0/toolchain/arm/arm-gnu-toolchain/bin/../lib/gcc/arm-none-eabi/5.3.1/../../../../arm-none-eabi/lib/armv6-m\libc_nano.a(lib_a-reent.o)
                                                  c:/program files (x86)/atmel/studio/7.0/toolchain/arm/arm-gnu-toolchain/bin/../lib/gcc/arm-none-eabi/5.3.1/../../../../arm-none-eabi/lib/armv6-m\libc_nano.a(lib_a-fflush.o)
                                                  c:/program files (x86)/atmel/studio/7.0/toolchain/arm/arm-gnu-toolchain/bin/../lib/gcc/arm-none-eabi/5.3.1/../../../../arm-none-eabi/lib/armv6-m\libc_nano.a(lib_a-setvbuf.o)
                                                  c:/program files (x86)/atmel/studio/7.0/toolchain/arm/arm-gnu-toolchain/bin/../lib/gcc/arm-none-eabi/5.3.1/../../../../arm-none-eabi/lib/armv6-m\libc_nano.a(lib_a-malloc.o)
_fstat                                            src/ASF/sam0/utils/syscalls/gcc/syscalls.o
                                                  c:/program files (x86)/atmel/studio/7.0/toolchain/arm/arm-gnu-toolchain/bin/../lib/gcc/arm-none-eabi/5.3.1/../../../../arm-none-eabi/lib/armv6-m\libc_nano.a(lib_a-fstatr.o)
_fstat_r                                          c:/program files (x86)/atmel/studio/7.0/toolchain/arm/arm-gnu-toolchain/bin/../lib/gcc/arm-none-eabi/5.3.1/../../../../arm-none-eabi/lib/armv6-m\libc_nano.a(lib_a-fstatr.o)
                                                  c:/program files (x86)/atmel/studio/7.0/toolchain/arm/arm-gnu-toolchain/bin/../lib/gcc/arm-none-eabi/5.3.1/../../../../arm-none-eabi/lib/armv6-m\libc_nano.a(lib_a-makebuf.o)
_fwalk                                            c:/program files (x86)/atmel/studio/7.0/toolchain/arm/arm-gnu-toolchain/bin/../lib/gcc/arm-none-eabi/5.3.1/../../../../arm-none-eabi/lib/armv6-m\libc_nano.a(lib_a-fwalk.o)
                                                  c:/program files (x86)/atmel/studio/7.0/toolchain/arm/arm-gnu-toolchain/bin/../lib/gcc/arm-none-eabi/5.3.1/../../../../arm-none-eabi/lib/armv6-m\libc_nano.a(lib_a-findfp.o)
_fwalk_reent                                      c:/program files (x86)/atmel/studio/7.0/toolchain/arm/arm-gnu-toolchain/bin/../lib/gcc/arm-none-eabi/5.3.1/../../../../arm-none-eabi/lib/armv6-m\libc_nano.a(lib_a-fwalk.o)
                                                  c:/program files (x86)/atmel/studio/7.0/toolchain/arm/arm-gnu-toolchain/bin/../lib/gcc/arm-none-eabi/5.3.1/../../../../arm-none-eabi/lib/armv6-m\libc_nano.a(lib_a-findfp.o)
                                                  c:/program files (x86)/atmel/studio/7.0/toolchain/arm/arm-gnu-toolchain/bin/../lib/gcc/arm-none-eabi/5.3.1/../../../../arm-none-eabi/lib/armv6-m\libc_nano.a(lib_a-fflush.o)
_getpid                                           src/ASF/sam0/utils/syscalls/gcc/syscalls.o
_global_impure_ptr                                c:/program files (x86)/atmel/studio/7.0/toolchain/arm/arm-gnu-toolchain/bin/../lib/gcc/arm-none-eabi/5.3.1/../../../../arm-none-eabi/lib/armv6-m\libc_nano.a(lib_a-impure.o)
                                                  c:/program files (x86)/atmel/studio/7.0/toolchain/arm/arm-gnu-toolchain/bin/../lib/gcc/arm-none-eabi/5.3.1/../../../../arm-none-eabi/lib/armv6-m\libc_nano.a(lib_a-findfp.o)
                                                  c:/program files (x86)/atmel/studio/7.0/toolchain/arm/arm-gnu-toolchain/bin/../lib/gcc/arm-none-eabi/5.3.1/../../../../arm-none-eabi/lib/armv6-m\libc_nano.a(lib_a-fflush.o)
                                                  c:/program files (x86)/atmel/studio/7.0/toolchain/arm/arm-gnu-toolchain/bin/../lib/gcc/arm-none-eabi/5.3.1/../../../../arm-none-eabi/lib/armv6-m\libc_nano.a(lib_a-exit.o)
_gpio_instances                                   src/ASF/sam0/drivers/gpio/gpio.o
_impure_ptr                                       c:/program files (x86)/atmel/studio/7.0/toolchain/arm/arm-gnu-toolchain/bin/../lib/gcc/arm-none-eabi/5.3.1/../../../../arm-none-eabi/lib/armv6-m\libc_nano.a(lib_a-impure.o)
                                                  c:/program files (x86)/atmel/studio/7.0/toolchain/arm/arm-gnu-toolchain/bin/../lib/gcc/arm-none-eabi/5.3.1/../../../../arm-none-eabi/lib/armv6-m\libc_nano.a(lib_a-reent.o)
                                                  c:/program files (x86)/atmel/studio/7.0/toolchain/arm/arm-gnu-toolchain/bin/../lib/gcc/arm-none-eabi/5.3.1/../../../../arm-none-eabi/lib/armv6-m\libc_nano.a(lib_a-findfp.o)
                                                  c:/program files (x86)/atmel/studio/7.0/toolchain/arm/arm-gnu-toolchain/bin/../lib/gcc/arm-none-eabi/5.3.1/../../../../arm-none-eabi/lib/armv6-m\libc_nano.a(lib_a-fflush.o)
                                                  c:/program files (x86)/atmel/studio/7.0/toolchain/arm/arm-gnu-toolchain/bin/../lib/gcc/arm-none-eabi/5.3.1/../../../../arm-none-eabi/lib/armv6-m\libc_nano.a(lib_a-setvbuf.o)
                                                  c:/program files (x86)/atmel/studio/7.0/toolchain/arm/arm-gnu-toolchain/bin/../lib/gcc/arm-none-eabi/5.3.1/../../../../arm-none-eabi/lib/armv6-m\libc_nano.a(lib_a-rand.o)
                                                  c:/program files (x86)/atmel/studio/7.0/toolchain/arm/arm-gnu-toolchain/bin/../lib/gcc/arm-none-eabi/5.3.1/../../../../arm-none-eabi/lib/armv6-m\libc_nano.a(lib_a-malloc.o)
                                                  c:/program files (x86)/atmel/studio/7.0/toolchain/arm/arm-gnu-toolchain/bin/../lib/gcc/arm-none-eabi/5.3.1/../../../../arm-none-eabi/lib/armv6-m\libc_nano.a(lib_a-errno.o)
                                                  src/ASF/thirdparty/wireless/ble_smart_sdk/services/uart/console_serial.o
_init                                             c:/program files (x86)/atmel/studio/7.0/toolchain/arm/arm-gnu-toolchain/bin/../lib/gcc/arm-none-eabi/5.3.1/armv6-m/crti.o
                                                  c:/program files (x86)/atmel/studio/7.0/toolchain/arm/arm-gnu-toolchain/bin/../lib/gcc/arm-none-eabi/5.3.1/../../../../arm-none-eabi/lib/armv6-m\libc_nano.a(lib_a-init.o)
_isatty                                           src/ASF/sam0/utils/syscalls/gcc/syscalls.o
                                                  c:/program files (x86)/atmel/studio/7.0/toolchain/arm/arm-gnu-toolchain/bin/../lib/gcc/arm-none-eabi/5.3.1/../../../../arm-none-eabi/lib/armv6-m\libc_nano.a(lib_a-isattyr.o)
_isatty_r                                         c:/program files (x86)/atmel/studio/7.0/toolchain/arm/arm-gnu-toolchain/bin/../lib/gcc/arm-none-eabi/5.3.1/../../../../arm-none-eabi/lib/armv6-m\libc_nano.a(lib_a-isattyr.o)
                                                  c:/program files (x86)/atmel/studio/7.0/toolchain/arm/arm-gnu-toolchain/bin/../lib/gcc/arm-none-eabi/5.3.1/../../../../arm-none-eabi/lib/armv6-m\libc_nano.a(lib_a-makebuf.o)
_kill                                             src/ASF/sam0/utils/syscalls/gcc/syscalls.o
_lseek                                            src/ASF/sam0/utils/syscalls/gcc/syscalls.o
                                                  c:/program files (x86)/atmel/studio/7.0/toolchain/arm/arm-gnu-toolchain/bin/../lib/gcc/arm-none-eabi/5.3.1/../../../../arm-none-eabi/lib/armv6-m\libc_nano.a(lib_a-lseekr.o)
_lseek_r                                          c:/program files (x86)/atmel/studio/7.0/toolchain/arm/arm-gnu-toolchain/bin/../lib/gcc/arm-none-eabi/5.3.1/../../../../arm-none-eabi/lib/armv6-m\libc_nano.a(lib_a-lseekr.o)
                                                  c:/program files (x86)/atmel/studio/7.0/toolchain/arm/arm-gnu-toolchain/bin/../lib/gcc/arm-none-eabi/5.3.1/../../../../arm-none-eabi/lib/armv6-m\libc_nano.a(lib_a-stdio.o)
_mainCRTStartup                                   c:/program files (x86)/atmel/studio/7.0/toolchain/arm/arm-gnu-toolchain/bin/../lib/gcc/arm-none-eabi/5.3.1/../../../../arm-none-eabi/lib/armv6-m/crt0.o
_malloc_r                                         c:/program files (x86)/atmel/studio/7.0/toolchain/arm/arm-gnu-toolchain/bin/../lib/gcc/arm-none-eabi/5.3.1/../../../../arm-none-eabi/lib/armv6-m\libc_nano.a(lib_a-nano-mallocr.o)
                                                  c:/program files (x86)/atmel/studio/7.0/toolchain/arm/arm-gnu-toolchain/bin/../lib/gcc/arm-none-eabi/5.3.1/../../../../arm-none-eabi/lib/armv6-m\libc_nano.a(lib_a-makebuf.o)
                                                  c:/program files (x86)/atmel/studio/7.0/toolchain/arm/arm-gnu-toolchain/bin/../lib/gcc/arm-none-eabi/5.3.1/../../../../arm-none-eabi/lib/armv6-m\libc_nano.a(lib_a-findfp.o)
                                                  c:/program files (x86)/atmel/studio/7.0/toolchain/arm/arm-gnu-toolchain/bin/../lib/gcc/arm-none-eabi/5.3.1/../../../../arm-none-eabi/lib/armv6-m\libc_nano.a(lib_a-malloc.o)
_read                                             src/ASF/sam0/utils/stdio/read.o
                                                  c:/program files (x86)/atmel/studio/7.0/toolchain/arm/arm-gnu-toolchain/bin/../lib/gcc/arm-none-eabi/5.3.1/../../../../arm-none-eabi/lib/armv6-m\libc_nano.a(lib_a-readr.o)
_read_r                                           c:/program files (x86)/atmel/studio/7.0/toolchain/arm/arm-gnu-toolchain/bin/../lib/gcc/arm-none-eabi/5.3.1/../../../../arm-none-eabi/lib/armv6-m\libc_nano.a(lib_a-readr.o)
                                                  c:/program files (x86)/atmel/studio/7.0/toolchain/arm/arm-gnu-toolchain/bin/../lib/gcc/arm-none-eabi/5.3.1/../../../../arm-none-eabi/lib/armv6-m\libc_nano.a(lib_a-stdio.o)
_reclaim_reent                                    c:/program files (x86)/atmel/studio/7.0/toolchain/arm/arm-gnu-toolchain/bin/../lib/gcc/arm-none-eabi/5.3.1/../../../../arm-none-eabi/lib/armv6-m\libc_nano.a(lib_a-reent.o)
_sbrk                                             src/ASF/sam0/utils/syscalls/gcc/syscalls.o
                                                  c:/program files (x86)/atmel/studio/7.0/toolchain/arm/arm-gnu-toolchain/bin/../lib/gcc/arm-none-eabi/5.3.1/../../../../arm-none-eabi/lib/armv6-m\libc_nano.a(lib_a-sbrkr.o)
_sbrk_r                                           c:/program files (x86)/atmel/studio/7.0/toolchain/arm/arm-gnu-toolchain/bin/../lib/gcc/arm-none-eabi/5.3.1/../../../../arm-none-eabi/lib/armv6-m\libc_nano.a(lib_a-sbrkr.o)
                                                  c:/program files (x86)/atmel/studio/7.0/toolchain/arm/arm-gnu-toolchain/bin/../lib/gcc/arm-none-eabi/5.3.1/../../../../arm-none-eabi/lib/armv6-m\libc_nano.a(lib_a-nano-mallocr.o)
_srelocate                                        src/ASF/sam0/utils/cmsis/samb11/source/gcc/startup_samb11.o
_start                                            c:/program files (x86)/atmel/studio/7.0/toolchain/arm/arm-gnu-toolchain/bin/../lib/gcc/arm-none-eabi/5.3.1/../../../../arm-none-eabi/lib/armv6-m/crt0.o
_szero                                            src/ASF/sam0/utils/cmsis/samb11/source/gcc/startup_samb11.o
_time_done                                        src/ASF/thirdparty/wireless/ble_smart_sdk/services/uart/console_serial.o
_time_start                                       src/ASF/thirdparty/wireless/ble_smart_sdk/services/uart/console_serial.o
_uart_instances                                   src/ASF/sam0/drivers/uart/uart.o
_write                                            src/ASF/sam0/utils/stdio/write.o
                                                  c:/program files (x86)/atmel/studio/7.0/toolchain/arm/arm-gnu-toolchain/bin/../lib/gcc/arm-none-eabi/5.3.1/../../../../arm-none-eabi/lib/armv6-m\libc_nano.a(lib_a-writer.o)
_write_r                                          c:/program files (x86)/atmel/studio/7.0/toolchain/arm/arm-gnu-toolchain/bin/../lib/gcc/arm-none-eabi/5.3.1/../../../../arm-none-eabi/lib/armv6-m\libc_nano.a(lib_a-writer.o)
                                                  c:/program files (x86)/atmel/studio/7.0/toolchain/arm/arm-gnu-toolchain/bin/../lib/gcc/arm-none-eabi/5.3.1/../../../../arm-none-eabi/lib/armv6-m\libc_nano.a(lib_a-stdio.o)
acquire_sleep_lock                                src/ASF/thirdparty/wireless/ble_smart_sdk/src/platform_drv.o
                                                  src/sms_peripheral1.o
                                                  src/ASF/thirdparty/wireless/ble_smart_sdk/ble_services/ble_mgr/ble_manager.o
actualfreq                                        src/ASF/thirdparty/wireless/ble_smart_sdk/src/platform_drv.o
ahrs_calculation                                  src/ASF/thirdparty/sensor/mpu9250_kriswiner/quaternion_ahrs.o
                                                  src/sms_v_0_2/src/sms_mpu.o
aon_sleep_timer_clear_interrup                    src/ASF/sam0/drivers/aon_sleep_timer/aon_sleep_timer.o
aon_sleep_timer_disable                           src/ASF/sam0/drivers/aon_sleep_timer/aon_sleep_timer.o
                                                  src/sms_v_0_2/src/sms_timer.o
aon_sleep_timer_get_config_defaults               src/ASF/sam0/drivers/aon_sleep_timer/aon_sleep_timer.o
                                                  src/sms_v_0_2/src/sms_timer.o
aon_sleep_timer_get_current_value                 src/ASF/sam0/drivers/aon_sleep_timer/aon_sleep_timer.o
aon_sleep_timer_init                              src/ASF/sam0/drivers/aon_sleep_timer/aon_sleep_timer.o
                                                  src/sms_v_0_2/src/sms_timer.o
aon_sleep_timer_register_callback                 src/ASF/sam0/drivers/aon_sleep_timer/aon_sleep_timer.o
                                                  src/sms_v_0_2/src/sms_timer.o
aon_sleep_timer_sleep_timer_active                src/ASF/sam0/drivers/aon_sleep_timer/aon_sleep_timer.o
aon_sleep_timer_unregister_callback               src/ASF/sam0/drivers/aon_sleep_timer/aon_sleep_timer.o
                                                  src/sms_v_0_2/src/sms_timer.o
app_entry                                         src/ASF/sam0/utils/cmsis/samb11/source/gcc/startup_samb11.o
app_task_type                                     ../src/ASF/thirdparty/wireless/ble_smart_sdk/lib/cm0/gcc\libblusdk.a(gap.o)
                                                  ../src/ASF/thirdparty/wireless/ble_smart_sdk/lib/cm0/gcc\libblusdk.a(htpt_task.o)
                                                  ../src/ASF/thirdparty/wireless/ble_smart_sdk/lib/cm0/gcc\libblusdk.a(gattm_task.o)
                                                  ../src/ASF/thirdparty/wireless/ble_smart_sdk/lib/cm0/gcc\libblusdk.a(gattc_task.o)
                                                  ../src/ASF/thirdparty/wireless/ble_smart_sdk/lib/cm0/gcc\libblusdk.a(gapm_task.o)
                                                  ../src/ASF/thirdparty/wireless/ble_smart_sdk/lib/cm0/gcc\libblusdk.a(gapc_task.o)
                                                  ../src/ASF/thirdparty/wireless/ble_smart_sdk/lib/cm0/gcc\libblusdk.a(dbg_task.o)
                                                  ../src/ASF/thirdparty/wireless/ble_smart_sdk/lib/cm0/gcc\libblusdk.a(calib_task.o)
                                                  ../src/ASF/thirdparty/wireless/ble_smart_sdk/lib/cm0/gcc\libblusdk.a(l2cc_task.o)
                                                  ../src/ASF/thirdparty/wireless/ble_smart_sdk/lib/cm0/gcc\libblusdk.a(gatt_server.o)
apps_resume_cb                                    src/ASF/thirdparty/wireless/ble_smart_sdk/src/platform_drv.o
at_ble_addr_get                                   ../src/ASF/thirdparty/wireless/ble_smart_sdk/lib/cm0/gcc\libblusdk.a(gap.o)
                                                  src/ASF/thirdparty/wireless/ble_smart_sdk/ble_services/ble_mgr/ble_manager.o
at_ble_addr_set                                   ../src/ASF/thirdparty/wireless/ble_smart_sdk/lib/cm0/gcc\libblusdk.a(gap.o)
                                                  src/ASF/thirdparty/wireless/ble_smart_sdk/ble_services/ble_mgr/ble_manager.o
at_ble_adv_data_set                               ../src/ASF/thirdparty/wireless/ble_smart_sdk/lib/cm0/gcc\libblusdk.a(gap.o)
                                                  src/ASF/thirdparty/wireless/ble_smart_sdk/ble_services/ble_mgr/ble_manager.o
at_ble_adv_start                                  ../src/ASF/thirdparty/wireless/ble_smart_sdk/lib/cm0/gcc\libblusdk.a(gap.o)
                                                  src/ASF/thirdparty/wireless/ble_smart_sdk/ble_profiles/pxp_reporter/pxp_reporter.o
                                                  src/sms_v_0_2/src/sms_ble.o
at_ble_adv_stop                                   ../src/ASF/thirdparty/wireless/ble_smart_sdk/lib/cm0/gcc\libblusdk.a(gap.o)
                                                  src/sms_v_0_2/src/sms_ble.o
at_ble_authenticate                               ../src/ASF/thirdparty/wireless/ble_smart_sdk/lib/cm0/gcc\libblusdk.a(security.o)
                                                  src/ASF/thirdparty/wireless/ble_smart_sdk/ble_services/ble_mgr/ble_manager.o
at_ble_calib_config                               ../src/ASF/thirdparty/wireless/ble_smart_sdk/lib/cm0/gcc\libblusdk.a(gap.o)
at_ble_calib_get_temp                             ../src/ASF/thirdparty/wireless/ble_smart_sdk/lib/cm0/gcc\libblusdk.a(gap.o)
at_ble_calib_get_voltage                          ../src/ASF/thirdparty/wireless/ble_smart_sdk/lib/cm0/gcc\libblusdk.a(gap.o)
at_ble_characteristic_discover_all                ../src/ASF/thirdparty/wireless/ble_smart_sdk/lib/cm0/gcc\libblusdk.a(gatt_client.o)
at_ble_characteristic_discover_by_uuid            ../src/ASF/thirdparty/wireless/ble_smart_sdk/lib/cm0/gcc\libblusdk.a(gatt_client.o)
at_ble_characteristic_read                        ../src/ASF/thirdparty/wireless/ble_smart_sdk/lib/cm0/gcc\libblusdk.a(gatt_client.o)
at_ble_characteristic_read_by_uuid                ../src/ASF/thirdparty/wireless/ble_smart_sdk/lib/cm0/gcc\libblusdk.a(gatt_client.o)
at_ble_characteristic_read_long                   ../src/ASF/thirdparty/wireless/ble_smart_sdk/lib/cm0/gcc\libblusdk.a(gatt_client.o)
at_ble_characteristic_read_multiple               ../src/ASF/thirdparty/wireless/ble_smart_sdk/lib/cm0/gcc\libblusdk.a(gatt_client.o)
at_ble_characteristic_reliable_write_cancel       ../src/ASF/thirdparty/wireless/ble_smart_sdk/lib/cm0/gcc\libblusdk.a(gatt_client.o)
at_ble_characteristic_reliable_write_execute      ../src/ASF/thirdparty/wireless/ble_smart_sdk/lib/cm0/gcc\libblusdk.a(gatt_client.o)
at_ble_characteristic_reliable_write_prepare      ../src/ASF/thirdparty/wireless/ble_smart_sdk/lib/cm0/gcc\libblusdk.a(gatt_client.o)
at_ble_characteristic_value_get                   ../src/ASF/thirdparty/wireless/ble_smart_sdk/lib/cm0/gcc\libblusdk.a(gatt_server.o)
                                                  src/ASF/thirdparty/wireless/ble_smart_sdk/ble_profiles/pxp_reporter/pxp_reporter.o
at_ble_characteristic_value_set                   ../src/ASF/thirdparty/wireless/ble_smart_sdk/lib/cm0/gcc\libblusdk.a(gatt_server.o)
                                                  src/ASF/thirdparty/wireless/ble_smart_sdk/ble_services/battery/battery.o
                                                  src/sms_v_0_2/src/sms_ble.o
at_ble_characteristic_write                       ../src/ASF/thirdparty/wireless/ble_smart_sdk/lib/cm0/gcc\libblusdk.a(gatt_client.o)
at_ble_chip_id_get                                ../src/ASF/thirdparty/wireless/ble_smart_sdk/lib/cm0/gcc\libblusdk.a(gap.o)
at_ble_conn_update_reply                          ../src/ASF/thirdparty/wireless/ble_smart_sdk/lib/cm0/gcc\libblusdk.a(gap.o)
                                                  src/ASF/thirdparty/wireless/ble_smart_sdk/ble_services/ble_mgr/ble_manager.o
at_ble_connect                                    ../src/ASF/thirdparty/wireless/ble_smart_sdk/lib/cm0/gcc\libblusdk.a(gap.o)
                                                  src/ASF/thirdparty/wireless/ble_smart_sdk/ble_services/ble_mgr/ble_manager.o
at_ble_connect_cancel                             ../src/ASF/thirdparty/wireless/ble_smart_sdk/lib/cm0/gcc\libblusdk.a(gap.o)
at_ble_connection_param_update                    ../src/ASF/thirdparty/wireless/ble_smart_sdk/lib/cm0/gcc\libblusdk.a(gap.o)
at_ble_descriptor_discover_all                    ../src/ASF/thirdparty/wireless/ble_smart_sdk/lib/cm0/gcc\libblusdk.a(gatt_client.o)
at_ble_descriptor_value_get                       ../src/ASF/thirdparty/wireless/ble_smart_sdk/lib/cm0/gcc\libblusdk.a(gatt_server.o)
at_ble_descriptor_value_set                       ../src/ASF/thirdparty/wireless/ble_smart_sdk/lib/cm0/gcc\libblusdk.a(gatt_server.o)
at_ble_device_name_set                            ../src/ASF/thirdparty/wireless/ble_smart_sdk/lib/cm0/gcc\libblusdk.a(gap.o)
                                                  src/ASF/thirdparty/wireless/ble_smart_sdk/ble_services/ble_mgr/ble_manager.o
at_ble_disconnect                                 ../src/ASF/thirdparty/wireless/ble_smart_sdk/lib/cm0/gcc\libblusdk.a(gap.o)
                                                  src/ASF/thirdparty/wireless/ble_smart_sdk/ble_services/ble_mgr/ble_manager.o
                                                  src/sms_v_0_2/src/sms_ble.o
at_ble_encryption_request_reply                   ../src/ASF/thirdparty/wireless/ble_smart_sdk/lib/cm0/gcc\libblusdk.a(security.o)
                                                  src/ASF/thirdparty/wireless/ble_smart_sdk/ble_services/ble_mgr/ble_manager.o
at_ble_encryption_start                           ../src/ASF/thirdparty/wireless/ble_smart_sdk/lib/cm0/gcc\libblusdk.a(security.o)
                                                  src/ASF/thirdparty/wireless/ble_smart_sdk/ble_services/ble_mgr/ble_manager.o
at_ble_event_get                                  ../src/ASF/thirdparty/wireless/ble_smart_sdk/lib/cm0/gcc\libblusdk.a(event.o)
                                                  ../src/ASF/thirdparty/wireless/ble_smart_sdk/lib/cm0/gcc\libblusdk.a(gap.o)
                                                  src/ASF/thirdparty/wireless/ble_smart_sdk/ble_services/ble_mgr/ble_manager.o
at_ble_event_user_defined_post                    ../src/ASF/thirdparty/wireless/ble_smart_sdk/lib/cm0/gcc\libblusdk.a(event.o)
at_ble_exchange_mtu                               ../src/ASF/thirdparty/wireless/ble_smart_sdk/lib/cm0/gcc\libblusdk.a(gatt_client.o)
at_ble_firmware_version_get                       ../src/ASF/thirdparty/wireless/ble_smart_sdk/lib/cm0/gcc\libblusdk.a(gap.o)
at_ble_gap_get_peer_deviceinfo                    ../src/ASF/thirdparty/wireless/ble_smart_sdk/lib/cm0/gcc\libblusdk.a(gap.o)
at_ble_get_whitelist_size                         ../src/ASF/thirdparty/wireless/ble_smart_sdk/lib/cm0/gcc\libblusdk.a(gap.o)
at_ble_included_service_discover_all              ../src/ASF/thirdparty/wireless/ble_smart_sdk/lib/cm0/gcc\libblusdk.a(gatt_client.o)
at_ble_indication_send                            ../src/ASF/thirdparty/wireless/ble_smart_sdk/lib/cm0/gcc\libblusdk.a(gatt_server.o)
at_ble_init                                       ../src/ASF/thirdparty/wireless/ble_smart_sdk/lib/cm0/gcc\libblusdk.a(gap.o)
                                                  src/ASF/thirdparty/wireless/ble_smart_sdk/ble_services/ble_mgr/ble_manager.o
at_ble_ll_reset                                   ../src/ASF/thirdparty/wireless/ble_smart_sdk/lib/cm0/gcc\libblusdk.a(gap.o)
at_ble_notification_send                          ../src/ASF/thirdparty/wireless/ble_smart_sdk/lib/cm0/gcc\libblusdk.a(gatt_server.o)
                                                  src/ASF/thirdparty/wireless/ble_smart_sdk/ble_services/battery/battery.o
                                                  src/sms_v_0_2/src/sms_ble.o
at_ble_pair_key_reply                             ../src/ASF/thirdparty/wireless/ble_smart_sdk/lib/cm0/gcc\libblusdk.a(security.o)
                                                  src/ASF/thirdparty/wireless/ble_smart_sdk/ble_services/ble_mgr/ble_manager.o
at_ble_primary_service_define                     ../src/ASF/thirdparty/wireless/ble_smart_sdk/lib/cm0/gcc\libblusdk.a(gatt_server.o)
                                                  src/ASF/thirdparty/wireless/ble_smart_sdk/ble_services/tx_power/tx_power.o
                                                  src/ASF/thirdparty/wireless/ble_smart_sdk/ble_services/link_loss/link_loss.o
                                                  src/ASF/thirdparty/wireless/ble_smart_sdk/ble_services/immediate_alert/immediate_alert.o
                                                  src/ASF/thirdparty/wireless/ble_smart_sdk/ble_services/battery/battery.o
                                                  src/sms_v_0_2/src/sms_ble.o
at_ble_primary_service_discover_all               ../src/ASF/thirdparty/wireless/ble_smart_sdk/lib/cm0/gcc\libblusdk.a(gatt_client.o)
at_ble_primary_service_discover_by_uuid           ../src/ASF/thirdparty/wireless/ble_smart_sdk/lib/cm0/gcc\libblusdk.a(gatt_client.o)
at_ble_random_address_resolve                     ../src/ASF/thirdparty/wireless/ble_smart_sdk/lib/cm0/gcc\libblusdk.a(gap.o)
                                                  src/ASF/thirdparty/wireless/ble_smart_sdk/ble_services/ble_mgr/ble_manager.o
at_ble_read_authorize_reply                       ../src/ASF/thirdparty/wireless/ble_smart_sdk/lib/cm0/gcc\libblusdk.a(gatt_server.o)
at_ble_rx_power_get                               ../src/ASF/thirdparty/wireless/ble_smart_sdk/lib/cm0/gcc\libblusdk.a(gap.o)
at_ble_scan_start                                 ../src/ASF/thirdparty/wireless/ble_smart_sdk/lib/cm0/gcc\libblusdk.a(gap.o)
                                                  src/ASF/thirdparty/wireless/ble_smart_sdk/ble_services/ble_mgr/ble_manager.o
at_ble_scan_stop                                  ../src/ASF/thirdparty/wireless/ble_smart_sdk/lib/cm0/gcc\libblusdk.a(gap.o)
                                                  src/ASF/thirdparty/wireless/ble_smart_sdk/ble_services/ble_mgr/ble_manager.o
at_ble_secondary_service_define                   ../src/ASF/thirdparty/wireless/ble_smart_sdk/lib/cm0/gcc\libblusdk.a(gatt_server.o)
at_ble_send_sec_config                            ../src/ASF/thirdparty/wireless/ble_smart_sdk/lib/cm0/gcc\libblusdk.a(gap.o)
at_ble_send_service_changed_indication            ../src/ASF/thirdparty/wireless/ble_smart_sdk/lib/cm0/gcc\libblusdk.a(gatt_server.o)
at_ble_send_slave_sec_request                     ../src/ASF/thirdparty/wireless/ble_smart_sdk/lib/cm0/gcc\libblusdk.a(security.o)
                                                  src/ASF/thirdparty/wireless/ble_smart_sdk/ble_services/ble_mgr/ble_manager.o
at_ble_service_define                             ../src/ASF/thirdparty/wireless/ble_smart_sdk/lib/cm0/gcc\libblusdk.a(gatt_server.o)
at_ble_set_adv_channel_Map                        ../src/ASF/thirdparty/wireless/ble_smart_sdk/lib/cm0/gcc\libblusdk.a(gap.o)
at_ble_set_att_config                             ../src/ASF/thirdparty/wireless/ble_smart_sdk/lib/cm0/gcc\libblusdk.a(gap.o)
at_ble_set_channel_map                            ../src/ASF/thirdparty/wireless/ble_smart_sdk/lib/cm0/gcc\libblusdk.a(gap.o)
at_ble_set_conn_mode                              ../src/ASF/thirdparty/wireless/ble_smart_sdk/lib/cm0/gcc\libblusdk.a(gap.o)
at_ble_set_dev_config                             ../src/ASF/thirdparty/wireless/ble_smart_sdk/lib/cm0/gcc\libblusdk.a(gap.o)
                                                  src/ASF/thirdparty/wireless/ble_smart_sdk/ble_services/ble_mgr/ble_manager.o
at_ble_set_gap_deviceinfo                         ../src/ASF/thirdparty/wireless/ble_smart_sdk/lib/cm0/gcc\libblusdk.a(gap.o)
at_ble_set_privacy_key                            ../src/ASF/thirdparty/wireless/ble_smart_sdk/lib/cm0/gcc\libblusdk.a(gap.o)
at_ble_tx_power_get                               ../src/ASF/thirdparty/wireless/ble_smart_sdk/lib/cm0/gcc\libblusdk.a(gap.o)
at_ble_tx_power_set                               ../src/ASF/thirdparty/wireless/ble_smart_sdk/lib/cm0/gcc\libblusdk.a(gap.o)
at_ble_uuid_len2type                              ../src/ASF/thirdparty/wireless/ble_smart_sdk/lib/cm0/gcc\libblusdk.a(gap.o)
                                                  ../src/ASF/thirdparty/wireless/ble_smart_sdk/lib/cm0/gcc\libblusdk.a(gattc_task.o)
at_ble_uuid_type2len                              ../src/ASF/thirdparty/wireless/ble_smart_sdk/lib/cm0/gcc\libblusdk.a(gap.o)
                                                  ../src/ASF/thirdparty/wireless/ble_smart_sdk/lib/cm0/gcc\libblusdk.a(gatt_server.o)
                                                  ../src/ASF/thirdparty/wireless/ble_smart_sdk/lib/cm0/gcc\libblusdk.a(gatt_client.o)
at_ble_whitelist_add                              ../src/ASF/thirdparty/wireless/ble_smart_sdk/lib/cm0/gcc\libblusdk.a(gap.o)
at_ble_whitelist_clear                            ../src/ASF/thirdparty/wireless/ble_smart_sdk/lib/cm0/gcc\libblusdk.a(gap.o)
at_ble_whitelist_remove                           ../src/ASF/thirdparty/wireless/ble_smart_sdk/lib/cm0/gcc\libblusdk.a(gap.o)
at_ble_write_authorize_reply                      ../src/ASF/thirdparty/wireless/ble_smart_sdk/lib/cm0/gcc\libblusdk.a(gatt_server.o)
atexit                                            c:/program files (x86)/atmel/studio/7.0/toolchain/arm/arm-gnu-toolchain/bin/../lib/gcc/arm-none-eabi/5.3.1/../../../../arm-none-eabi/lib/armv6-m/crt0.o
att_db_data                                       src/ASF/thirdparty/wireless/ble_smart_sdk/ble_services/ble_mgr/ble_manager.o
bat_char_changed_event                            src/ASF/thirdparty/wireless/ble_smart_sdk/ble_services/battery/battery.o
bat_init_service                                  src/ASF/thirdparty/wireless/ble_smart_sdk/ble_services/battery/battery.o
bat_notification_flag                             src/ASF/thirdparty/wireless/ble_smart_sdk/ble_services/battery/battery.o
bat_primary_service_define                        src/ASF/thirdparty/wireless/ble_smart_sdk/ble_services/battery/battery.o
bat_update_char_value                             src/ASF/thirdparty/wireless/ble_smart_sdk/ble_services/battery/battery.o
battery_init_value                                src/ASF/thirdparty/wireless/ble_smart_sdk/ble_services/battery/battery.o
ble_adv_report_handler                            src/ASF/thirdparty/wireless/ble_smart_sdk/ble_services/ble_mgr/ble_manager.o
ble_advertisement_data_set                        src/ASF/thirdparty/wireless/ble_smart_sdk/ble_services/ble_mgr/ble_manager.o
                                                  src/ASF/thirdparty/wireless/ble_smart_sdk/ble_profiles/pxp_reporter/pxp_reporter.o
                                                  src/sms_v_0_2/src/sms_ble.o
ble_characteristic_write_cmd_complete_handler     src/ASF/thirdparty/wireless/ble_smart_sdk/ble_services/ble_mgr/ble_manager.o
ble_check_device_state                            src/ASF/thirdparty/wireless/ble_smart_sdk/ble_services/ble_mgr/ble_manager.o
ble_check_disconnected_iscentral                  src/ASF/thirdparty/wireless/ble_smart_sdk/ble_services/ble_mgr/ble_manager.o
ble_check_iscentral                               src/ASF/thirdparty/wireless/ble_smart_sdk/ble_services/ble_mgr/ble_manager.o
ble_check_ispheripheral                           src/ASF/thirdparty/wireless/ble_smart_sdk/ble_services/ble_mgr/ble_manager.o
ble_conn_param_update                             src/ASF/thirdparty/wireless/ble_smart_sdk/ble_services/ble_mgr/ble_manager.o
ble_conn_param_update_req                         src/ASF/thirdparty/wireless/ble_smart_sdk/ble_services/ble_mgr/ble_manager.o
ble_connected_device_role                         src/ASF/thirdparty/wireless/ble_smart_sdk/ble_services/ble_mgr/ble_manager.o
ble_connected_state_handler                       src/ASF/thirdparty/wireless/ble_smart_sdk/ble_services/ble_mgr/ble_manager.o
ble_dev_info                                      src/ASF/thirdparty/wireless/ble_smart_sdk/ble_services/ble_mgr/ble_manager.o
ble_device_count                                  src/ASF/thirdparty/wireless/ble_smart_sdk/ble_services/ble_mgr/ble_manager.o
ble_device_init                                   src/ASF/thirdparty/wireless/ble_smart_sdk/ble_services/ble_mgr/ble_manager.o
                                                  src/sms_peripheral1.o
ble_disconnected_device_role                      src/ASF/thirdparty/wireless/ble_smart_sdk/ble_services/ble_mgr/ble_manager.o
ble_disconnected_state_handler                    src/ASF/thirdparty/wireless/ble_smart_sdk/ble_services/ble_mgr/ble_manager.o
ble_encryption_request_handler                    src/ASF/thirdparty/wireless/ble_smart_sdk/ble_services/ble_mgr/ble_manager.o
ble_encryption_status_change_handler              src/ASF/thirdparty/wireless/ble_smart_sdk/ble_services/ble_mgr/ble_manager.o
ble_event_manager                                 src/ASF/thirdparty/wireless/ble_smart_sdk/ble_services/ble_mgr/ble_manager.o
ble_event_params                                  src/ASF/thirdparty/wireless/ble_smart_sdk/ble_services/ble_mgr/ble_manager.o
ble_event_task                                    src/ASF/thirdparty/wireless/ble_smart_sdk/ble_services/ble_mgr/ble_manager.o
                                                  src/sms_peripheral1.o
ble_get_ulp_status                                src/ASF/thirdparty/wireless/ble_smart_sdk/ble_services/ble_mgr/ble_manager.o
ble_instance                                      src/sms_peripheral1.o
                                                  src/ASF/thirdparty/wireless/ble_smart_sdk/ble_services/ble_mgr/ble_manager.o
                                                  src/sms_v_0_2/src/sms_timer.o
                                                  src/sms_v_0_2/src/sms_spi.o
                                                  src/sms_v_0_2/src/sms_sensors.o
                                                  src/sms_v_0_2/src/sms_pressure.o
                                                  src/sms_v_0_2/src/sms_led.o
                                                  src/sms_v_0_2/src/sms_mpu.o
                                                  src/sms_v_0_2/src/sms_i2c.o
                                                  src/sms_v_0_2/src/sms_common.o
                                                  src/sms_v_0_2/src/sms_button.o
                                                  src/sms_v_0_2/src/sms_ble.o
                                                  src/ASF/thirdparty/sensor/mpu9250_kriswiner/quaternion_ahrs.o
ble_mgr_custom_event_cb                           src/ASF/thirdparty/wireless/ble_smart_sdk/ble_services/ble_mgr/ble_manager.o
ble_mgr_dtm_event_cb                              src/ASF/thirdparty/wireless/ble_smart_sdk/ble_services/ble_mgr/ble_manager.o
ble_mgr_events_callback_handler                   src/ASF/thirdparty/wireless/ble_smart_sdk/ble_services/ble_mgr/ble_manager.o
                                                  src/sms_peripheral1.o
                                                  src/ASF/thirdparty/wireless/ble_smart_sdk/ble_profiles/pxp_reporter/pxp_reporter.o
ble_mgr_gap_event_cb                              src/ASF/thirdparty/wireless/ble_smart_sdk/ble_services/ble_mgr/ble_manager.o
ble_mgr_gatt_client_event_cb                      src/ASF/thirdparty/wireless/ble_smart_sdk/ble_services/ble_mgr/ble_manager.o
ble_mgr_gatt_server_event_cb                      src/ASF/thirdparty/wireless/ble_smart_sdk/ble_services/ble_mgr/ble_manager.o
ble_mgr_htpt_event_cb                             src/ASF/thirdparty/wireless/ble_smart_sdk/ble_services/ble_mgr/ble_manager.o
ble_mgr_l2cap_event_cb                            src/ASF/thirdparty/wireless/ble_smart_sdk/ble_services/ble_mgr/ble_manager.o
ble_mtu_changed_cmd_complete_handler              src/ASF/thirdparty/wireless/ble_smart_sdk/ble_services/ble_mgr/ble_manager.o
ble_mtu_changed_indication_handler                src/ASF/thirdparty/wireless/ble_smart_sdk/ble_services/ble_mgr/ble_manager.o
ble_pair_done_handler                             src/ASF/thirdparty/wireless/ble_smart_sdk/ble_services/ble_mgr/ble_manager.o
ble_pair_key_request_handler                      src/ASF/thirdparty/wireless/ble_smart_sdk/ble_services/ble_mgr/ble_manager.o
ble_pair_request_handler                          src/ASF/thirdparty/wireless/ble_smart_sdk/ble_services/ble_mgr/ble_manager.o
ble_resolv_rand_addr_handler                      src/ASF/thirdparty/wireless/ble_smart_sdk/ble_services/ble_mgr/ble_manager.o
ble_scan_info_handler                             src/ASF/thirdparty/wireless/ble_smart_sdk/ble_services/ble_mgr/ble_manager.o
ble_scan_report_handler                           src/ASF/thirdparty/wireless/ble_smart_sdk/ble_services/ble_mgr/ble_manager.o
ble_send_slave_sec_request                        src/ASF/thirdparty/wireless/ble_smart_sdk/ble_services/ble_mgr/ble_manager.o
ble_set_device_name                               src/ASF/thirdparty/wireless/ble_smart_sdk/ble_services/ble_mgr/ble_manager.o
ble_set_ulp_mode                                  src/ASF/thirdparty/wireless/ble_smart_sdk/ble_services/ble_mgr/ble_manager.o
ble_slave_security_request_handler                src/ASF/thirdparty/wireless/ble_smart_sdk/ble_services/ble_mgr/ble_manager.o
ble_undefined_event_handler                       src/ASF/thirdparty/wireless/ble_smart_sdk/ble_services/ble_mgr/ble_manager.o
ble_user_event_cb                                 src/ASF/thirdparty/wireless/ble_smart_sdk/ble_services/ble_mgr/ble_manager.o
board_init                                        src/ASF/sam0/boards/samb11_xplained_pro/board_init.o
button_cb_func                                    src/ASF/thirdparty/wireless/ble_smart_sdk/services/gpio/button.o
button_init                                       src/ASF/thirdparty/wireless/ble_smart_sdk/services/gpio/button.o
button_instance                                   src/sms_peripheral1.o
                                                  src/ASF/thirdparty/wireless/ble_smart_sdk/ble_services/ble_mgr/ble_manager.o
                                                  src/sms_v_0_2/src/sms_timer.o
                                                  src/sms_v_0_2/src/sms_spi.o
                                                  src/sms_v_0_2/src/sms_sensors.o
                                                  src/sms_v_0_2/src/sms_pressure.o
                                                  src/sms_v_0_2/src/sms_led.o
                                                  src/sms_v_0_2/src/sms_mpu.o
                                                  src/sms_v_0_2/src/sms_i2c.o
                                                  src/sms_v_0_2/src/sms_common.o
                                                  src/sms_v_0_2/src/sms_button.o
                                                  src/sms_v_0_2/src/sms_ble.o
                                                  src/ASF/thirdparty/sensor/mpu9250_kriswiner/quaternion_ahrs.o
button_register_callback                          src/ASF/thirdparty/wireless/ble_smart_sdk/services/gpio/button.o
calib_config                                      ../src/ASF/thirdparty/wireless/ble_smart_sdk/lib/cm0/gcc\libblusdk.a(calib_task.o)
                                                  ../src/ASF/thirdparty/wireless/ble_smart_sdk/lib/cm0/gcc\libblusdk.a(gap.o)
calib_get_temp                                    ../src/ASF/thirdparty/wireless/ble_smart_sdk/lib/cm0/gcc\libblusdk.a(calib_task.o)
                                                  ../src/ASF/thirdparty/wireless/ble_smart_sdk/lib/cm0/gcc\libblusdk.a(gap.o)
calib_get_voltage                                 ../src/ASF/thirdparty/wireless/ble_smart_sdk/lib/cm0/gcc\libblusdk.a(calib_task.o)
                                                  ../src/ASF/thirdparty/wireless/ble_smart_sdk/lib/cm0/gcc\libblusdk.a(gap.o)
char_uuid                                         ../src/ASF/thirdparty/wireless/ble_smart_sdk/lib/cm0/gcc\libblusdk.a(gatt_server.o)
check_ConnData_emptyEntry                         ../src/ASF/thirdparty/wireless/ble_smart_sdk/lib/cm0/gcc\libblusdk.a(gapc_task.o)
                                                  ../src/ASF/thirdparty/wireless/ble_smart_sdk/lib/cm0/gcc\libblusdk.a(gapm_task.o)
                                                  ../src/ASF/thirdparty/wireless/ble_smart_sdk/lib/cm0/gcc\libblusdk.a(gap.o)
check_ConnData_idx_role                           ../src/ASF/thirdparty/wireless/ble_smart_sdk/lib/cm0/gcc\libblusdk.a(gapc_task.o)
                                                  ../src/ASF/thirdparty/wireless/ble_smart_sdk/lib/cm0/gcc\libblusdk.a(gapm_task.o)
                                                  ../src/ASF/thirdparty/wireless/ble_smart_sdk/lib/cm0/gcc\libblusdk.a(security.o)
cleanup_glue                                      c:/program files (x86)/atmel/studio/7.0/toolchain/arm/arm-gnu-toolchain/bin/../lib/gcc/arm-none-eabi/5.3.1/../../../../arm-none-eabi/lib/armv6-m\libc_nano.a(lib_a-reent.o)
client_conf_uuid                                  ../src/ASF/thirdparty/wireless/ble_smart_sdk/lib/cm0/gcc\libblusdk.a(gatt_server.o)
config_uart                                       src/ASF/thirdparty/wireless/ble_smart_sdk/services/uart/console_serial.o
connected_cb                                      src/ASF/thirdparty/wireless/ble_smart_sdk/ble_profiles/pxp_reporter/pxp_reporter.o
connected_state_info                              src/ASF/thirdparty/wireless/ble_smart_sdk/ble_services/ble_mgr/ble_manager.o
copysign                                          c:/program files (x86)/atmel/studio/7.0/toolchain/arm/arm-gnu-toolchain/bin/../lib/gcc/arm-none-eabi/5.3.1/../../../../arm-none-eabi/lib/armv6-m\libm.a(lib_a-s_copysign.o)
                                                  c:/program files (x86)/atmel/studio/7.0/toolchain/arm/arm-gnu-toolchain/bin/../lib/gcc/arm-none-eabi/5.3.1/../../../../arm-none-eabi/lib/armv6-m\libm.a(lib_a-s_scalbn.o)
cpu_irq_enter_critical                            src/ASF/common/utils/interrupt/interrupt_sam_nvic.o
cpu_irq_leave_critical                            src/ASF/common/utils/interrupt/interrupt_sam_nvic.o
db_init                                           ../src/ASF/thirdparty/wireless/ble_smart_sdk/lib/cm0/gcc\libblusdk.a(gatt_server.o)
                                                  ../src/ASF/thirdparty/wireless/ble_smart_sdk/lib/cm0/gcc\libblusdk.a(gap.o)
dbg_le_set_bd_addr_req_handler                    ../src/ASF/thirdparty/wireless/ble_smart_sdk/lib/cm0/gcc\libblusdk.a(dbg_task.o)
                                                  ../src/ASF/thirdparty/wireless/ble_smart_sdk/lib/cm0/gcc\libblusdk.a(gap.o)
dbg_rd_mem_req_handler                            ../src/ASF/thirdparty/wireless/ble_smart_sdk/lib/cm0/gcc\libblusdk.a(dbg_task.o)
                                                  ../src/ASF/thirdparty/wireless/ble_smart_sdk/lib/cm0/gcc\libblusdk.a(gap.o)
dbg_wr_mem_req_handler                            ../src/ASF/thirdparty/wireless/ble_smart_sdk/lib/cm0/gcc\libblusdk.a(dbg_task.o)
                                                  ../src/ASF/thirdparty/wireless/ble_smart_sdk/lib/cm0/gcc\libblusdk.a(gap.o)
default_samb11_clock_init                         src/ASF/thirdparty/wireless/ble_smart_sdk/src/platform_drv.o
delay_ms                                          src/sms_v_0_2/src/sms_timer.o
                                                  src/sms_v_0_2/src/sms_pressure.o
                                                  src/sms_v_0_2/src/sms_mpu.o
device                                            ../src/ASF/thirdparty/wireless/ble_smart_sdk/lib/cm0/gcc\libblusdk.a(gap.o)
                                                  ../src/ASF/thirdparty/wireless/ble_smart_sdk/lib/cm0/gcc\libblusdk.a(gapm_task.o)
                                                  ../src/ASF/thirdparty/wireless/ble_smart_sdk/lib/cm0/gcc\libblusdk.a(gapc_task.o)
                                                  ../src/ASF/thirdparty/wireless/ble_smart_sdk/lib/cm0/gcc\libblusdk.a(security.o)
dualtimer_callback2                               src/ASF/thirdparty/wireless/ble_smart_sdk/services/dualtimer/timer_hw.o
dualtimer_clear_interrupt_status                  src/ASF/sam0/drivers/dualtimer/dualtimer.o
dualtimer_disable                                 src/ASF/sam0/drivers/dualtimer/dualtimer.o
                                                  src/ASF/thirdparty/wireless/ble_smart_sdk/services/dualtimer/timer_hw.o
                                                  src/sms_v_0_2/src/sms_timer.o
dualtimer_enable                                  src/ASF/sam0/drivers/dualtimer/dualtimer.o
                                                  src/ASF/thirdparty/wireless/ble_smart_sdk/services/dualtimer/timer_hw.o
                                                  src/sms_v_0_2/src/sms_timer.o
dualtimer_get_config_defaults                     src/ASF/sam0/drivers/dualtimer/dualtimer.o
                                                  src/ASF/thirdparty/wireless/ble_smart_sdk/services/dualtimer/timer_hw.o
                                                  src/sms_v_0_2/src/sms_timer.o
dualtimer_get_interrupt_status                    src/ASF/sam0/drivers/dualtimer/dualtimer.o
dualtimer_get_status                              src/ASF/sam0/drivers/dualtimer/dualtimer.o
dualtimer_get_value                               src/ASF/sam0/drivers/dualtimer/dualtimer.o
                                                  src/sms_v_0_2/src/sms_timer.o
dualtimer_init                                    src/ASF/sam0/drivers/dualtimer/dualtimer.o
                                                  src/ASF/thirdparty/wireless/ble_smart_sdk/services/dualtimer/timer_hw.o
                                                  src/sms_v_0_2/src/sms_timer.o
dualtimer_register_callback                       src/ASF/sam0/drivers/dualtimer/dualtimer.o
                                                  src/ASF/thirdparty/wireless/ble_smart_sdk/services/dualtimer/timer_hw.o
                                                  src/sms_v_0_2/src/sms_timer.o
dualtimer_set_counter                             src/ASF/sam0/drivers/dualtimer/dualtimer.o
                                                  src/ASF/thirdparty/wireless/ble_smart_sdk/services/dualtimer/timer_hw.o
                                                  src/sms_v_0_2/src/sms_timer.o
dualtimer_unregister_callback                     src/ASF/sam0/drivers/dualtimer/dualtimer.o
dummy_buffer                                      ../src/ASF/thirdparty/wireless/ble_smart_sdk/lib/cm0/gcc\libblusdk.a(interface.o)
                                                  ../src/ASF/thirdparty/wireless/ble_smart_sdk/lib/cm0/gcc\libblusdk.a(gatt_server.o)
dummy_buffer_buff                                 ../src/ASF/thirdparty/wireless/ble_smart_sdk/lib/cm0/gcc\libblusdk.a(interface.o)
errno                                             c:/program files (x86)/atmel/studio/7.0/toolchain/arm/arm-gnu-toolchain/bin/../lib/gcc/arm-none-eabi/5.3.1/../../../../arm-none-eabi/lib/armv6-m\libc_nano.a(lib_a-reent.o)
                                                  c:/program files (x86)/atmel/studio/7.0/toolchain/arm/arm-gnu-toolchain/bin/../lib/gcc/arm-none-eabi/5.3.1/../../../../arm-none-eabi/lib/armv6-m\libc_nano.a(lib_a-readr.o)
                                                  c:/program files (x86)/atmel/studio/7.0/toolchain/arm/arm-gnu-toolchain/bin/../lib/gcc/arm-none-eabi/5.3.1/../../../../arm-none-eabi/lib/armv6-m\libc_nano.a(lib_a-lseekr.o)
                                                  c:/program files (x86)/atmel/studio/7.0/toolchain/arm/arm-gnu-toolchain/bin/../lib/gcc/arm-none-eabi/5.3.1/../../../../arm-none-eabi/lib/armv6-m\libc_nano.a(lib_a-isattyr.o)
                                                  c:/program files (x86)/atmel/studio/7.0/toolchain/arm/arm-gnu-toolchain/bin/../lib/gcc/arm-none-eabi/5.3.1/../../../../arm-none-eabi/lib/armv6-m\libc_nano.a(lib_a-fstatr.o)
                                                  c:/program files (x86)/atmel/studio/7.0/toolchain/arm/arm-gnu-toolchain/bin/../lib/gcc/arm-none-eabi/5.3.1/../../../../arm-none-eabi/lib/armv6-m\libc_nano.a(lib_a-closer.o)
                                                  c:/program files (x86)/atmel/studio/7.0/toolchain/arm/arm-gnu-toolchain/bin/../lib/gcc/arm-none-eabi/5.3.1/../../../../arm-none-eabi/lib/armv6-m\libc_nano.a(lib_a-writer.o)
                                                  c:/program files (x86)/atmel/studio/7.0/toolchain/arm/arm-gnu-toolchain/bin/../lib/gcc/arm-none-eabi/5.3.1/../../../../arm-none-eabi/lib/armv6-m\libc_nano.a(lib_a-sbrkr.o)
event                                             src/ASF/thirdparty/wireless/ble_smart_sdk/ble_services/ble_mgr/ble_manager.o
event_param_buff                                  ../src/ASF/thirdparty/wireless/ble_smart_sdk/lib/cm0/gcc\libblusdk.a(interface.o)
event_param_buff_index                            ../src/ASF/thirdparty/wireless/ble_smart_sdk/lib/cm0/gcc\libblusdk.a(interface.o)
event_param_buff_length                           ../src/ASF/thirdparty/wireless/ble_smart_sdk/lib/cm0/gcc\libblusdk.a(interface.o)
event_params_memory                               src/ASF/thirdparty/wireless/ble_smart_sdk/ble_services/ble_mgr/ble_manager.o
event_pool_memory                                 src/ASF/thirdparty/wireless/ble_smart_sdk/ble_services/ble_mgr/ble_manager.o
exit                                              c:/program files (x86)/atmel/studio/7.0/toolchain/arm/arm-gnu-toolchain/bin/../lib/gcc/arm-none-eabi/5.3.1/../../../../arm-none-eabi/lib/armv6-m\libc_nano.a(lib_a-exit.o)
                                                  c:/program files (x86)/atmel/studio/7.0/toolchain/arm/arm-gnu-toolchain/bin/../lib/gcc/arm-none-eabi/5.3.1/../../../../arm-none-eabi/lib/armv6-m/crt0.o
extended_props_uuid                               ../src/ASF/thirdparty/wireless/ble_smart_sdk/lib/cm0/gcc\libblusdk.a(gatt_server.o)
fabs                                              c:/program files (x86)/atmel/studio/7.0/toolchain/arm/arm-gnu-toolchain/bin/../lib/gcc/arm-none-eabi/5.3.1/../../../../arm-none-eabi/lib/armv6-m\libm.a(lib_a-s_fabs.o)
                                                  c:/program files (x86)/atmel/studio/7.0/toolchain/arm/arm-gnu-toolchain/bin/../lib/gcc/arm-none-eabi/5.3.1/../../../../arm-none-eabi/lib/armv6-m\libm.a(lib_a-e_pow.o)
fflush                                            c:/program files (x86)/atmel/studio/7.0/toolchain/arm/arm-gnu-toolchain/bin/../lib/gcc/arm-none-eabi/5.3.1/../../../../arm-none-eabi/lib/armv6-m\libc_nano.a(lib_a-fflush.o)
finite                                            c:/program files (x86)/atmel/studio/7.0/toolchain/arm/arm-gnu-toolchain/bin/../lib/gcc/arm-none-eabi/5.3.1/../../../../arm-none-eabi/lib/armv6-m\libm.a(lib_a-s_finite.o)
                                                  c:/program files (x86)/atmel/studio/7.0/toolchain/arm/arm-gnu-toolchain/bin/../lib/gcc/arm-none-eabi/5.3.1/../../../../arm-none-eabi/lib/armv6-m\libm.a(lib_a-w_pow.o)
free                                              c:/program files (x86)/atmel/studio/7.0/toolchain/arm/arm-gnu-toolchain/bin/../lib/gcc/arm-none-eabi/5.3.1/../../../../arm-none-eabi/lib/armv6-m\libc_nano.a(lib_a-malloc.o)
g_interrupt_enabled                               src/ASF/common/utils/interrupt/interrupt_sam_nvic.o
gap_dev_connect                                   src/ASF/thirdparty/wireless/ble_smart_sdk/ble_services/ble_mgr/ble_manager.o
gap_dev_scan                                      src/ASF/thirdparty/wireless/ble_smart_sdk/ble_services/ble_mgr/ble_manager.o
gapc_bond_cfm_handler_key_exch                    ../src/ASF/thirdparty/wireless/ble_smart_sdk/lib/cm0/gcc\libblusdk.a(gapc_task.o)
                                                  ../src/ASF/thirdparty/wireless/ble_smart_sdk/lib/cm0/gcc\libblusdk.a(security.o)
gapc_bond_cfm_handler_pair_resp                   ../src/ASF/thirdparty/wireless/ble_smart_sdk/lib/cm0/gcc\libblusdk.a(gapc_task.o)
                                                  ../src/ASF/thirdparty/wireless/ble_smart_sdk/lib/cm0/gcc\libblusdk.a(security.o)
gapc_bond_cmd_handler                             ../src/ASF/thirdparty/wireless/ble_smart_sdk/lib/cm0/gcc\libblusdk.a(gapc_task.o)
                                                  ../src/ASF/thirdparty/wireless/ble_smart_sdk/lib/cm0/gcc\libblusdk.a(security.o)
gapc_bond_ind                                     ../src/ASF/thirdparty/wireless/ble_smart_sdk/lib/cm0/gcc\libblusdk.a(gapc_task.o)
                                                  ../src/ASF/thirdparty/wireless/ble_smart_sdk/lib/cm0/gcc\libblusdk.a(event.o)
gapc_bond_req_ind                                 ../src/ASF/thirdparty/wireless/ble_smart_sdk/lib/cm0/gcc\libblusdk.a(gapc_task.o)
                                                  ../src/ASF/thirdparty/wireless/ble_smart_sdk/lib/cm0/gcc\libblusdk.a(event.o)
gapc_cmp_evt                                      ../src/ASF/thirdparty/wireless/ble_smart_sdk/lib/cm0/gcc\libblusdk.a(gapc_task.o)
                                                  ../src/ASF/thirdparty/wireless/ble_smart_sdk/lib/cm0/gcc\libblusdk.a(event.o)
gapc_con_channel_map_ind_handler                  ../src/ASF/thirdparty/wireless/ble_smart_sdk/lib/cm0/gcc\libblusdk.a(gapc_task.o)
                                                  ../src/ASF/thirdparty/wireless/ble_smart_sdk/lib/cm0/gcc\libblusdk.a(event.o)
gapc_con_req_ind                                  ../src/ASF/thirdparty/wireless/ble_smart_sdk/lib/cm0/gcc\libblusdk.a(gapc_task.o)
                                                  ../src/ASF/thirdparty/wireless/ble_smart_sdk/lib/cm0/gcc\libblusdk.a(event.o)
gapc_connection_cfm_handler                       ../src/ASF/thirdparty/wireless/ble_smart_sdk/lib/cm0/gcc\libblusdk.a(gapc_task.o)
                                                  ../src/ASF/thirdparty/wireless/ble_smart_sdk/lib/cm0/gcc\libblusdk.a(gap.o)
gapc_dev_info_req_ind_handler                     ../src/ASF/thirdparty/wireless/ble_smart_sdk/lib/cm0/gcc\libblusdk.a(gapc_task.o)
                                                  ../src/ASF/thirdparty/wireless/ble_smart_sdk/lib/cm0/gcc\libblusdk.a(event.o)
gapc_disconnect_cmd_handler                       ../src/ASF/thirdparty/wireless/ble_smart_sdk/lib/cm0/gcc\libblusdk.a(gapc_task.o)
                                                  ../src/ASF/thirdparty/wireless/ble_smart_sdk/lib/cm0/gcc\libblusdk.a(gap.o)
gapc_disconnect_ind                               ../src/ASF/thirdparty/wireless/ble_smart_sdk/lib/cm0/gcc\libblusdk.a(gapc_task.o)
                                                  ../src/ASF/thirdparty/wireless/ble_smart_sdk/lib/cm0/gcc\libblusdk.a(event.o)
gapc_encrypt_cfm_handler                          ../src/ASF/thirdparty/wireless/ble_smart_sdk/lib/cm0/gcc\libblusdk.a(gapc_task.o)
                                                  ../src/ASF/thirdparty/wireless/ble_smart_sdk/lib/cm0/gcc\libblusdk.a(security.o)
gapc_encrypt_cmd_handler                          ../src/ASF/thirdparty/wireless/ble_smart_sdk/lib/cm0/gcc\libblusdk.a(gapc_task.o)
                                                  ../src/ASF/thirdparty/wireless/ble_smart_sdk/lib/cm0/gcc\libblusdk.a(security.o)
gapc_encrypt_ind                                  ../src/ASF/thirdparty/wireless/ble_smart_sdk/lib/cm0/gcc\libblusdk.a(gapc_task.o)
                                                  ../src/ASF/thirdparty/wireless/ble_smart_sdk/lib/cm0/gcc\libblusdk.a(event.o)
gapc_encrypt_req_ind                              ../src/ASF/thirdparty/wireless/ble_smart_sdk/lib/cm0/gcc\libblusdk.a(gapc_task.o)
                                                  ../src/ASF/thirdparty/wireless/ble_smart_sdk/lib/cm0/gcc\libblusdk.a(event.o)
gapc_get_info_cmd_handler                         ../src/ASF/thirdparty/wireless/ble_smart_sdk/lib/cm0/gcc\libblusdk.a(gapc_task.o)
                                                  ../src/ASF/thirdparty/wireless/ble_smart_sdk/lib/cm0/gcc\libblusdk.a(gap.o)
gapc_lecb_add_cmd_handler                         ../src/ASF/thirdparty/wireless/ble_smart_sdk/lib/cm0/gcc\libblusdk.a(gapc_task.o)
gapc_lecb_add_credit_resp_handler                 ../src/ASF/thirdparty/wireless/ble_smart_sdk/lib/cm0/gcc\libblusdk.a(gapc_task.o)
                                                  ../src/ASF/thirdparty/wireless/ble_smart_sdk/lib/cm0/gcc\libblusdk.a(event.o)
gapc_lecb_connect_cfm_handler                     ../src/ASF/thirdparty/wireless/ble_smart_sdk/lib/cm0/gcc\libblusdk.a(gapc_task.o)
gapc_lecb_connect_cmd_handler                     ../src/ASF/thirdparty/wireless/ble_smart_sdk/lib/cm0/gcc\libblusdk.a(gapc_task.o)
gapc_lecb_connect_req_ind                         ../src/ASF/thirdparty/wireless/ble_smart_sdk/lib/cm0/gcc\libblusdk.a(gapc_task.o)
                                                  ../src/ASF/thirdparty/wireless/ble_smart_sdk/lib/cm0/gcc\libblusdk.a(event.o)
gapc_lecb_connected                               ../src/ASF/thirdparty/wireless/ble_smart_sdk/lib/cm0/gcc\libblusdk.a(gapc_task.o)
                                                  ../src/ASF/thirdparty/wireless/ble_smart_sdk/lib/cm0/gcc\libblusdk.a(event.o)
gapc_lecb_create_handler                          ../src/ASF/thirdparty/wireless/ble_smart_sdk/lib/cm0/gcc\libblusdk.a(gapc_task.o)
gapc_lecb_destroy_handler                         ../src/ASF/thirdparty/wireless/ble_smart_sdk/lib/cm0/gcc\libblusdk.a(gapc_task.o)
gapc_lecb_disconnect_cmd_handler                  ../src/ASF/thirdparty/wireless/ble_smart_sdk/lib/cm0/gcc\libblusdk.a(gapc_task.o)
gapc_lecb_disconnected                            ../src/ASF/thirdparty/wireless/ble_smart_sdk/lib/cm0/gcc\libblusdk.a(gapc_task.o)
                                                  ../src/ASF/thirdparty/wireless/ble_smart_sdk/lib/cm0/gcc\libblusdk.a(event.o)
gapc_param_update_cfm_handler                     ../src/ASF/thirdparty/wireless/ble_smart_sdk/lib/cm0/gcc\libblusdk.a(gapc_task.o)
                                                  ../src/ASF/thirdparty/wireless/ble_smart_sdk/lib/cm0/gcc\libblusdk.a(gap.o)
gapc_param_update_cmd_handler                     ../src/ASF/thirdparty/wireless/ble_smart_sdk/lib/cm0/gcc\libblusdk.a(gapc_task.o)
                                                  ../src/ASF/thirdparty/wireless/ble_smart_sdk/lib/cm0/gcc\libblusdk.a(gap.o)
gapc_param_updated_ind                            ../src/ASF/thirdparty/wireless/ble_smart_sdk/lib/cm0/gcc\libblusdk.a(gapc_task.o)
                                                  ../src/ASF/thirdparty/wireless/ble_smart_sdk/lib/cm0/gcc\libblusdk.a(event.o)
gapc_param_updated_req_ind                        ../src/ASF/thirdparty/wireless/ble_smart_sdk/lib/cm0/gcc\libblusdk.a(gapc_task.o)
                                                  ../src/ASF/thirdparty/wireless/ble_smart_sdk/lib/cm0/gcc\libblusdk.a(event.o)
gapc_peer_att_info_ind_handler                    ../src/ASF/thirdparty/wireless/ble_smart_sdk/lib/cm0/gcc\libblusdk.a(gapc_task.o)
                                                  ../src/ASF/thirdparty/wireless/ble_smart_sdk/lib/cm0/gcc\libblusdk.a(event.o)
gapc_sec_req_ind                                  ../src/ASF/thirdparty/wireless/ble_smart_sdk/lib/cm0/gcc\libblusdk.a(gapc_task.o)
                                                  ../src/ASF/thirdparty/wireless/ble_smart_sdk/lib/cm0/gcc\libblusdk.a(event.o)
gapc_security_cmd_handler                         ../src/ASF/thirdparty/wireless/ble_smart_sdk/lib/cm0/gcc\libblusdk.a(gapc_task.o)
                                                  ../src/ASF/thirdparty/wireless/ble_smart_sdk/lib/cm0/gcc\libblusdk.a(security.o)
gapc_sign_counter_ind_handler                     ../src/ASF/thirdparty/wireless/ble_smart_sdk/lib/cm0/gcc\libblusdk.a(gapc_task.o)
                                                  ../src/ASF/thirdparty/wireless/ble_smart_sdk/lib/cm0/gcc\libblusdk.a(event.o)
gapm_addr_solved_ind_handler                      ../src/ASF/thirdparty/wireless/ble_smart_sdk/lib/cm0/gcc\libblusdk.a(gapm_task.o)
                                                  ../src/ASF/thirdparty/wireless/ble_smart_sdk/lib/cm0/gcc\libblusdk.a(event.o)
gapm_adv_report_evt_handler                       ../src/ASF/thirdparty/wireless/ble_smart_sdk/lib/cm0/gcc\libblusdk.a(gapm_task.o)
                                                  ../src/ASF/thirdparty/wireless/ble_smart_sdk/lib/cm0/gcc\libblusdk.a(event.o)
gapm_cancel_cmd_handler                           ../src/ASF/thirdparty/wireless/ble_smart_sdk/lib/cm0/gcc\libblusdk.a(gapm_task.o)
                                                  ../src/ASF/thirdparty/wireless/ble_smart_sdk/lib/cm0/gcc\libblusdk.a(gap.o)
gapm_cmp_evt                                      ../src/ASF/thirdparty/wireless/ble_smart_sdk/lib/cm0/gcc\libblusdk.a(gapm_task.o)
                                                  ../src/ASF/thirdparty/wireless/ble_smart_sdk/lib/cm0/gcc\libblusdk.a(event.o)
gapm_dev_bdaddr_ind_handler                       ../src/ASF/thirdparty/wireless/ble_smart_sdk/lib/cm0/gcc\libblusdk.a(gapm_task.o)
                                                  ../src/ASF/thirdparty/wireless/ble_smart_sdk/lib/cm0/gcc\libblusdk.a(event.o)
gapm_get_dev_config_cmd_handler                   ../src/ASF/thirdparty/wireless/ble_smart_sdk/lib/cm0/gcc\libblusdk.a(gapm_task.o)
                                                  ../src/ASF/thirdparty/wireless/ble_smart_sdk/lib/cm0/gcc\libblusdk.a(gap.o)
gapm_profile_added_ind_handler                    ../src/ASF/thirdparty/wireless/ble_smart_sdk/lib/cm0/gcc\libblusdk.a(gapm_task.o)
                                                  ../src/ASF/thirdparty/wireless/ble_smart_sdk/lib/cm0/gcc\libblusdk.a(event.o)
gapm_profile_task_add_cmd_handler                 ../src/ASF/thirdparty/wireless/ble_smart_sdk/lib/cm0/gcc\libblusdk.a(gapm_task.o)
                                                  ../src/ASF/thirdparty/wireless/ble_smart_sdk/lib/cm0/gcc\libblusdk.a(htpt_task.o)
gapm_reset_req_handler                            ../src/ASF/thirdparty/wireless/ble_smart_sdk/lib/cm0/gcc\libblusdk.a(gapm_task.o)
                                                  ../src/ASF/thirdparty/wireless/ble_smart_sdk/lib/cm0/gcc\libblusdk.a(gap.o)
gapm_resolv_addr_cmd_handler                      ../src/ASF/thirdparty/wireless/ble_smart_sdk/lib/cm0/gcc\libblusdk.a(gapm_task.o)
                                                  ../src/ASF/thirdparty/wireless/ble_smart_sdk/lib/cm0/gcc\libblusdk.a(gap.o)
gapm_set_channel_map_cmd_handler                  ../src/ASF/thirdparty/wireless/ble_smart_sdk/lib/cm0/gcc\libblusdk.a(gapm_task.o)
                                                  ../src/ASF/thirdparty/wireless/ble_smart_sdk/lib/cm0/gcc\libblusdk.a(gap.o)
gapm_set_dev_config_cmd_handler                   ../src/ASF/thirdparty/wireless/ble_smart_sdk/lib/cm0/gcc\libblusdk.a(gapm_task.o)
                                                  ../src/ASF/thirdparty/wireless/ble_smart_sdk/lib/cm0/gcc\libblusdk.a(gap.o)
gapm_start_adv_cmd_handler                        ../src/ASF/thirdparty/wireless/ble_smart_sdk/lib/cm0/gcc\libblusdk.a(gapm_task.o)
                                                  ../src/ASF/thirdparty/wireless/ble_smart_sdk/lib/cm0/gcc\libblusdk.a(gap.o)
gapm_start_connection_cmd_handler                 ../src/ASF/thirdparty/wireless/ble_smart_sdk/lib/cm0/gcc\libblusdk.a(gapm_task.o)
                                                  ../src/ASF/thirdparty/wireless/ble_smart_sdk/lib/cm0/gcc\libblusdk.a(gap.o)
gapm_start_scan_cmd_handler                       ../src/ASF/thirdparty/wireless/ble_smart_sdk/lib/cm0/gcc\libblusdk.a(gapm_task.o)
                                                  ../src/ASF/thirdparty/wireless/ble_smart_sdk/lib/cm0/gcc\libblusdk.a(gap.o)
gapm_white_list_mgm_cmd                           ../src/ASF/thirdparty/wireless/ble_smart_sdk/lib/cm0/gcc\libblusdk.a(gapm_task.o)
                                                  ../src/ASF/thirdparty/wireless/ble_smart_sdk/lib/cm0/gcc\libblusdk.a(gap.o)
gattc_att_info_cfm                                ../src/ASF/thirdparty/wireless/ble_smart_sdk/lib/cm0/gcc\libblusdk.a(gattc_task.o)
                                                  ../src/ASF/thirdparty/wireless/ble_smart_sdk/lib/cm0/gcc\libblusdk.a(gatt_server.o)
gattc_att_info_req_parser                         ../src/ASF/thirdparty/wireless/ble_smart_sdk/lib/cm0/gcc\libblusdk.a(gattc_task.o)
                                                  ../src/ASF/thirdparty/wireless/ble_smart_sdk/lib/cm0/gcc\libblusdk.a(gatt_server.o)
gattc_complete_evt_handler                        ../src/ASF/thirdparty/wireless/ble_smart_sdk/lib/cm0/gcc\libblusdk.a(gattc_task.o)
                                                  ../src/ASF/thirdparty/wireless/ble_smart_sdk/lib/cm0/gcc\libblusdk.a(event.o)
gattc_disc_char_desc_ind_parser                   ../src/ASF/thirdparty/wireless/ble_smart_sdk/lib/cm0/gcc\libblusdk.a(gattc_task.o)
                                                  ../src/ASF/thirdparty/wireless/ble_smart_sdk/lib/cm0/gcc\libblusdk.a(event.o)
gattc_disc_char_ind_parser                        ../src/ASF/thirdparty/wireless/ble_smart_sdk/lib/cm0/gcc\libblusdk.a(gattc_task.o)
                                                  ../src/ASF/thirdparty/wireless/ble_smart_sdk/lib/cm0/gcc\libblusdk.a(event.o)
gattc_disc_cmd_handler                            ../src/ASF/thirdparty/wireless/ble_smart_sdk/lib/cm0/gcc\libblusdk.a(gattc_task.o)
                                                  ../src/ASF/thirdparty/wireless/ble_smart_sdk/lib/cm0/gcc\libblusdk.a(gatt_client.o)
gattc_disc_svc_incl_ind_parser                    ../src/ASF/thirdparty/wireless/ble_smart_sdk/lib/cm0/gcc\libblusdk.a(gattc_task.o)
                                                  ../src/ASF/thirdparty/wireless/ble_smart_sdk/lib/cm0/gcc\libblusdk.a(event.o)
gattc_disc_svc_ind_parser                         ../src/ASF/thirdparty/wireless/ble_smart_sdk/lib/cm0/gcc\libblusdk.a(gattc_task.o)
                                                  ../src/ASF/thirdparty/wireless/ble_smart_sdk/lib/cm0/gcc\libblusdk.a(event.o)
gattc_event_cfm_handler                           ../src/ASF/thirdparty/wireless/ble_smart_sdk/lib/cm0/gcc\libblusdk.a(gattc_task.o)
                                                  ../src/ASF/thirdparty/wireless/ble_smart_sdk/lib/cm0/gcc\libblusdk.a(event.o)
gattc_event_ind_and_notification_parser           ../src/ASF/thirdparty/wireless/ble_smart_sdk/lib/cm0/gcc\libblusdk.a(gattc_task.o)
                                                  ../src/ASF/thirdparty/wireless/ble_smart_sdk/lib/cm0/gcc\libblusdk.a(event.o)
gattc_event_mtu_changed_ind_parser                ../src/ASF/thirdparty/wireless/ble_smart_sdk/lib/cm0/gcc\libblusdk.a(gattc_task.o)
                                                  ../src/ASF/thirdparty/wireless/ble_smart_sdk/lib/cm0/gcc\libblusdk.a(event.o)
gattc_mtu_cmd_handler                             ../src/ASF/thirdparty/wireless/ble_smart_sdk/lib/cm0/gcc\libblusdk.a(gattc_task.o)
                                                  ../src/ASF/thirdparty/wireless/ble_smart_sdk/lib/cm0/gcc\libblusdk.a(gatt_client.o)
gattc_read_cfm                                    ../src/ASF/thirdparty/wireless/ble_smart_sdk/lib/cm0/gcc\libblusdk.a(gattc_task.o)
                                                  ../src/ASF/thirdparty/wireless/ble_smart_sdk/lib/cm0/gcc\libblusdk.a(gatt_server.o)
gattc_read_cmd_handler                            ../src/ASF/thirdparty/wireless/ble_smart_sdk/lib/cm0/gcc\libblusdk.a(gattc_task.o)
                                                  ../src/ASF/thirdparty/wireless/ble_smart_sdk/lib/cm0/gcc\libblusdk.a(gatt_client.o)
gattc_read_cmd_handler_by_uuid                    ../src/ASF/thirdparty/wireless/ble_smart_sdk/lib/cm0/gcc\libblusdk.a(gattc_task.o)
gattc_read_cmd_handler_multible                   ../src/ASF/thirdparty/wireless/ble_smart_sdk/lib/cm0/gcc\libblusdk.a(gattc_task.o)
gattc_read_cmd_handler_simple_read                ../src/ASF/thirdparty/wireless/ble_smart_sdk/lib/cm0/gcc\libblusdk.a(gattc_task.o)
gattc_read_ind_parser                             ../src/ASF/thirdparty/wireless/ble_smart_sdk/lib/cm0/gcc\libblusdk.a(gattc_task.o)
                                                  ../src/ASF/thirdparty/wireless/ble_smart_sdk/lib/cm0/gcc\libblusdk.a(event.o)
gattc_read_multiple_handler                       ../src/ASF/thirdparty/wireless/ble_smart_sdk/lib/cm0/gcc\libblusdk.a(gattc_task.o)
                                                  ../src/ASF/thirdparty/wireless/ble_smart_sdk/lib/cm0/gcc\libblusdk.a(gatt_client.o)
gattc_read_req_ind_parser                         ../src/ASF/thirdparty/wireless/ble_smart_sdk/lib/cm0/gcc\libblusdk.a(gattc_task.o)
                                                  ../src/ASF/thirdparty/wireless/ble_smart_sdk/lib/cm0/gcc\libblusdk.a(gatt_server.o)
gattc_reg_to_peer_handler                         ../src/ASF/thirdparty/wireless/ble_smart_sdk/lib/cm0/gcc\libblusdk.a(gattc_task.o)
gattc_send_evt_cmd_handler                        ../src/ASF/thirdparty/wireless/ble_smart_sdk/lib/cm0/gcc\libblusdk.a(gattc_task.o)
                                                  ../src/ASF/thirdparty/wireless/ble_smart_sdk/lib/cm0/gcc\libblusdk.a(gatt_server.o)
gattc_svc_changed_cfg_ind_parser                  ../src/ASF/thirdparty/wireless/ble_smart_sdk/lib/cm0/gcc\libblusdk.a(gattc_task.o)
                                                  ../src/ASF/thirdparty/wireless/ble_smart_sdk/lib/cm0/gcc\libblusdk.a(event.o)
gattc_svc_changed_ind_cmd_handler                 ../src/ASF/thirdparty/wireless/ble_smart_sdk/lib/cm0/gcc\libblusdk.a(gattc_task.o)
                                                  ../src/ASF/thirdparty/wireless/ble_smart_sdk/lib/cm0/gcc\libblusdk.a(gatt_server.o)
gattc_write_cfm                                   ../src/ASF/thirdparty/wireless/ble_smart_sdk/lib/cm0/gcc\libblusdk.a(gattc_task.o)
                                                  ../src/ASF/thirdparty/wireless/ble_smart_sdk/lib/cm0/gcc\libblusdk.a(gatt_server.o)
gattc_write_cmd_handler                           ../src/ASF/thirdparty/wireless/ble_smart_sdk/lib/cm0/gcc\libblusdk.a(gattc_task.o)
                                                  ../src/ASF/thirdparty/wireless/ble_smart_sdk/lib/cm0/gcc\libblusdk.a(gatt_client.o)
gattc_write_execute_cmd_handler                   ../src/ASF/thirdparty/wireless/ble_smart_sdk/lib/cm0/gcc\libblusdk.a(gattc_task.o)
                                                  ../src/ASF/thirdparty/wireless/ble_smart_sdk/lib/cm0/gcc\libblusdk.a(gatt_client.o)
gattc_write_req_ind_parser                        ../src/ASF/thirdparty/wireless/ble_smart_sdk/lib/cm0/gcc\libblusdk.a(gattc_task.o)
                                                  ../src/ASF/thirdparty/wireless/ble_smart_sdk/lib/cm0/gcc\libblusdk.a(gatt_server.o)
gattm_add_attribute_req_handler                   ../src/ASF/thirdparty/wireless/ble_smart_sdk/lib/cm0/gcc\libblusdk.a(gattm_task.o)
                                                  ../src/ASF/thirdparty/wireless/ble_smart_sdk/lib/cm0/gcc\libblusdk.a(gatt_server.o)
gattm_add_svc_req_handler                         ../src/ASF/thirdparty/wireless/ble_smart_sdk/lib/cm0/gcc\libblusdk.a(gattm_task.o)
                                                  ../src/ASF/thirdparty/wireless/ble_smart_sdk/lib/cm0/gcc\libblusdk.a(gatt_server.o)
gattm_att_get_value_req_handler                   ../src/ASF/thirdparty/wireless/ble_smart_sdk/lib/cm0/gcc\libblusdk.a(gattm_task.o)
                                                  ../src/ASF/thirdparty/wireless/ble_smart_sdk/lib/cm0/gcc\libblusdk.a(gatt_server.o)
gattm_att_set_value_req_handler                   ../src/ASF/thirdparty/wireless/ble_smart_sdk/lib/cm0/gcc\libblusdk.a(gattm_task.o)
                                                  ../src/ASF/thirdparty/wireless/ble_smart_sdk/lib/cm0/gcc\libblusdk.a(gatt_server.o)
gatts_handle_att_info_req                         ../src/ASF/thirdparty/wireless/ble_smart_sdk/lib/cm0/gcc\libblusdk.a(gatt_server.o)
                                                  ../src/ASF/thirdparty/wireless/ble_smart_sdk/lib/cm0/gcc\libblusdk.a(event.o)
gatts_handle_read_req                             ../src/ASF/thirdparty/wireless/ble_smart_sdk/lib/cm0/gcc\libblusdk.a(gatt_server.o)
                                                  ../src/ASF/thirdparty/wireless/ble_smart_sdk/lib/cm0/gcc\libblusdk.a(event.o)
gatts_handle_write_req                            ../src/ASF/thirdparty/wireless/ble_smart_sdk/lib/cm0/gcc\libblusdk.a(gatt_server.o)
                                                  ../src/ASF/thirdparty/wireless/ble_smart_sdk/lib/cm0/gcc\libblusdk.a(event.o)
get_Ares                                          src/sms_v_0_2/src/sms_mpu.o
get_Gres                                          src/sms_v_0_2/src/sms_mpu.o
get_Mres                                          src/sms_v_0_2/src/sms_mpu.o
get_gap_local_addr_type                           ../src/ASF/thirdparty/wireless/ble_smart_sdk/lib/cm0/gcc\libblusdk.a(gapm_task.o)
                                                  ../src/ASF/thirdparty/wireless/ble_smart_sdk/lib/cm0/gcc\libblusdk.a(gap.o)
getchar_b11                                       src/ASF/thirdparty/wireless/ble_smart_sdk/services/uart/console_serial.o
getchar_b11_timeout                               src/ASF/thirdparty/wireless/ble_smart_sdk/services/uart/console_serial.o
                                                  src/ASF/thirdparty/wireless/ble_smart_sdk/ble_services/ble_mgr/ble_manager.o
gpio0_combined_isr_handler                        src/ASF/thirdparty/wireless/ble_smart_sdk/src/port_from_sdk.o
                                                  src/ASF/thirdparty/wireless/ble_smart_sdk/src/platform_drv.o
gpio1_combined_isr_handler                        src/ASF/thirdparty/wireless/ble_smart_sdk/src/port_from_sdk.o
gpio_disable_callback                             src/ASF/sam0/drivers/gpio/gpio.o
                                                  src/ASF/thirdparty/wireless/ble_smart_sdk/services/gpio/button.o
                                                  src/sms_v_0_2/src/sms_mpu.o
                                                  src/sms_v_0_2/src/sms_button.o
gpio_enable_callback                              src/ASF/sam0/drivers/gpio/gpio.o
                                                  src/ASF/thirdparty/wireless/ble_smart_sdk/services/gpio/button.o
                                                  src/sms_v_0_2/src/sms_mpu.o
                                                  src/sms_v_0_2/src/sms_button.o
gpio_get_config_defaults                          src/ASF/sam0/drivers/gpio/gpio.o
                                                  src/ASF/thirdparty/wireless/ble_smart_sdk/services/gpio/led.o
                                                  src/ASF/thirdparty/wireless/ble_smart_sdk/services/gpio/button.o
                                                  src/ASF/sam0/drivers/spi/spi.o
                                                  src/sms_v_0_2/src/sms_pressure.o
                                                  src/sms_v_0_2/src/sms_led.o
                                                  src/sms_v_0_2/src/sms_mpu.o
                                                  src/sms_v_0_2/src/sms_common.o
                                                  src/sms_v_0_2/src/sms_button.o
gpio_init                                         src/ASF/sam0/drivers/gpio/gpio.o
                                                  src/sms_peripheral1.o
gpio_pin_get_input_level                          src/ASF/sam0/drivers/gpio/gpio.o
                                                  src/sms_v_0_2/src/sms_button.o
gpio_pin_get_output_level                         src/ASF/sam0/drivers/gpio/gpio.o
                                                  src/sms_v_0_2/src/sms_led.o
gpio_pin_set_config                               src/ASF/sam0/drivers/gpio/gpio.o
                                                  src/ASF/thirdparty/wireless/ble_smart_sdk/services/gpio/led.o
                                                  src/ASF/thirdparty/wireless/ble_smart_sdk/services/gpio/button.o
                                                  src/ASF/sam0/drivers/spi/spi.o
                                                  src/sms_v_0_2/src/sms_pressure.o
                                                  src/sms_v_0_2/src/sms_led.o
                                                  src/sms_v_0_2/src/sms_mpu.o
                                                  src/sms_v_0_2/src/sms_common.o
                                                  src/sms_v_0_2/src/sms_button.o
gpio_pin_set_output_level                         src/ASF/sam0/drivers/gpio/gpio.o
                                                  src/sms_peripheral1.o
                                                  src/ASF/sam0/drivers/spi/spi.o
                                                  src/sms_v_0_2/src/sms_sensors.o
                                                  src/sms_v_0_2/src/sms_pressure.o
                                                  src/sms_v_0_2/src/sms_led.o
                                                  src/sms_v_0_2/src/sms_common.o
gpio_pin_toggle_output_level                      src/ASF/sam0/drivers/gpio/gpio.o
gpio_pinmux_cofiguration                          src/ASF/sam0/drivers/gpio/gpio.o
                                                  src/ASF/sam0/drivers/uart/uart.o
                                                  src/ASF/sam0/drivers/spi/spi.o
                                                  src/ASF/sam0/drivers/i2c/i2c_master.o
gpio_register_callback                            src/ASF/sam0/drivers/gpio/gpio.o
                                                  src/ASF/thirdparty/wireless/ble_smart_sdk/services/gpio/button.o
                                                  src/sms_v_0_2/src/sms_mpu.o
                                                  src/sms_v_0_2/src/sms_button.o
gpio_unregister_callback                          src/ASF/sam0/drivers/gpio/gpio.o
                                                  src/sms_v_0_2/src/sms_mpu.o
gstrConnData                                      ../src/ASF/thirdparty/wireless/ble_smart_sdk/lib/cm0/gcc\libblusdk.a(gap.o)
                                                  ../src/ASF/thirdparty/wireless/ble_smart_sdk/lib/cm0/gcc\libblusdk.a(gapm_task.o)
                                                  ../src/ASF/thirdparty/wireless/ble_smart_sdk/lib/cm0/gcc\libblusdk.a(gapc_task.o)
                                                  ../src/ASF/thirdparty/wireless/ble_smart_sdk/lib/cm0/gcc\libblusdk.a(security.o)
gu8UserDefinedEvent                               ../src/ASF/thirdparty/wireless/ble_smart_sdk/lib/cm0/gcc\libblusdk.a(event.o)
handle_ext_wakeup_isr                             src/ASF/thirdparty/wireless/ble_smart_sdk/src/platform_drv.o
                                                  src/ASF/thirdparty/wireless/ble_smart_sdk/src/port_from_sdk.o
hardware_init_hook                                c:/program files (x86)/atmel/studio/7.0/toolchain/arm/arm-gnu-toolchain/bin/../lib/gcc/arm-none-eabi/5.3.1/../../../../arm-none-eabi/lib/armv6-m/crt0.o
htpt_cfg_indntf_ind_handler                       ../src/ASF/thirdparty/wireless/ble_smart_sdk/lib/cm0/gcc\libblusdk.a(htpt_task.o)
                                                  ../src/ASF/thirdparty/wireless/ble_smart_sdk/lib/cm0/gcc\libblusdk.a(event.o)
htpt_create_db_req_handler                        ../src/ASF/thirdparty/wireless/ble_smart_sdk/lib/cm0/gcc\libblusdk.a(htpt_task.o)
htpt_enable_req_handler                           ../src/ASF/thirdparty/wireless/ble_smart_sdk/lib/cm0/gcc\libblusdk.a(htpt_task.o)
htpt_enable_rsp_handler                           ../src/ASF/thirdparty/wireless/ble_smart_sdk/lib/cm0/gcc\libblusdk.a(htpt_task.o)
                                                  ../src/ASF/thirdparty/wireless/ble_smart_sdk/lib/cm0/gcc\libblusdk.a(event.o)
htpt_meas_intv_chg_cfm_handler                    ../src/ASF/thirdparty/wireless/ble_smart_sdk/lib/cm0/gcc\libblusdk.a(htpt_task.o)
htpt_meas_intv_chg_req_ind_handler                ../src/ASF/thirdparty/wireless/ble_smart_sdk/lib/cm0/gcc\libblusdk.a(htpt_task.o)
                                                  ../src/ASF/thirdparty/wireless/ble_smart_sdk/lib/cm0/gcc\libblusdk.a(event.o)
htpt_meas_intv_upd_req_handler                    ../src/ASF/thirdparty/wireless/ble_smart_sdk/lib/cm0/gcc\libblusdk.a(htpt_task.o)
htpt_meas_intv_upd_rsp_handler                    ../src/ASF/thirdparty/wireless/ble_smart_sdk/lib/cm0/gcc\libblusdk.a(htpt_task.o)
                                                  ../src/ASF/thirdparty/wireless/ble_smart_sdk/lib/cm0/gcc\libblusdk.a(event.o)
htpt_temp_send_req_handler                        ../src/ASF/thirdparty/wireless/ble_smart_sdk/lib/cm0/gcc\libblusdk.a(htpt_task.o)
htpt_temp_send_rsp_handler                        ../src/ASF/thirdparty/wireless/ble_smart_sdk/lib/cm0/gcc\libblusdk.a(htpt_task.o)
                                                  ../src/ASF/thirdparty/wireless/ble_smart_sdk/lib/cm0/gcc\libblusdk.a(event.o)
hw_timer_init                                     src/ASF/thirdparty/wireless/ble_smart_sdk/services/dualtimer/timer_hw.o
hw_timer_register_callback                        src/ASF/thirdparty/wireless/ble_smart_sdk/services/dualtimer/timer_hw.o
hw_timer_start                                    src/ASF/thirdparty/wireless/ble_smart_sdk/services/dualtimer/timer_hw.o
hw_timer_stop                                     src/ASF/thirdparty/wireless/ble_smart_sdk/services/dualtimer/timer_hw.o
i2c_master_get_config_defaults                    src/ASF/sam0/drivers/i2c/i2c_master.o
                                                  src/sms_v_0_2/src/sms_i2c.o
i2c_master_init                                   src/ASF/sam0/drivers/i2c/i2c_master.o
                                                  src/sms_v_0_2/src/sms_i2c.o
i2c_master_instance                               src/sms_peripheral1.o
                                                  src/ASF/thirdparty/wireless/ble_smart_sdk/ble_services/ble_mgr/ble_manager.o
                                                  src/sms_v_0_2/src/sms_timer.o
                                                  src/sms_v_0_2/src/sms_spi.o
                                                  src/sms_v_0_2/src/sms_sensors.o
                                                  src/sms_v_0_2/src/sms_pressure.o
                                                  src/sms_v_0_2/src/sms_led.o
                                                  src/sms_v_0_2/src/sms_mpu.o
                                                  src/sms_v_0_2/src/sms_i2c.o
                                                  src/sms_v_0_2/src/sms_common.o
                                                  src/sms_v_0_2/src/sms_button.o
                                                  src/sms_v_0_2/src/sms_ble.o
                                                  src/ASF/thirdparty/sensor/mpu9250_kriswiner/quaternion_ahrs.o
i2c_master_read_byte                              src/ASF/sam0/drivers/i2c/i2c_master.o
i2c_master_read_packet_wait                       src/ASF/sam0/drivers/i2c/i2c_master.o
                                                  src/sms_v_0_2/src/sms_i2c.o
i2c_master_read_packet_wait_no_stop               src/ASF/sam0/drivers/i2c/i2c_master.o
i2c_master_send_start                             src/ASF/sam0/drivers/i2c/i2c_master.o
i2c_master_send_stop                              src/ASF/sam0/drivers/i2c/i2c_master.o
i2c_master_write_address                          src/ASF/sam0/drivers/i2c/i2c_master.o
i2c_master_write_byte                             src/ASF/sam0/drivers/i2c/i2c_master.o
i2c_master_write_packet_wait                      src/ASF/sam0/drivers/i2c/i2c_master.o
                                                  src/sms_v_0_2/src/sms_i2c.o
i2c_master_write_packet_wait_no_stop              src/ASF/sam0/drivers/i2c/i2c_master.o
                                                  src/sms_v_0_2/src/sms_i2c.o
i2c_rpacket                                       src/sms_peripheral1.o
                                                  src/ASF/thirdparty/wireless/ble_smart_sdk/ble_services/ble_mgr/ble_manager.o
                                                  src/sms_v_0_2/src/sms_timer.o
                                                  src/sms_v_0_2/src/sms_spi.o
                                                  src/sms_v_0_2/src/sms_sensors.o
                                                  src/sms_v_0_2/src/sms_pressure.o
                                                  src/sms_v_0_2/src/sms_led.o
                                                  src/sms_v_0_2/src/sms_mpu.o
                                                  src/sms_v_0_2/src/sms_i2c.o
                                                  src/sms_v_0_2/src/sms_common.o
                                                  src/sms_v_0_2/src/sms_button.o
                                                  src/sms_v_0_2/src/sms_ble.o
                                                  src/ASF/thirdparty/sensor/mpu9250_kriswiner/quaternion_ahrs.o
i2c_wpacket                                       src/sms_peripheral1.o
                                                  src/ASF/thirdparty/wireless/ble_smart_sdk/ble_services/ble_mgr/ble_manager.o
                                                  src/sms_v_0_2/src/sms_timer.o
                                                  src/sms_v_0_2/src/sms_spi.o
                                                  src/sms_v_0_2/src/sms_sensors.o
                                                  src/sms_v_0_2/src/sms_pressure.o
                                                  src/sms_v_0_2/src/sms_led.o
                                                  src/sms_v_0_2/src/sms_mpu.o
                                                  src/sms_v_0_2/src/sms_i2c.o
                                                  src/sms_v_0_2/src/sms_common.o
                                                  src/sms_v_0_2/src/sms_button.o
                                                  src/sms_v_0_2/src/sms_ble.o
                                                  src/ASF/thirdparty/sensor/mpu9250_kriswiner/quaternion_ahrs.o
ias_handle                                        src/ASF/thirdparty/wireless/ble_smart_sdk/ble_profiles/pxp_reporter/pxp_reporter.o
ias_primary_service_define                        src/ASF/thirdparty/wireless/ble_smart_sdk/ble_services/immediate_alert/immediate_alert.o
                                                  src/ASF/thirdparty/wireless/ble_smart_sdk/ble_profiles/pxp_reporter/pxp_reporter.o
ias_set_alert_value                               src/ASF/thirdparty/wireless/ble_smart_sdk/ble_services/immediate_alert/immediate_alert.o
                                                  src/ASF/thirdparty/wireless/ble_smart_sdk/ble_profiles/pxp_reporter/pxp_reporter.o
immediate_alert_initial_value                     src/ASF/thirdparty/wireless/ble_smart_sdk/ble_services/immediate_alert/immediate_alert.o
include_uuid                                      ../src/ASF/thirdparty/wireless/ble_smart_sdk/lib/cm0/gcc\libblusdk.a(gatt_server.o)
init_clock                                        src/ASF/thirdparty/wireless/ble_smart_sdk/src/platform_drv.o
init_gatt_client_module                           ../src/ASF/thirdparty/wireless/ble_smart_sdk/lib/cm0/gcc\libblusdk.a(gatt_client.o)
                                                  ../src/ASF/thirdparty/wireless/ble_smart_sdk/lib/cm0/gcc\libblusdk.a(gap.o)
init_gattc_task_module                            ../src/ASF/thirdparty/wireless/ble_smart_sdk/lib/cm0/gcc\libblusdk.a(gattc_task.o)
                                                  ../src/ASF/thirdparty/wireless/ble_smart_sdk/lib/cm0/gcc\libblusdk.a(gap.o)
init_gattm_task_module                            ../src/ASF/thirdparty/wireless/ble_smart_sdk/lib/cm0/gcc\libblusdk.a(gattm_task.o)
init_immediate_alert_service                      src/ASF/thirdparty/wireless/ble_smart_sdk/ble_services/immediate_alert/immediate_alert.o
                                                  src/ASF/thirdparty/wireless/ble_smart_sdk/ble_profiles/pxp_reporter/pxp_reporter.o
init_l2cc_task_module                             ../src/ASF/thirdparty/wireless/ble_smart_sdk/lib/cm0/gcc\libblusdk.a(l2cc_task.o)
                                                  ../src/ASF/thirdparty/wireless/ble_smart_sdk/lib/cm0/gcc\libblusdk.a(gap.o)
init_linkloss_service                             src/ASF/thirdparty/wireless/ble_smart_sdk/ble_services/link_loss/link_loss.o
                                                  src/ASF/thirdparty/wireless/ble_smart_sdk/ble_profiles/pxp_reporter/pxp_reporter.o
init_port_list                                    src/ASF/thirdparty/wireless/ble_smart_sdk/src/platform_drv.o
                                                  src/sms_peripheral1.o
init_tx_power_service                             src/ASF/thirdparty/wireless/ble_smart_sdk/ble_services/tx_power/tx_power.o
                                                  src/ASF/thirdparty/wireless/ble_smart_sdk/ble_profiles/pxp_reporter/pxp_reporter.o
initi_gatt_server_module                          ../src/ASF/thirdparty/wireless/ble_smart_sdk/lib/cm0/gcc\libblusdk.a(gatt_server.o)
                                                  ../src/ASF/thirdparty/wireless/ble_smart_sdk/lib/cm0/gcc\libblusdk.a(gap.o)
interface_init                                    ../src/ASF/thirdparty/wireless/ble_smart_sdk/lib/cm0/gcc\libblusdk.a(interface.o)
                                                  ../src/ASF/thirdparty/wireless/ble_smart_sdk/lib/cm0/gcc\libblusdk.a(gap.o)
interface_send                                    ../src/ASF/thirdparty/wireless/ble_smart_sdk/lib/cm0/gcc\libblusdk.a(interface.o)
                                                  ../src/ASF/thirdparty/wireless/ble_smart_sdk/lib/cm0/gcc\libblusdk.a(htpt_task.o)
                                                  ../src/ASF/thirdparty/wireless/ble_smart_sdk/lib/cm0/gcc\libblusdk.a(gattm_task.o)
                                                  ../src/ASF/thirdparty/wireless/ble_smart_sdk/lib/cm0/gcc\libblusdk.a(gattc_task.o)
                                                  ../src/ASF/thirdparty/wireless/ble_smart_sdk/lib/cm0/gcc\libblusdk.a(gapm_task.o)
                                                  ../src/ASF/thirdparty/wireless/ble_smart_sdk/lib/cm0/gcc\libblusdk.a(gapc_task.o)
                                                  ../src/ASF/thirdparty/wireless/ble_smart_sdk/lib/cm0/gcc\libblusdk.a(dbg_task.o)
                                                  ../src/ASF/thirdparty/wireless/ble_smart_sdk/lib/cm0/gcc\libblusdk.a(calib_task.o)
                                                  ../src/ASF/thirdparty/wireless/ble_smart_sdk/lib/cm0/gcc\libblusdk.a(l2cc_task.o)
interface_send_msg                                ../src/ASF/thirdparty/wireless/ble_smart_sdk/lib/cm0/gcc\libblusdk.a(interface.o)
                                                  ../src/ASF/thirdparty/wireless/ble_smart_sdk/lib/cm0/gcc\libblusdk.a(htpt_task.o)
                                                  ../src/ASF/thirdparty/wireless/ble_smart_sdk/lib/cm0/gcc\libblusdk.a(gattm_task.o)
                                                  ../src/ASF/thirdparty/wireless/ble_smart_sdk/lib/cm0/gcc\libblusdk.a(gattc_task.o)
                                                  ../src/ASF/thirdparty/wireless/ble_smart_sdk/lib/cm0/gcc\libblusdk.a(gapm_task.o)
                                                  ../src/ASF/thirdparty/wireless/ble_smart_sdk/lib/cm0/gcc\libblusdk.a(gapc_task.o)
                                                  ../src/ASF/thirdparty/wireless/ble_smart_sdk/lib/cm0/gcc\libblusdk.a(dbg_task.o)
                                                  ../src/ASF/thirdparty/wireless/ble_smart_sdk/lib/cm0/gcc\libblusdk.a(calib_task.o)
                                                  ../src/ASF/thirdparty/wireless/ble_smart_sdk/lib/cm0/gcc\libblusdk.a(l2cc_task.o)
internal_conn_flush                               ../src/ASF/thirdparty/wireless/ble_smart_sdk/lib/cm0/gcc\libblusdk.a(event.o)
                                                  ../src/ASF/thirdparty/wireless/ble_smart_sdk/lib/cm0/gcc\libblusdk.a(gap.o)
internal_event_flush                              ../src/ASF/thirdparty/wireless/ble_smart_sdk/lib/cm0/gcc\libblusdk.a(event.o)
                                                  ../src/ASF/thirdparty/wireless/ble_smart_sdk/lib/cm0/gcc\libblusdk.a(gap.o)
internal_event_init                               ../src/ASF/thirdparty/wireless/ble_smart_sdk/lib/cm0/gcc\libblusdk.a(event.o)
                                                  ../src/ASF/thirdparty/wireless/ble_smart_sdk/lib/cm0/gcc\libblusdk.a(gap.o)
internal_event_post                               ../src/ASF/thirdparty/wireless/ble_smart_sdk/lib/cm0/gcc\libblusdk.a(event.o)
                                                  ../src/ASF/thirdparty/wireless/ble_smart_sdk/lib/cm0/gcc\libblusdk.a(interface.o)
l2cap_avail_buffers                               ../src/ASF/thirdparty/wireless/ble_smart_sdk/lib/cm0/gcc\libblusdk.a(l2cc_task.o)
                                                  ../src/ASF/thirdparty/wireless/ble_smart_sdk/lib/cm0/gcc\libblusdk.a(gap.o)
l2cc_data_received_handler                        ../src/ASF/thirdparty/wireless/ble_smart_sdk/lib/cm0/gcc\libblusdk.a(l2cc_task.o)
                                                  ../src/ASF/thirdparty/wireless/ble_smart_sdk/lib/cm0/gcc\libblusdk.a(event.o)
l2cc_data_send_rsp_handler                        ../src/ASF/thirdparty/wireless/ble_smart_sdk/lib/cm0/gcc\libblusdk.a(l2cc_task.o)
                                                  ../src/ASF/thirdparty/wireless/ble_smart_sdk/lib/cm0/gcc\libblusdk.a(event.o)
l2cc_pdu_send_req_handler                         ../src/ASF/thirdparty/wireless/ble_smart_sdk/lib/cm0/gcc\libblusdk.a(l2cc_task.o)
led_init                                          src/ASF/thirdparty/wireless/ble_smart_sdk/services/gpio/led.o
link                                              src/ASF/sam0/utils/syscalls/gcc/syscalls.o
linkloss_cb                                       src/ASF/thirdparty/wireless/ble_smart_sdk/ble_profiles/pxp_reporter/pxp_reporter.o
linkloss_current_alert_level                      src/ASF/thirdparty/wireless/ble_smart_sdk/ble_profiles/pxp_reporter/pxp_reporter.o
linkloss_initial_value                            src/ASF/thirdparty/wireless/ble_smart_sdk/ble_services/link_loss/link_loss.o
lls_handle                                        src/ASF/thirdparty/wireless/ble_smart_sdk/ble_profiles/pxp_reporter/pxp_reporter.o
lls_primary_service_define                        src/ASF/thirdparty/wireless/ble_smart_sdk/ble_services/link_loss/link_loss.o
                                                  src/ASF/thirdparty/wireless/ble_smart_sdk/ble_profiles/pxp_reporter/pxp_reporter.o
lls_set_alert_value                               src/ASF/thirdparty/wireless/ble_smart_sdk/ble_services/link_loss/link_loss.o
                                                  src/ASF/thirdparty/wireless/ble_smart_sdk/ble_profiles/pxp_reporter/pxp_reporter.o
madgwick_quaternion_update                        src/ASF/thirdparty/sensor/mpu9250_kriswiner/quaternion_ahrs.o
                                                  src/sms_v_0_2/src/sms_mpu.o
main                                              src/sms_peripheral1.o
                                                  src/ASF/sam0/utils/cmsis/samb11/source/gcc/startup_samb11.o
                                                  c:/program files (x86)/atmel/studio/7.0/toolchain/arm/arm-gnu-toolchain/bin/../lib/gcc/arm-none-eabi/5.3.1/../../../../arm-none-eabi/lib/armv6-m/crt0.o
malloc                                            c:/program files (x86)/atmel/studio/7.0/toolchain/arm/arm-gnu-toolchain/bin/../lib/gcc/arm-none-eabi/5.3.1/../../../../arm-none-eabi/lib/armv6-m\libc_nano.a(lib_a-malloc.o)
                                                  c:/program files (x86)/atmel/studio/7.0/toolchain/arm/arm-gnu-toolchain/bin/../lib/gcc/arm-none-eabi/5.3.1/../../../../arm-none-eabi/lib/armv6-m\libc_nano.a(lib_a-setvbuf.o)
                                                  c:/program files (x86)/atmel/studio/7.0/toolchain/arm/arm-gnu-toolchain/bin/../lib/gcc/arm-none-eabi/5.3.1/../../../../arm-none-eabi/lib/armv6-m\libc_nano.a(lib_a-rand.o)
                                                  src/sms_v_0_2/src/sms_i2c.o
matherr                                           c:/program files (x86)/atmel/studio/7.0/toolchain/arm/arm-gnu-toolchain/bin/../lib/gcc/arm-none-eabi/5.3.1/../../../../arm-none-eabi/lib/armv6-m\libm.a(lib_a-s_matherr.o)
                                                  c:/program files (x86)/atmel/studio/7.0/toolchain/arm/arm-gnu-toolchain/bin/../lib/gcc/arm-none-eabi/5.3.1/../../../../arm-none-eabi/lib/armv6-m\libm.a(lib_a-wf_sqrt.o)
                                                  c:/program files (x86)/atmel/studio/7.0/toolchain/arm/arm-gnu-toolchain/bin/../lib/gcc/arm-none-eabi/5.3.1/../../../../arm-none-eabi/lib/armv6-m\libm.a(lib_a-w_pow.o)
memcmp                                            c:/program files (x86)/atmel/studio/7.0/toolchain/arm/arm-gnu-toolchain/bin/../lib/gcc/arm-none-eabi/5.3.1/../../../../arm-none-eabi/lib/armv6-m\libc_nano.a(lib_a-memcmp.o)
                                                  src/ASF/thirdparty/wireless/ble_smart_sdk/ble_services/ble_mgr/ble_manager.o
memcpy                                            c:/program files (x86)/atmel/studio/7.0/toolchain/arm/arm-gnu-toolchain/bin/../lib/gcc/arm-none-eabi/5.3.1/../../../../arm-none-eabi/lib/armv6-m\libc_nano.a(lib_a-memcpy-stub.o)
                                                  ../src/ASF/thirdparty/wireless/ble_smart_sdk/lib/cm0/gcc\libblusdk.a(gattm_task.o)
                                                  ../src/ASF/thirdparty/wireless/ble_smart_sdk/lib/cm0/gcc\libblusdk.a(gattc_task.o)
                                                  ../src/ASF/thirdparty/wireless/ble_smart_sdk/lib/cm0/gcc\libblusdk.a(gapm_task.o)
                                                  ../src/ASF/thirdparty/wireless/ble_smart_sdk/lib/cm0/gcc\libblusdk.a(gapc_task.o)
                                                  ../src/ASF/thirdparty/wireless/ble_smart_sdk/lib/cm0/gcc\libblusdk.a(dbg_task.o)
                                                  ../src/ASF/thirdparty/wireless/ble_smart_sdk/lib/cm0/gcc\libblusdk.a(interface.o)
                                                  ../src/ASF/thirdparty/wireless/ble_smart_sdk/lib/cm0/gcc\libblusdk.a(security.o)
                                                  ../src/ASF/thirdparty/wireless/ble_smart_sdk/lib/cm0/gcc\libblusdk.a(l2cc_task.o)
                                                  ../src/ASF/thirdparty/wireless/ble_smart_sdk/lib/cm0/gcc\libblusdk.a(gatt_server.o)
                                                  ../src/ASF/thirdparty/wireless/ble_smart_sdk/lib/cm0/gcc\libblusdk.a(gap.o)
                                                  src/ASF/thirdparty/wireless/ble_smart_sdk/src/platform_drv.o
                                                  src/ASF/thirdparty/wireless/ble_smart_sdk/src/event_handler.o
                                                  src/ASF/thirdparty/wireless/ble_smart_sdk/ble_services/ble_mgr/ble_manager.o
                                                  src/ASF/thirdparty/wireless/ble_smart_sdk/ble_services/battery/battery.o
                                                  src/ASF/thirdparty/wireless/ble_smart_sdk/ble_profiles/pxp_reporter/pxp_reporter.o
memset                                            c:/program files (x86)/atmel/studio/7.0/toolchain/arm/arm-gnu-toolchain/bin/../lib/gcc/arm-none-eabi/5.3.1/../../../../arm-none-eabi/lib/armv6-m\libc_nano.a(lib_a-memset.o)
                                                  c:/program files (x86)/atmel/studio/7.0/toolchain/arm/arm-gnu-toolchain/bin/../lib/gcc/arm-none-eabi/5.3.1/../../../../arm-none-eabi/lib/armv6-m\libc_nano.a(lib_a-findfp.o)
                                                  ../src/ASF/thirdparty/wireless/ble_smart_sdk/lib/cm0/gcc\libblusdk.a(gattm_task.o)
                                                  ../src/ASF/thirdparty/wireless/ble_smart_sdk/lib/cm0/gcc\libblusdk.a(gapm_task.o)
                                                  ../src/ASF/thirdparty/wireless/ble_smart_sdk/lib/cm0/gcc\libblusdk.a(gapc_task.o)
                                                  ../src/ASF/thirdparty/wireless/ble_smart_sdk/lib/cm0/gcc\libblusdk.a(interface.o)
                                                  ../src/ASF/thirdparty/wireless/ble_smart_sdk/lib/cm0/gcc\libblusdk.a(security.o)
                                                  ../src/ASF/thirdparty/wireless/ble_smart_sdk/lib/cm0/gcc\libblusdk.a(gatt_server.o)
                                                  ../src/ASF/thirdparty/wireless/ble_smart_sdk/lib/cm0/gcc\libblusdk.a(gap.o)
                                                  ../src/ASF/thirdparty/wireless/ble_smart_sdk/lib/cm0/gcc\libblusdk.a(event.o)
                                                  src/ASF/thirdparty/wireless/ble_smart_sdk/src/platform_drv.o
                                                  src/ASF/thirdparty/wireless/ble_smart_sdk/ble_services/ble_mgr/ble_manager.o
                                                  src/sms_v_0_2/src/sms_mpu.o
                                                  c:/program files (x86)/atmel/studio/7.0/toolchain/arm/arm-gnu-toolchain/bin/../lib/gcc/arm-none-eabi/5.3.1/../../../../arm-none-eabi/lib/armv6-m/crt0.o
mpu_device                                        src/sms_peripheral1.o
                                                  src/ASF/thirdparty/wireless/ble_smart_sdk/ble_services/ble_mgr/ble_manager.o
                                                  src/sms_v_0_2/src/sms_timer.o
                                                  src/sms_v_0_2/src/sms_spi.o
                                                  src/sms_v_0_2/src/sms_sensors.o
                                                  src/sms_v_0_2/src/sms_pressure.o
                                                  src/sms_v_0_2/src/sms_led.o
                                                  src/sms_v_0_2/src/sms_mpu.o
                                                  src/sms_v_0_2/src/sms_i2c.o
                                                  src/sms_v_0_2/src/sms_common.o
                                                  src/sms_v_0_2/src/sms_button.o
                                                  src/sms_v_0_2/src/sms_ble.o
                                                  src/ASF/thirdparty/sensor/mpu9250_kriswiner/quaternion_ahrs.o
msp                                               src/sms_peripheral1.o
                                                  src/ASF/thirdparty/wireless/ble_smart_sdk/ble_services/ble_mgr/ble_manager.o
                                                  src/sms_v_0_2/src/sms_timer.o
                                                  src/sms_v_0_2/src/sms_spi.o
                                                  src/sms_v_0_2/src/sms_sensors.o
                                                  src/sms_v_0_2/src/sms_pressure.o
                                                  src/sms_v_0_2/src/sms_led.o
                                                  src/sms_v_0_2/src/sms_mpu.o
                                                  src/sms_v_0_2/src/sms_i2c.o
                                                  src/sms_v_0_2/src/sms_common.o
                                                  src/sms_v_0_2/src/sms_button.o
                                                  src/sms_v_0_2/src/sms_ble.o
                                                  src/ASF/thirdparty/sensor/mpu9250_kriswiner/quaternion_ahrs.o
nan                                               c:/program files (x86)/atmel/studio/7.0/toolchain/arm/arm-gnu-toolchain/bin/../lib/gcc/arm-none-eabi/5.3.1/../../../../arm-none-eabi/lib/armv6-m\libm.a(lib_a-s_nan.o)
                                                  c:/program files (x86)/atmel/studio/7.0/toolchain/arm/arm-gnu-toolchain/bin/../lib/gcc/arm-none-eabi/5.3.1/../../../../arm-none-eabi/lib/armv6-m\libm.a(lib_a-e_pow.o)
pathloss_alert_value                              src/ASF/thirdparty/wireless/ble_smart_sdk/ble_profiles/pxp_reporter/pxp_reporter.o
pathloss_cb                                       src/ASF/thirdparty/wireless/ble_smart_sdk/ble_profiles/pxp_reporter/pxp_reporter.o
pf_cfg                                            src/ASF/thirdparty/wireless/ble_smart_sdk/ble_services/ble_mgr/ble_manager.o
platform_chip_reset                               src/ASF/thirdparty/wireless/ble_smart_sdk/src/platform_drv.o
platform_cmd_cmpl_signal                          ../src/ASF/thirdparty/wireless/ble_smart_sdk/lib/cm0/gcc\libblusdk.a(interface.o)
                                                  ../src/ASF/thirdparty/wireless/ble_smart_sdk/lib/cm0/gcc\libblusdk.a(event.o)
platform_cmd_cmpl_wait                            ../src/ASF/thirdparty/wireless/ble_smart_sdk/lib/cm0/gcc\libblusdk.a(interface.o)
                                                  ../src/ASF/thirdparty/wireless/ble_smart_sdk/lib/cm0/gcc\libblusdk.a(gattm_task.o)
                                                  ../src/ASF/thirdparty/wireless/ble_smart_sdk/lib/cm0/gcc\libblusdk.a(gapm_task.o)
                                                  ../src/ASF/thirdparty/wireless/ble_smart_sdk/lib/cm0/gcc\libblusdk.a(gapc_task.o)
                                                  ../src/ASF/thirdparty/wireless/ble_smart_sdk/lib/cm0/gcc\libblusdk.a(dbg_task.o)
                                                  ../src/ASF/thirdparty/wireless/ble_smart_sdk/lib/cm0/gcc\libblusdk.a(calib_task.o)
platform_driver_init                              src/ASF/thirdparty/wireless/ble_smart_sdk/src/platform_drv.o
                                                  ../src/ASF/thirdparty/wireless/ble_smart_sdk/lib/cm0/gcc\libblusdk.a(gap.o)
                                                  src/sms_peripheral1.o
platform_event_free                               src/ASF/thirdparty/wireless/ble_smart_sdk/src/event_handler.o
platform_event_get                                src/ASF/thirdparty/wireless/ble_smart_sdk/src/event_handler.o
platform_event_init                               src/ASF/thirdparty/wireless/ble_smart_sdk/src/event_handler.o
                                                  src/ASF/thirdparty/wireless/ble_smart_sdk/src/platform_drv.o
platform_event_post                               src/ASF/thirdparty/wireless/ble_smart_sdk/src/event_handler.o
                                                  src/ASF/thirdparty/wireless/ble_smart_sdk/src/platform_drv.o
platform_event_wait                               src/ASF/thirdparty/wireless/ble_smart_sdk/src/platform_drv.o
                                                  ../src/ASF/thirdparty/wireless/ble_smart_sdk/lib/cm0/gcc\libblusdk.a(interface.o)
                                                  ../src/ASF/thirdparty/wireless/ble_smart_sdk/lib/cm0/gcc\libblusdk.a(event.o)
                                                  src/ASF/thirdparty/wireless/ble_smart_sdk/src/event_handler.o
platform_initialized                              src/ASF/thirdparty/wireless/ble_smart_sdk/src/platform_drv.o
platform_interface_send                           src/ASF/thirdparty/wireless/ble_smart_sdk/src/platform_drv.o
                                                  ../src/ASF/thirdparty/wireless/ble_smart_sdk/lib/cm0/gcc\libblusdk.a(interface.o)
platform_register_ble_msg_handler                 src/ASF/thirdparty/wireless/ble_smart_sdk/src/platform_drv.o
                                                  ../src/ASF/thirdparty/wireless/ble_smart_sdk/lib/cm0/gcc\libblusdk.a(gap.o)
platform_register_isr                             src/ASF/thirdparty/wireless/ble_smart_sdk/src/platform_drv.o
platform_unregister_isr                           src/ASF/thirdparty/wireless/ble_smart_sdk/src/platform_drv.o
plf_event_buff_index                              src/ASF/thirdparty/wireless/ble_smart_sdk/src/platform_drv.o
port_list                                         src/ASF/thirdparty/wireless/ble_smart_sdk/src/platform_drv.o
pow                                               c:/program files (x86)/atmel/studio/7.0/toolchain/arm/arm-gnu-toolchain/bin/../lib/gcc/arm-none-eabi/5.3.1/../../../../arm-none-eabi/lib/armv6-m\libm.a(lib_a-w_pow.o)
                                                  src/sms_v_0_2/src/sms_mpu.o
presentation_format                               src/ASF/thirdparty/wireless/ble_smart_sdk/ble_services/battery/battery.o
presentation_format_uuid                          ../src/ASF/thirdparty/wireless/ble_smart_sdk/lib/cm0/gcc\libblusdk.a(gatt_server.o)
pressure_device                                   src/sms_peripheral1.o
                                                  src/ASF/thirdparty/wireless/ble_smart_sdk/ble_services/ble_mgr/ble_manager.o
                                                  src/sms_v_0_2/src/sms_timer.o
                                                  src/sms_v_0_2/src/sms_spi.o
                                                  src/sms_v_0_2/src/sms_sensors.o
                                                  src/sms_v_0_2/src/sms_pressure.o
                                                  src/sms_v_0_2/src/sms_led.o
                                                  src/sms_v_0_2/src/sms_mpu.o
                                                  src/sms_v_0_2/src/sms_i2c.o
                                                  src/sms_v_0_2/src/sms_common.o
                                                  src/sms_v_0_2/src/sms_button.o
                                                  src/sms_v_0_2/src/sms_ble.o
                                                  src/ASF/thirdparty/sensor/mpu9250_kriswiner/quaternion_ahrs.o
primary_service_uuid                              ../src/ASF/thirdparty/wireless/ble_smart_sdk/lib/cm0/gcc\libblusdk.a(gatt_server.o)
psp                                               src/sms_peripheral1.o
                                                  src/ASF/thirdparty/wireless/ble_smart_sdk/ble_services/ble_mgr/ble_manager.o
                                                  src/sms_v_0_2/src/sms_timer.o
                                                  src/sms_v_0_2/src/sms_spi.o
                                                  src/sms_v_0_2/src/sms_sensors.o
                                                  src/sms_v_0_2/src/sms_pressure.o
                                                  src/sms_v_0_2/src/sms_led.o
                                                  src/sms_v_0_2/src/sms_mpu.o
                                                  src/sms_v_0_2/src/sms_i2c.o
                                                  src/sms_v_0_2/src/sms_common.o
                                                  src/sms_v_0_2/src/sms_button.o
                                                  src/sms_v_0_2/src/sms_ble.o
                                                  src/ASF/thirdparty/sensor/mpu9250_kriswiner/quaternion_ahrs.o
ptr_get                                           src/ASF/sam0/utils/stdio/read.o
                                                  src/ASF/thirdparty/wireless/ble_smart_sdk/services/uart/console_serial.o
ptr_put                                           src/ASF/sam0/utils/stdio/write.o
                                                  src/ASF/thirdparty/wireless/ble_smart_sdk/services/uart/console_serial.o
ptstrattDb                                        ../src/ASF/thirdparty/wireless/ble_smart_sdk/lib/cm0/gcc\libblusdk.a(gatt_server.o)
pu8valuesBuffer                                   ../src/ASF/thirdparty/wireless/ble_smart_sdk/lib/cm0/gcc\libblusdk.a(gatt_server.o)
pu8valuesBufferEnd                                ../src/ASF/thirdparty/wireless/ble_smart_sdk/lib/cm0/gcc\libblusdk.a(gatt_server.o)
pxp_reporter_adv                                  src/ASF/thirdparty/wireless/ble_smart_sdk/ble_profiles/pxp_reporter/pxp_reporter.o
pxp_reporter_char_changed_handler                 src/ASF/thirdparty/wireless/ble_smart_sdk/ble_profiles/pxp_reporter/pxp_reporter.o
pxp_reporter_connected_state_handler              src/ASF/thirdparty/wireless/ble_smart_sdk/ble_profiles/pxp_reporter/pxp_reporter.o
pxp_reporter_disconnect_event_handler             src/ASF/thirdparty/wireless/ble_smart_sdk/ble_profiles/pxp_reporter/pxp_reporter.o
pxp_reporter_init                                 src/ASF/thirdparty/wireless/ble_smart_sdk/ble_profiles/pxp_reporter/pxp_reporter.o
pxp_service_define                                src/ASF/thirdparty/wireless/ble_smart_sdk/ble_profiles/pxp_reporter/pxp_reporter.o
pxp_service_init                                  src/ASF/thirdparty/wireless/ble_smart_sdk/ble_profiles/pxp_reporter/pxp_reporter.o
rand                                              c:/program files (x86)/atmel/studio/7.0/toolchain/arm/arm-gnu-toolchain/bin/../lib/gcc/arm-none-eabi/5.3.1/../../../../arm-none-eabi/lib/armv6-m\libc_nano.a(lib_a-rand.o)
                                                  src/ASF/thirdparty/wireless/ble_smart_sdk/ble_services/ble_mgr/ble_manager.o
readByte                                          src/sms_v_0_2/src/sms_mpu.o
readBytes                                         src/sms_v_0_2/src/sms_mpu.o
read_32_from_BTLC1000                             ../src/ASF/thirdparty/wireless/ble_smart_sdk/lib/cm0/gcc\libblusdk.a(gap.o)
read_accel_data                                   src/sms_v_0_2/src/sms_mpu.o
read_comp_data                                    src/sms_v_0_2/src/sms_mpu.o
read_gyro_data                                    src/sms_v_0_2/src/sms_mpu.o
read_status                                       src/ASF/thirdparty/wireless/ble_smart_sdk/services/uart/console_serial.o
read_temp_data                                    src/sms_v_0_2/src/sms_mpu.o
register_ble_user_event_cb                        src/ASF/thirdparty/wireless/ble_smart_sdk/ble_services/ble_mgr/ble_manager.o
register_linkloss_handler                         src/ASF/thirdparty/wireless/ble_smart_sdk/ble_profiles/pxp_reporter/pxp_reporter.o
register_pathloss_handler                         src/ASF/thirdparty/wireless/ble_smart_sdk/ble_profiles/pxp_reporter/pxp_reporter.o
register_resume_callback                          src/ASF/thirdparty/wireless/ble_smart_sdk/src/platform_drv.o
                                                  src/sms_peripheral1.o
register_state_handler                            src/ASF/thirdparty/wireless/ble_smart_sdk/ble_profiles/pxp_reporter/pxp_reporter.o
register_uart_callback                            src/ASF/thirdparty/wireless/ble_smart_sdk/services/uart/console_serial.o
release_message_lock                              src/ASF/thirdparty/wireless/ble_smart_sdk/src/platform_drv.o
                                                  ../src/ASF/thirdparty/wireless/ble_smart_sdk/lib/cm0/gcc\libblusdk.a(interface.o)
                                                  ../src/ASF/thirdparty/wireless/ble_smart_sdk/lib/cm0/gcc\libblusdk.a(event.o)
release_sleep_lock                                src/ASF/thirdparty/wireless/ble_smart_sdk/src/platform_drv.o
                                                  src/ASF/thirdparty/wireless/ble_smart_sdk/ble_services/ble_mgr/ble_manager.o
                                                  src/sms_v_0_2/src/sms_ble.o
rint                                              c:/program files (x86)/atmel/studio/7.0/toolchain/arm/arm-gnu-toolchain/bin/../lib/gcc/arm-none-eabi/5.3.1/../../../../arm-none-eabi/lib/armv6-m\libm.a(lib_a-s_rint.o)
                                                  c:/program files (x86)/atmel/studio/7.0/toolchain/arm/arm-gnu-toolchain/bin/../lib/gcc/arm-none-eabi/5.3.1/../../../../arm-none-eabi/lib/armv6-m\libm.a(lib_a-w_pow.o)
rwip_prevent_sleep_clear                          src/ASF/thirdparty/wireless/ble_smart_sdk/src/platform_drv.o
rwip_prevent_sleep_set                            src/ASF/thirdparty/wireless/ble_smart_sdk/src/platform_drv.o
rx_buffer                                         src/ASF/thirdparty/wireless/ble_smart_sdk/src/platform_drv.o
rx_callback                                       ../src/ASF/thirdparty/wireless/ble_smart_sdk/lib/cm0/gcc\libblusdk.a(interface.o)
                                                  ../src/ASF/thirdparty/wireless/ble_smart_sdk/lib/cm0/gcc\libblusdk.a(gap.o)
samb11_app_resume_cb                              src/ASF/thirdparty/wireless/ble_smart_sdk/src/platform_drv.o
samb11_plf_resume_callback                        src/ASF/thirdparty/wireless/ble_smart_sdk/src/platform_drv.o
scalbn                                            c:/program files (x86)/atmel/studio/7.0/toolchain/arm/arm-gnu-toolchain/bin/../lib/gcc/arm-none-eabi/5.3.1/../../../../arm-none-eabi/lib/armv6-m\libm.a(lib_a-s_scalbn.o)
                                                  c:/program files (x86)/atmel/studio/7.0/toolchain/arm/arm-gnu-toolchain/bin/../lib/gcc/arm-none-eabi/5.3.1/../../../../arm-none-eabi/lib/armv6-m\libm.a(lib_a-e_pow.o)
scan_info                                         src/ASF/thirdparty/wireless/ble_smart_sdk/ble_services/ble_mgr/ble_manager.o
scan_info_parse                                   src/ASF/thirdparty/wireless/ble_smart_sdk/ble_services/ble_mgr/ble_manager.o
scan_response_count                               src/ASF/thirdparty/wireless/ble_smart_sdk/ble_services/ble_mgr/ble_manager.o
scan_rsp_data                                     src/ASF/thirdparty/wireless/ble_smart_sdk/ble_profiles/pxp_reporter/pxp_reporter.o
secondary_service_uuid                            ../src/ASF/thirdparty/wireless/ble_smart_sdk/lib/cm0/gcc\libblusdk.a(gatt_server.o)
send_plf_int_msg_ind                              src/ASF/thirdparty/wireless/ble_smart_sdk/src/platform_drv.o
                                                  src/sms_v_0_2/src/sms_timer.o
                                                  src/sms_v_0_2/src/sms_mpu.o
                                                  src/sms_v_0_2/src/sms_button.o
sensors_active                                    src/sms_peripheral1.o
                                                  src/ASF/thirdparty/wireless/ble_smart_sdk/ble_services/ble_mgr/ble_manager.o
                                                  src/sms_v_0_2/src/sms_timer.o
                                                  src/sms_v_0_2/src/sms_spi.o
                                                  src/sms_v_0_2/src/sms_sensors.o
                                                  src/sms_v_0_2/src/sms_pressure.o
                                                  src/sms_v_0_2/src/sms_led.o
                                                  src/sms_v_0_2/src/sms_mpu.o
                                                  src/sms_v_0_2/src/sms_i2c.o
                                                  src/sms_v_0_2/src/sms_common.o
                                                  src/sms_v_0_2/src/sms_button.o
                                                  src/sms_v_0_2/src/sms_ble.o
                                                  src/ASF/thirdparty/sensor/mpu9250_kriswiner/quaternion_ahrs.o
serial_console_init                               src/ASF/thirdparty/wireless/ble_smart_sdk/services/uart/console_serial.o
                                                  src/sms_peripheral1.o
server_conf_uuid                                  ../src/ASF/thirdparty/wireless/ble_smart_sdk/lib/cm0/gcc\libblusdk.a(gatt_server.o)
service_setup_buffer                              ../src/ASF/thirdparty/wireless/ble_smart_sdk/lib/cm0/gcc\libblusdk.a(gatt_server.o)
setbuf                                            c:/program files (x86)/atmel/studio/7.0/toolchain/arm/arm-gnu-toolchain/bin/../lib/gcc/arm-none-eabi/5.3.1/../../../../arm-none-eabi/lib/armv6-m\libc_nano.a(lib_a-setbuf.o)
                                                  src/ASF/thirdparty/wireless/ble_smart_sdk/services/uart/console_serial.o
setvbuf                                           c:/program files (x86)/atmel/studio/7.0/toolchain/arm/arm-gnu-toolchain/bin/../lib/gcc/arm-none-eabi/5.3.1/../../../../arm-none-eabi/lib/armv6-m\libc_nano.a(lib_a-setvbuf.o)
                                                  c:/program files (x86)/atmel/studio/7.0/toolchain/arm/arm-gnu-toolchain/bin/../lib/gcc/arm-none-eabi/5.3.1/../../../../arm-none-eabi/lib/armv6-m\libc_nano.a(lib_a-setbuf.o)
sms_ble_adv_report_fn                             src/sms_v_0_2/src/sms_ble.o
sms_ble_advertise                                 src/sms_v_0_2/src/sms_ble.o
                                                  src/sms_v_0_2/src/sms_timer.o
sms_ble_conn_handle                               src/sms_peripheral1.o
                                                  src/ASF/thirdparty/wireless/ble_smart_sdk/ble_services/ble_mgr/ble_manager.o
                                                  src/sms_v_0_2/src/sms_timer.o
                                                  src/sms_v_0_2/src/sms_spi.o
                                                  src/sms_v_0_2/src/sms_sensors.o
                                                  src/sms_v_0_2/src/sms_pressure.o
                                                  src/sms_v_0_2/src/sms_led.o
                                                  src/sms_v_0_2/src/sms_mpu.o
                                                  src/sms_v_0_2/src/sms_i2c.o
                                                  src/sms_v_0_2/src/sms_common.o
                                                  src/sms_v_0_2/src/sms_button.o
                                                  src/sms_v_0_2/src/sms_ble.o
                                                  src/ASF/thirdparty/sensor/mpu9250_kriswiner/quaternion_ahrs.o
sms_ble_connected_fn                              src/sms_v_0_2/src/sms_ble.o
sms_ble_disconnected_fn                           src/sms_v_0_2/src/sms_ble.o
sms_ble_gap_cb                                    src/sms_v_0_2/src/sms_ble.o
                                                  src/sms_peripheral1.o
                                                  src/ASF/thirdparty/wireless/ble_smart_sdk/ble_services/ble_mgr/ble_manager.o
                                                  src/sms_v_0_2/src/sms_timer.o
                                                  src/sms_v_0_2/src/sms_spi.o
                                                  src/sms_v_0_2/src/sms_sensors.o
                                                  src/sms_v_0_2/src/sms_pressure.o
                                                  src/sms_v_0_2/src/sms_led.o
                                                  src/sms_v_0_2/src/sms_mpu.o
                                                  src/sms_v_0_2/src/sms_i2c.o
                                                  src/sms_v_0_2/src/sms_common.o
                                                  src/sms_v_0_2/src/sms_button.o
                                                  src/ASF/thirdparty/sensor/mpu9250_kriswiner/quaternion_ahrs.o
sms_ble_gatt_server_cb                            src/sms_v_0_2/src/sms_ble.o
                                                  src/sms_peripheral1.o
                                                  src/ASF/thirdparty/wireless/ble_smart_sdk/ble_services/ble_mgr/ble_manager.o
                                                  src/sms_v_0_2/src/sms_timer.o
                                                  src/sms_v_0_2/src/sms_spi.o
                                                  src/sms_v_0_2/src/sms_sensors.o
                                                  src/sms_v_0_2/src/sms_pressure.o
                                                  src/sms_v_0_2/src/sms_led.o
                                                  src/sms_v_0_2/src/sms_mpu.o
                                                  src/sms_v_0_2/src/sms_i2c.o
                                                  src/sms_v_0_2/src/sms_common.o
                                                  src/sms_v_0_2/src/sms_button.o
                                                  src/ASF/thirdparty/sensor/mpu9250_kriswiner/quaternion_ahrs.o
sms_ble_ind_retry                                 src/sms_peripheral1.o
                                                  src/ASF/thirdparty/wireless/ble_smart_sdk/ble_services/ble_mgr/ble_manager.o
                                                  src/sms_v_0_2/src/sms_timer.o
                                                  src/sms_v_0_2/src/sms_spi.o
                                                  src/sms_v_0_2/src/sms_sensors.o
                                                  src/sms_v_0_2/src/sms_pressure.o
                                                  src/sms_v_0_2/src/sms_led.o
                                                  src/sms_v_0_2/src/sms_mpu.o
                                                  src/sms_v_0_2/src/sms_i2c.o
                                                  src/sms_v_0_2/src/sms_common.o
                                                  src/sms_v_0_2/src/sms_button.o
                                                  src/sms_v_0_2/src/sms_ble.o
                                                  src/ASF/thirdparty/sensor/mpu9250_kriswiner/quaternion_ahrs.o
sms_ble_indication_confirmed_fn                   src/sms_v_0_2/src/sms_ble.o
sms_ble_init_variables                            src/sms_v_0_2/src/sms_ble.o
                                                  src/sms_peripheral1.o
sms_ble_notification_confirmed_fn                 src/sms_v_0_2/src/sms_ble.o
sms_ble_pair_request_fn                           src/sms_v_0_2/src/sms_ble.o
sms_ble_paired_fn                                 src/sms_v_0_2/src/sms_ble.o
sms_ble_power_down                                src/sms_v_0_2/src/sms_ble.o
                                                  src/sms_v_0_2/src/sms_timer.o
sms_ble_primary_service_define                    src/sms_v_0_2/src/sms_ble.o
                                                  src/sms_v_0_2/src/sms_pressure.o
                                                  src/sms_v_0_2/src/sms_mpu.o
                                                  src/sms_v_0_2/src/sms_button.o
sms_ble_send_characteristic                       src/sms_v_0_2/src/sms_ble.o
                                                  src/sms_peripheral1.o
                                                  src/sms_v_0_2/src/sms_button.o
sms_ble_send_cnt                                  src/sms_peripheral1.o
                                                  src/ASF/thirdparty/wireless/ble_smart_sdk/ble_services/ble_mgr/ble_manager.o
                                                  src/sms_v_0_2/src/sms_timer.o
                                                  src/sms_v_0_2/src/sms_spi.o
                                                  src/sms_v_0_2/src/sms_sensors.o
                                                  src/sms_v_0_2/src/sms_pressure.o
                                                  src/sms_v_0_2/src/sms_led.o
                                                  src/sms_v_0_2/src/sms_mpu.o
                                                  src/sms_v_0_2/src/sms_i2c.o
                                                  src/sms_v_0_2/src/sms_common.o
                                                  src/sms_v_0_2/src/sms_button.o
                                                  src/sms_v_0_2/src/sms_ble.o
                                                  src/ASF/thirdparty/sensor/mpu9250_kriswiner/quaternion_ahrs.o
sms_ble_service_init                              src/sms_v_0_2/src/sms_ble.o
                                                  src/sms_v_0_2/src/sms_pressure.o
                                                  src/sms_v_0_2/src/sms_mpu.o
                                                  src/sms_v_0_2/src/sms_button.o
sms_ble_startup                                   src/sms_v_0_2/src/sms_ble.o
                                                  src/sms_v_0_2/src/sms_timer.o
sms_ble_timeout                                   src/sms_peripheral1.o
                                                  src/ASF/thirdparty/wireless/ble_smart_sdk/ble_services/ble_mgr/ble_manager.o
                                                  src/sms_v_0_2/src/sms_timer.o
                                                  src/sms_v_0_2/src/sms_spi.o
                                                  src/sms_v_0_2/src/sms_sensors.o
                                                  src/sms_v_0_2/src/sms_pressure.o
                                                  src/sms_v_0_2/src/sms_led.o
                                                  src/sms_v_0_2/src/sms_mpu.o
                                                  src/sms_v_0_2/src/sms_i2c.o
                                                  src/sms_v_0_2/src/sms_common.o
                                                  src/sms_v_0_2/src/sms_button.o
                                                  src/sms_v_0_2/src/sms_ble.o
                                                  src/ASF/thirdparty/sensor/mpu9250_kriswiner/quaternion_ahrs.o
sms_btn_cnt                                       src/sms_peripheral1.o
                                                  src/ASF/thirdparty/wireless/ble_smart_sdk/ble_services/ble_mgr/ble_manager.o
                                                  src/sms_v_0_2/src/sms_timer.o
                                                  src/sms_v_0_2/src/sms_spi.o
                                                  src/sms_v_0_2/src/sms_sensors.o
                                                  src/sms_v_0_2/src/sms_pressure.o
                                                  src/sms_v_0_2/src/sms_led.o
                                                  src/sms_v_0_2/src/sms_mpu.o
                                                  src/sms_v_0_2/src/sms_i2c.o
                                                  src/sms_v_0_2/src/sms_common.o
                                                  src/sms_v_0_2/src/sms_button.o
                                                  src/sms_v_0_2/src/sms_ble.o
                                                  src/ASF/thirdparty/sensor/mpu9250_kriswiner/quaternion_ahrs.o
sms_button_bt0_callback                           src/sms_v_0_2/src/sms_button.o
sms_button_bt1_callback                           src/sms_v_0_2/src/sms_button.o
sms_button_define_services                        src/sms_v_0_2/src/sms_button.o
                                                  src/sms_peripheral1.o
sms_button_fn                                     src/sms_v_0_2/src/sms_button.o
                                                  src/sms_peripheral1.o
sms_button_get_state                              src/sms_v_0_2/src/sms_button.o
                                                  src/sms_v_0_2/src/sms_timer.o
sms_button_gpio_init                              src/sms_v_0_2/src/sms_button.o
                                                  src/sms_peripheral1.o
sms_button_init_variables                         src/sms_v_0_2/src/sms_button.o
                                                  src/sms_peripheral1.o
sms_button_register_callbacks                     src/sms_v_0_2/src/sms_button.o
                                                  src/sms_peripheral1.o
sms_button_toggle_callback                        src/sms_v_0_2/src/sms_button.o
                                                  src/sms_peripheral1.o
                                                  src/sms_v_0_2/src/sms_pressure.o
sms_connection_handle                             src/sms_peripheral1.o
                                                  src/ASF/thirdparty/wireless/ble_smart_sdk/ble_services/ble_mgr/ble_manager.o
                                                  src/sms_v_0_2/src/sms_timer.o
                                                  src/sms_v_0_2/src/sms_spi.o
                                                  src/sms_v_0_2/src/sms_sensors.o
                                                  src/sms_v_0_2/src/sms_pressure.o
                                                  src/sms_v_0_2/src/sms_led.o
                                                  src/sms_v_0_2/src/sms_mpu.o
                                                  src/sms_v_0_2/src/sms_i2c.o
                                                  src/sms_v_0_2/src/sms_common.o
                                                  src/sms_v_0_2/src/sms_button.o
                                                  src/sms_v_0_2/src/sms_ble.o
                                                  src/ASF/thirdparty/sensor/mpu9250_kriswiner/quaternion_ahrs.o
sms_dualtimer1_cb                                 src/sms_v_0_2/src/sms_timer.o
                                                  src/sms_peripheral1.o
sms_dualtimer1_fn                                 src/sms_v_0_2/src/sms_timer.o
                                                  src/sms_peripheral1.o
sms_dualtimer2_cb                                 src/sms_v_0_2/src/sms_timer.o
sms_dualtimer2_fn                                 src/sms_v_0_2/src/sms_timer.o
                                                  src/sms_peripheral1.o
sms_dualtimer_init                                src/sms_v_0_2/src/sms_timer.o
                                                  src/sms_peripheral1.o
sms_dualtimer_register_callback                   src/sms_v_0_2/src/sms_timer.o
                                                  src/sms_peripheral1.o
sms_dualtimer_start                               src/sms_v_0_2/src/sms_timer.o
                                                  src/sms_v_0_2/src/sms_led.o
                                                  src/sms_v_0_2/src/sms_button.o
sms_dualtimer_stop                                src/sms_v_0_2/src/sms_timer.o
                                                  src/sms_peripheral1.o
                                                  src/sms_v_0_2/src/sms_ble.o
sms_i2c_master_configure                          src/sms_v_0_2/src/sms_i2c.o
                                                  src/sms_peripheral1.o
sms_i2c_master_read                               src/sms_v_0_2/src/sms_i2c.o
                                                  src/sms_v_0_2/src/sms_mpu.o
sms_i2c_master_write                              src/sms_v_0_2/src/sms_i2c.o
                                                  src/sms_v_0_2/src/sms_mpu.o
sms_init_variables                                src/sms_peripheral1.o
                                                  src/sms_v_0_2/src/sms_timer.o
sms_led_blink_cnt                                 src/sms_peripheral1.o
                                                  src/ASF/thirdparty/wireless/ble_smart_sdk/ble_services/ble_mgr/ble_manager.o
                                                  src/sms_v_0_2/src/sms_timer.o
                                                  src/sms_v_0_2/src/sms_spi.o
                                                  src/sms_v_0_2/src/sms_sensors.o
                                                  src/sms_v_0_2/src/sms_pressure.o
                                                  src/sms_v_0_2/src/sms_led.o
                                                  src/sms_v_0_2/src/sms_mpu.o
                                                  src/sms_v_0_2/src/sms_i2c.o
                                                  src/sms_v_0_2/src/sms_common.o
                                                  src/sms_v_0_2/src/sms_button.o
                                                  src/sms_v_0_2/src/sms_ble.o
                                                  src/ASF/thirdparty/sensor/mpu9250_kriswiner/quaternion_ahrs.o
sms_led_blink_start                               src/sms_v_0_2/src/sms_led.o
                                                  src/sms_v_0_2/src/sms_ble.o
sms_led_get_state                                 src/sms_v_0_2/src/sms_led.o
sms_led_gpio_init                                 src/sms_v_0_2/src/sms_led.o
                                                  src/sms_peripheral1.o
sms_led_switch_off                                src/sms_v_0_2/src/sms_led.o
                                                  src/sms_v_0_2/src/sms_timer.o
sms_led_switch_on                                 src/sms_v_0_2/src/sms_led.o
sms_led_toggle                                    src/sms_v_0_2/src/sms_led.o
                                                  src/sms_v_0_2/src/sms_timer.o
sms_monitor_configure_gpio                        src/sms_v_0_2/src/sms_common.o
                                                  src/sms_peripheral1.o
sms_monitor_get_states                            src/sms_v_0_2/src/sms_common.o
                                                  src/sms_v_0_2/src/sms_timer.o
                                                  src/sms_v_0_2/src/sms_button.o
                                                  src/sms_v_0_2/src/sms_ble.o
sms_mpu_calibrate                                 src/sms_v_0_2/src/sms_mpu.o
                                                  src/sms_peripheral1.o
sms_mpu_check                                     src/sms_v_0_2/src/sms_mpu.o
                                                  src/sms_peripheral1.o
sms_mpu_comp_check                                src/sms_v_0_2/src/sms_mpu.o
                                                  src/sms_peripheral1.o
sms_mpu_comp_initialize                           src/sms_v_0_2/src/sms_mpu.o
                                                  src/sms_peripheral1.o
sms_mpu_configure_gpio                            src/sms_v_0_2/src/sms_mpu.o
                                                  src/sms_peripheral1.o
sms_mpu_define_services                           src/sms_v_0_2/src/sms_mpu.o
                                                  src/sms_peripheral1.o
sms_mpu_disable_callback                          src/sms_v_0_2/src/sms_mpu.o
                                                  src/sms_v_0_2/src/sms_sensors.o
sms_mpu_enable_callback                           src/sms_v_0_2/src/sms_mpu.o
                                                  src/sms_v_0_2/src/sms_sensors.o
sms_mpu_initialize                                src/sms_v_0_2/src/sms_mpu.o
                                                  src/sms_peripheral1.o
sms_mpu_interrupt_callback                        src/sms_v_0_2/src/sms_mpu.o
sms_mpu_poll_data                                 src/sms_v_0_2/src/sms_mpu.o
                                                  src/sms_peripheral1.o
sms_mpu_register_callbacks                        src/sms_v_0_2/src/sms_mpu.o
                                                  src/sms_peripheral1.o
sms_mpu_selftest                                  src/sms_v_0_2/src/sms_mpu.o
sms_mpu_unregister_callbacks                      src/sms_v_0_2/src/sms_mpu.o
sms_pressure_configure_gpio                       src/sms_v_0_2/src/sms_pressure.o
sms_pressure_define_services                      src/sms_v_0_2/src/sms_pressure.o
                                                  src/sms_peripheral1.o
sms_pressure_init                                 src/sms_v_0_2/src/sms_pressure.o
sms_pressure_init_variables                       src/sms_v_0_2/src/sms_pressure.o
                                                  src/sms_peripheral1.o
sms_pressure_ms58_calculate                       src/sms_v_0_2/src/sms_pressure.o
sms_pressure_ms58_read_data                       src/sms_v_0_2/src/sms_pressure.o
sms_pressure_ms58_read_prom                       src/sms_v_0_2/src/sms_pressure.o
sms_pressure_ms58_reset                           src/sms_v_0_2/src/sms_pressure.o
sms_pressure_poll_data                            src/sms_v_0_2/src/sms_pressure.o
sms_pressure_startup                              src/sms_v_0_2/src/sms_pressure.o
                                                  src/sms_v_0_2/src/sms_sensors.o
sms_sensors_interrupt_toggle                      src/sms_v_0_2/src/sms_sensors.o
                                                  src/sms_peripheral1.o
                                                  src/sms_v_0_2/src/sms_timer.o
                                                  src/sms_v_0_2/src/sms_pressure.o
                                                  src/sms_v_0_2/src/sms_button.o
                                                  src/sms_v_0_2/src/sms_ble.o
sms_sensors_switch                                src/sms_v_0_2/src/sms_sensors.o
                                                  src/sms_v_0_2/src/sms_ble.o
sms_spi_master_configure                          src/sms_v_0_2/src/sms_spi.o
                                                  src/sms_peripheral1.o
sms_spi_master_transceive                         src/sms_v_0_2/src/sms_spi.o
                                                  src/sms_v_0_2/src/sms_pressure.o
sms_timer_aon_callback                            src/sms_v_0_2/src/sms_timer.o
sms_timer_aon_disable                             src/sms_v_0_2/src/sms_timer.o
                                                  src/sms_v_0_2/src/sms_sensors.o
sms_timer_aon_get_ms                              src/sms_v_0_2/src/sms_timer.o
sms_timer_aon_init                                src/sms_v_0_2/src/sms_timer.o
                                                  src/sms_v_0_2/src/sms_sensors.o
sms_timer_aon_register_callback                   src/sms_v_0_2/src/sms_timer.o
                                                  src/sms_v_0_2/src/sms_sensors.o
sms_timer_aon_unregister_callback                 src/sms_v_0_2/src/sms_timer.o
                                                  src/sms_v_0_2/src/sms_sensors.o
sms_working_mode                                  src/sms_peripheral1.o
                                                  src/ASF/thirdparty/wireless/ble_smart_sdk/ble_services/ble_mgr/ble_manager.o
                                                  src/sms_v_0_2/src/sms_timer.o
                                                  src/sms_v_0_2/src/sms_spi.o
                                                  src/sms_v_0_2/src/sms_sensors.o
                                                  src/sms_v_0_2/src/sms_pressure.o
                                                  src/sms_v_0_2/src/sms_led.o
                                                  src/sms_v_0_2/src/sms_mpu.o
                                                  src/sms_v_0_2/src/sms_i2c.o
                                                  src/sms_v_0_2/src/sms_common.o
                                                  src/sms_v_0_2/src/sms_button.o
                                                  src/sms_v_0_2/src/sms_ble.o
                                                  src/ASF/thirdparty/sensor/mpu9250_kriswiner/quaternion_ahrs.o
software_init_hook                                c:/program files (x86)/atmel/studio/7.0/toolchain/arm/arm-gnu-toolchain/bin/../lib/gcc/arm-none-eabi/5.3.1/../../../../arm-none-eabi/lib/armv6-m/crt0.o
special_events_handler                            ../src/ASF/thirdparty/wireless/ble_smart_sdk/lib/cm0/gcc\libblusdk.a(event.o)
                                                  ../src/ASF/thirdparty/wireless/ble_smart_sdk/lib/cm0/gcc\libblusdk.a(interface.o)
spi_attach_slave                                  src/ASF/sam0/drivers/spi/spi.o
                                                  src/sms_v_0_2/src/sms_spi.o
spi_disable                                       src/ASF/sam0/drivers/spi/spi.o
spi_enable                                        src/ASF/sam0/drivers/spi/spi.o
                                                  src/sms_v_0_2/src/sms_spi.o
spi_get_config_defaults                           src/ASF/sam0/drivers/spi/spi.o
                                                  src/sms_v_0_2/src/sms_spi.o
spi_init                                          src/ASF/sam0/drivers/spi/spi.o
                                                  src/sms_v_0_2/src/sms_spi.o
spi_lock                                          src/ASF/sam0/drivers/spi/spi.o
spi_master_ms58_instance                          src/sms_peripheral1.o
                                                  src/ASF/thirdparty/wireless/ble_smart_sdk/ble_services/ble_mgr/ble_manager.o
                                                  src/sms_v_0_2/src/sms_timer.o
                                                  src/sms_v_0_2/src/sms_spi.o
                                                  src/sms_v_0_2/src/sms_sensors.o
                                                  src/sms_v_0_2/src/sms_pressure.o
                                                  src/sms_v_0_2/src/sms_led.o
                                                  src/sms_v_0_2/src/sms_mpu.o
                                                  src/sms_v_0_2/src/sms_i2c.o
                                                  src/sms_v_0_2/src/sms_common.o
                                                  src/sms_v_0_2/src/sms_button.o
                                                  src/sms_v_0_2/src/sms_ble.o
                                                  src/ASF/thirdparty/sensor/mpu9250_kriswiner/quaternion_ahrs.o
spi_rdata                                         src/sms_peripheral1.o
                                                  src/ASF/thirdparty/wireless/ble_smart_sdk/ble_services/ble_mgr/ble_manager.o
                                                  src/sms_v_0_2/src/sms_timer.o
                                                  src/sms_v_0_2/src/sms_spi.o
                                                  src/sms_v_0_2/src/sms_sensors.o
                                                  src/sms_v_0_2/src/sms_pressure.o
                                                  src/sms_v_0_2/src/sms_led.o
                                                  src/sms_v_0_2/src/sms_mpu.o
                                                  src/sms_v_0_2/src/sms_i2c.o
                                                  src/sms_v_0_2/src/sms_common.o
                                                  src/sms_v_0_2/src/sms_button.o
                                                  src/sms_v_0_2/src/sms_ble.o
                                                  src/ASF/thirdparty/sensor/mpu9250_kriswiner/quaternion_ahrs.o
spi_read                                          src/ASF/sam0/drivers/spi/spi.o
spi_read_buffer_wait                              src/ASF/sam0/drivers/spi/spi.o
spi_reset                                         src/ASF/sam0/drivers/spi/spi.o
spi_select_slave                                  src/ASF/sam0/drivers/spi/spi.o
                                                  src/sms_v_0_2/src/sms_spi.o
spi_slave_inst_get_config_defaults                src/ASF/sam0/drivers/spi/spi.o
                                                  src/sms_v_0_2/src/sms_spi.o
spi_slave_ms58_instance                           src/sms_peripheral1.o
                                                  src/ASF/thirdparty/wireless/ble_smart_sdk/ble_services/ble_mgr/ble_manager.o
                                                  src/sms_v_0_2/src/sms_timer.o
                                                  src/sms_v_0_2/src/sms_spi.o
                                                  src/sms_v_0_2/src/sms_sensors.o
                                                  src/sms_v_0_2/src/sms_pressure.o
                                                  src/sms_v_0_2/src/sms_led.o
                                                  src/sms_v_0_2/src/sms_mpu.o
                                                  src/sms_v_0_2/src/sms_i2c.o
                                                  src/sms_v_0_2/src/sms_common.o
                                                  src/sms_v_0_2/src/sms_button.o
                                                  src/sms_v_0_2/src/sms_ble.o
                                                  src/ASF/thirdparty/sensor/mpu9250_kriswiner/quaternion_ahrs.o
spi_transceive_buffer_wait                        src/ASF/sam0/drivers/spi/spi.o
                                                  src/sms_v_0_2/src/sms_spi.o
spi_transceive_wait                               src/ASF/sam0/drivers/spi/spi.o
spi_unlock                                        src/ASF/sam0/drivers/spi/spi.o
spi_wdata                                         src/sms_peripheral1.o
                                                  src/ASF/thirdparty/wireless/ble_smart_sdk/ble_services/ble_mgr/ble_manager.o
                                                  src/sms_v_0_2/src/sms_timer.o
                                                  src/sms_v_0_2/src/sms_spi.o
                                                  src/sms_v_0_2/src/sms_sensors.o
                                                  src/sms_v_0_2/src/sms_pressure.o
                                                  src/sms_v_0_2/src/sms_led.o
                                                  src/sms_v_0_2/src/sms_mpu.o
                                                  src/sms_v_0_2/src/sms_i2c.o
                                                  src/sms_v_0_2/src/sms_common.o
                                                  src/sms_v_0_2/src/sms_button.o
                                                  src/sms_v_0_2/src/sms_ble.o
                                                  src/ASF/thirdparty/sensor/mpu9250_kriswiner/quaternion_ahrs.o
spi_write                                         src/ASF/sam0/drivers/spi/spi.o
spi_write_buffer_wait                             src/ASF/sam0/drivers/spi/spi.o
sqrtf                                             c:/program files (x86)/atmel/studio/7.0/toolchain/arm/arm-gnu-toolchain/bin/../lib/gcc/arm-none-eabi/5.3.1/../../../../arm-none-eabi/lib/armv6-m\libm.a(lib_a-wf_sqrt.o)
                                                  src/ASF/thirdparty/sensor/mpu9250_kriswiner/quaternion_ahrs.o
srand                                             c:/program files (x86)/atmel/studio/7.0/toolchain/arm/arm-gnu-toolchain/bin/../lib/gcc/arm-none-eabi/5.3.1/../../../../arm-none-eabi/lib/armv6-m\libc_nano.a(lib_a-rand.o)
start_timer                                       ../src/ASF/thirdparty/wireless/ble_smart_sdk/lib/cm0/gcc\libblusdk.a(interface.o)
                                                  ../src/ASF/thirdparty/wireless/ble_smart_sdk/lib/cm0/gcc\libblusdk.a(event.o)
stdio_base                                        src/ASF/sam0/utils/stdio/write.o
                                                  src/ASF/thirdparty/wireless/ble_smart_sdk/services/uart/console_serial.o
                                                  src/ASF/sam0/utils/stdio/read.o
stop_timer                                        ../src/ASF/thirdparty/wireless/ble_smart_sdk/lib/cm0/gcc\libblusdk.a(interface.o)
                                                  ../src/ASF/thirdparty/wireless/ble_smart_sdk/lib/cm0/gcc\libblusdk.a(event.o)
string_input                                      src/ASF/thirdparty/wireless/ble_smart_sdk/services/uart/console_serial.o
system_board_init                                 src/ASF/sam0/boards/samb11_xplained_pro/board_init.o
system_calibration_get_config_defaults            src/ASF/sam0/drivers/system/system_sam_b.o
system_calibration_get_interrupt_status           src/ASF/sam0/drivers/system/system_sam_b.o
system_calibration_set_config                     src/ASF/sam0/drivers/system/system_sam_b.o
system_clock_aon_config                           src/ASF/sam0/drivers/system/system_sam_b.o
system_clock_config                               src/ASF/sam0/drivers/system/system_sam_b.o
                                                  src/ASF/thirdparty/wireless/ble_smart_sdk/services/uart/console_serial.o
system_clock_get_value                            src/ASF/sam0/drivers/system/system_sam_b.o
                                                  src/ASF/thirdparty/wireless/ble_smart_sdk/services/uart/console_serial.o
                                                  src/ASF/sam0/drivers/uart/uart.o
system_clock_peripheral_aon_disable               src/ASF/sam0/drivers/system/system_sam_b.o
system_clock_peripheral_aon_enable                src/ASF/sam0/drivers/system/system_sam_b.o
system_clock_peripheral_disable                   src/ASF/sam0/drivers/system/system_sam_b.o
                                                  src/ASF/sam0/drivers/spi/spi.o
system_clock_peripheral_enable                    src/ASF/sam0/drivers/system/system_sam_b.o
                                                  src/ASF/sam0/drivers/uart/uart.o
                                                  src/ASF/sam0/drivers/spi/spi.o
system_clock_peripheral_freq_config               src/ASF/sam0/drivers/system/system_sam_b.o
system_clock_value                                src/ASF/sam0/drivers/system/system_sam_b.o
system_global_reset                               src/ASF/sam0/drivers/system/system_sam_b.o
system_osc_calibration_clear_status               src/ASF/sam0/drivers/system/system_sam_b.o
system_osc_calibration_disable                    src/ASF/sam0/drivers/system/system_sam_b.o
system_osc_calibration_enable                     src/ASF/sam0/drivers/system/system_sam_b.o
system_osc_calibration_get_status                 src/ASF/sam0/drivers/system/system_sam_b.o
system_osc_calibration_result                     src/ASF/sam0/drivers/system/system_sam_b.o
system_peripheral_reset                           src/ASF/sam0/drivers/system/system_sam_b.o
                                                  src/ASF/sam0/drivers/uart/uart.o
                                                  src/ASF/sam0/drivers/timer/timer.o
                                                  src/ASF/sam0/drivers/dualtimer/dualtimer.o
                                                  src/ASF/sam0/drivers/spi/spi.o
                                                  src/ASF/sam0/drivers/i2c/i2c_master.o
system_register_isr                               src/ASF/sam0/drivers/system/system_sam_b.o
                                                  src/ASF/sam0/drivers/uart/uart.o
                                                  src/ASF/sam0/drivers/timer/timer.o
                                                  src/ASF/sam0/drivers/gpio/gpio.o
                                                  src/ASF/sam0/drivers/dualtimer/dualtimer.o
                                                  src/ASF/sam0/drivers/aon_sleep_timer/aon_sleep_timer.o
system_rtc_calibration_clear_status               src/ASF/sam0/drivers/system/system_sam_b.o
system_rtc_calibration_disable                    src/ASF/sam0/drivers/system/system_sam_b.o
system_rtc_calibration_enable                     src/ASF/sam0/drivers/system/system_sam_b.o
system_rtc_calibration_get_status                 src/ASF/sam0/drivers/system/system_sam_b.o
system_rtc_calibration_result                     src/ASF/sam0/drivers/system/system_sam_b.o
system_unregister_isr                             src/ASF/sam0/drivers/system/system_sam_b.o
tick                                              src/ASF/thirdparty/wireless/ble_smart_sdk/services/uart/console_serial.o
timer1_current_mode                               src/sms_peripheral1.o
                                                  src/ASF/thirdparty/wireless/ble_smart_sdk/ble_services/ble_mgr/ble_manager.o
                                                  src/sms_v_0_2/src/sms_timer.o
                                                  src/sms_v_0_2/src/sms_spi.o
                                                  src/sms_v_0_2/src/sms_sensors.o
                                                  src/sms_v_0_2/src/sms_pressure.o
                                                  src/sms_v_0_2/src/sms_led.o
                                                  src/sms_v_0_2/src/sms_mpu.o
                                                  src/sms_v_0_2/src/sms_i2c.o
                                                  src/sms_v_0_2/src/sms_common.o
                                                  src/sms_v_0_2/src/sms_button.o
                                                  src/sms_v_0_2/src/sms_ble.o
                                                  src/ASF/thirdparty/sensor/mpu9250_kriswiner/quaternion_ahrs.o
timer1_instance                                   src/sms_peripheral1.o
                                                  src/ASF/thirdparty/wireless/ble_smart_sdk/ble_services/ble_mgr/ble_manager.o
                                                  src/sms_v_0_2/src/sms_timer.o
                                                  src/sms_v_0_2/src/sms_spi.o
                                                  src/sms_v_0_2/src/sms_sensors.o
                                                  src/sms_v_0_2/src/sms_pressure.o
                                                  src/sms_v_0_2/src/sms_led.o
                                                  src/sms_v_0_2/src/sms_mpu.o
                                                  src/sms_v_0_2/src/sms_i2c.o
                                                  src/sms_v_0_2/src/sms_common.o
                                                  src/sms_v_0_2/src/sms_button.o
                                                  src/sms_v_0_2/src/sms_ble.o
                                                  src/ASF/thirdparty/sensor/mpu9250_kriswiner/quaternion_ahrs.o
timer2_current_mode                               src/sms_peripheral1.o
                                                  src/ASF/thirdparty/wireless/ble_smart_sdk/ble_services/ble_mgr/ble_manager.o
                                                  src/sms_v_0_2/src/sms_timer.o
                                                  src/sms_v_0_2/src/sms_spi.o
                                                  src/sms_v_0_2/src/sms_sensors.o
                                                  src/sms_v_0_2/src/sms_pressure.o
                                                  src/sms_v_0_2/src/sms_led.o
                                                  src/sms_v_0_2/src/sms_mpu.o
                                                  src/sms_v_0_2/src/sms_i2c.o
                                                  src/sms_v_0_2/src/sms_common.o
                                                  src/sms_v_0_2/src/sms_button.o
                                                  src/sms_v_0_2/src/sms_ble.o
                                                  src/ASF/thirdparty/sensor/mpu9250_kriswiner/quaternion_ahrs.o
timer2_instance                                   src/sms_peripheral1.o
                                                  src/ASF/thirdparty/wireless/ble_smart_sdk/ble_services/ble_mgr/ble_manager.o
                                                  src/sms_v_0_2/src/sms_timer.o
                                                  src/sms_v_0_2/src/sms_spi.o
                                                  src/sms_v_0_2/src/sms_sensors.o
                                                  src/sms_v_0_2/src/sms_pressure.o
                                                  src/sms_v_0_2/src/sms_led.o
                                                  src/sms_v_0_2/src/sms_mpu.o
                                                  src/sms_v_0_2/src/sms_i2c.o
                                                  src/sms_v_0_2/src/sms_common.o
                                                  src/sms_v_0_2/src/sms_button.o
                                                  src/sms_v_0_2/src/sms_ble.o
                                                  src/ASF/thirdparty/sensor/mpu9250_kriswiner/quaternion_ahrs.o
timer_clear_interrupt_status                      src/ASF/sam0/drivers/timer/timer.o
timer_disable                                     src/ASF/sam0/drivers/timer/timer.o
timer_enable                                      src/ASF/sam0/drivers/timer/timer.o
timer_get_config_defaults                         src/ASF/sam0/drivers/timer/timer.o
timer_get_interrupt_status                        src/ASF/sam0/drivers/timer/timer.o
timer_get_value                                   src/ASF/sam0/drivers/timer/timer.o
timer_init                                        src/ASF/sam0/drivers/timer/timer.o
timer_register_callback                           src/ASF/sam0/drivers/timer/timer.o
timer_set_value                                   src/ASF/sam0/drivers/timer/timer.o
timer_unregister_callback                         src/ASF/sam0/drivers/timer/timer.o
tx_power_initial_value                            src/ASF/thirdparty/wireless/ble_smart_sdk/ble_services/tx_power/tx_power.o
txps_handle                                       src/ASF/thirdparty/wireless/ble_smart_sdk/ble_profiles/pxp_reporter/pxp_reporter.o
txps_primary_service_define                       src/ASF/thirdparty/wireless/ble_smart_sdk/ble_services/tx_power/tx_power.o
                                                  src/ASF/thirdparty/wireless/ble_smart_sdk/ble_profiles/pxp_reporter/pxp_reporter.o
u32dbMemorySize                                   ../src/ASF/thirdparty/wireless/ble_smart_sdk/lib/cm0/gcc\libblusdk.a(gatt_server.o)
                                                  ../src/ASF/thirdparty/wireless/ble_smart_sdk/lib/cm0/gcc\libblusdk.a(gattm_task.o)
u32numberOfValues                                 ../src/ASF/thirdparty/wireless/ble_smart_sdk/lib/cm0/gcc\libblusdk.a(gatt_server.o)
u32usedBuffers                                    ../src/ASF/thirdparty/wireless/ble_smart_sdk/lib/cm0/gcc\libblusdk.a(gattm_task.o)
                                                  ../src/ASF/thirdparty/wireless/ble_smart_sdk/lib/cm0/gcc\libblusdk.a(gattc_task.o)
                                                  ../src/ASF/thirdparty/wireless/ble_smart_sdk/lib/cm0/gcc\libblusdk.a(gatt_server.o)
                                                  ../src/ASF/thirdparty/wireless/ble_smart_sdk/lib/cm0/gcc\libblusdk.a(gap.o)
uart_disable_callback                             src/ASF/sam0/drivers/uart/uart.o
                                                  src/ASF/thirdparty/wireless/ble_smart_sdk/services/uart/console_serial.o
uart_disable_receive_dma                          src/ASF/sam0/drivers/uart/uart.o
uart_disable_transmit_dma                         src/ASF/sam0/drivers/uart/uart.o
uart_enable_callback                              src/ASF/sam0/drivers/uart/uart.o
                                                  src/ASF/thirdparty/wireless/ble_smart_sdk/services/uart/console_serial.o
uart_enable_receive_dma                           src/ASF/sam0/drivers/uart/uart.o
uart_enable_transmit_dma                          src/ASF/sam0/drivers/uart/uart.o
uart_get_config_defaults                          src/ASF/sam0/drivers/uart/uart.o
                                                  src/ASF/thirdparty/wireless/ble_smart_sdk/services/uart/console_serial.o
uart_init                                         src/ASF/sam0/drivers/uart/uart.o
                                                  src/ASF/thirdparty/wireless/ble_smart_sdk/services/uart/console_serial.o
uart_instance                                     src/ASF/thirdparty/wireless/ble_smart_sdk/services/uart/console_serial.o
uart_read_buffer_job                              src/ASF/sam0/drivers/uart/uart.o
                                                  src/ASF/thirdparty/wireless/ble_smart_sdk/services/uart/console_serial.o
uart_read_buffer_wait                             src/ASF/sam0/drivers/uart/uart.o
uart_read_wait                                    src/ASF/sam0/drivers/uart/uart.o
                                                  src/ASF/thirdparty/wireless/ble_smart_sdk/services/uart/console_serial.o
uart_register_callback                            src/ASF/sam0/drivers/uart/uart.o
                                                  src/ASF/thirdparty/wireless/ble_smart_sdk/services/uart/console_serial.o
uart_unregister_callback                          src/ASF/sam0/drivers/uart/uart.o
uart_write_buffer_job                             src/ASF/sam0/drivers/uart/uart.o
uart_write_buffer_wait                            src/ASF/sam0/drivers/uart/uart.o
uart_write_wait                                   src/ASF/sam0/drivers/uart/uart.o
                                                  src/ASF/thirdparty/wireless/ble_smart_sdk/services/uart/console_serial.o
ulp_active                                        src/sms_peripheral1.o
                                                  src/ASF/thirdparty/wireless/ble_smart_sdk/ble_services/ble_mgr/ble_manager.o
                                                  src/sms_v_0_2/src/sms_timer.o
                                                  src/sms_v_0_2/src/sms_spi.o
                                                  src/sms_v_0_2/src/sms_sensors.o
                                                  src/sms_v_0_2/src/sms_pressure.o
                                                  src/sms_v_0_2/src/sms_led.o
                                                  src/sms_v_0_2/src/sms_mpu.o
                                                  src/sms_v_0_2/src/sms_i2c.o
                                                  src/sms_v_0_2/src/sms_common.o
                                                  src/sms_v_0_2/src/sms_button.o
                                                  src/sms_v_0_2/src/sms_ble.o
                                                  src/ASF/thirdparty/sensor/mpu9250_kriswiner/quaternion_ahrs.o
ulp_ready                                         src/sms_peripheral1.o
                                                  src/ASF/thirdparty/wireless/ble_smart_sdk/ble_services/ble_mgr/ble_manager.o
                                                  src/sms_v_0_2/src/sms_timer.o
                                                  src/sms_v_0_2/src/sms_spi.o
                                                  src/sms_v_0_2/src/sms_sensors.o
                                                  src/sms_v_0_2/src/sms_pressure.o
                                                  src/sms_v_0_2/src/sms_led.o
                                                  src/sms_v_0_2/src/sms_mpu.o
                                                  src/sms_v_0_2/src/sms_i2c.o
                                                  src/sms_v_0_2/src/sms_common.o
                                                  src/sms_v_0_2/src/sms_button.o
                                                  src/sms_v_0_2/src/sms_ble.o
                                                  src/ASF/thirdparty/sensor/mpu9250_kriswiner/quaternion_ahrs.o
ulp_status                                        src/ASF/thirdparty/wireless/ble_smart_sdk/ble_services/ble_mgr/ble_manager.o
unNull                                            ../src/ASF/thirdparty/wireless/ble_smart_sdk/lib/cm0/gcc\libblusdk.a(gatt_server.o)
                                                  ../src/ASF/thirdparty/wireless/ble_smart_sdk/lib/cm0/gcc\libblusdk.a(gap.o)
updateuartbr_fp                                   src/ASF/thirdparty/wireless/ble_smart_sdk/src/platform_drv.o
user_callback_func                                src/ASF/thirdparty/wireless/ble_smart_sdk/services/uart/console_serial.o
user_desc_uuid                                    ../src/ASF/thirdparty/wireless/ble_smart_sdk/lib/cm0/gcc\libblusdk.a(gatt_server.o)
wakeup_active_event_callback                      src/ASF/thirdparty/wireless/ble_smart_sdk/src/port_from_sdk.o
                                                  src/ASF/thirdparty/wireless/ble_smart_sdk/src/platform_drv.o
wakeup_event_pending                              src/ASF/thirdparty/wireless/ble_smart_sdk/src/platform_drv.o
wakeup_int_unregister_callback                    src/ASF/thirdparty/wireless/ble_smart_sdk/src/port_from_sdk.o
                                                  src/ASF/thirdparty/wireless/ble_smart_sdk/src/platform_drv.o
wakeup_source_active_cb                           src/ASF/thirdparty/wireless/ble_smart_sdk/src/platform_drv.o
wakeup_source_callback                            src/ASF/thirdparty/wireless/ble_smart_sdk/src/port_from_sdk.o
watched_event                                     ../src/ASF/thirdparty/wireless/ble_smart_sdk/lib/cm0/gcc\libblusdk.a(event.o)
                                                  ../src/ASF/thirdparty/wireless/ble_smart_sdk/lib/cm0/gcc\libblusdk.a(gattm_task.o)
                                                  ../src/ASF/thirdparty/wireless/ble_smart_sdk/lib/cm0/gcc\libblusdk.a(gapm_task.o)
                                                  ../src/ASF/thirdparty/wireless/ble_smart_sdk/lib/cm0/gcc\libblusdk.a(gapc_task.o)
                                                  ../src/ASF/thirdparty/wireless/ble_smart_sdk/lib/cm0/gcc\libblusdk.a(dbg_task.o)
                                                  ../src/ASF/thirdparty/wireless/ble_smart_sdk/lib/cm0/gcc\libblusdk.a(calib_task.o)
writeByte                                         src/sms_v_0_2/src/sms_mpu.o
