
SMS_peripheral1.elf:     file format elf32-littlearm

Sections:
Idx Name          Size      VMA       LMA       File off  Algn
  0 .text         00009e98  10008000  10008000  00008000  2**2
                  CONTENTS, ALLOC, LOAD, READONLY, CODE
  1 .relocate     0000006c  10011e98  10011e98  00011e98  2**2
                  CONTENTS, ALLOC, LOAD, DATA
  2 .bss          00002dd0  10011f04  10011f04  00011f04  2**2
                  ALLOC
  3 .stack        00001804  10014cd4  10014cd4  00011f04  2**0
                  ALLOC
  4 .ARM.attributes 00000028  00000000  00000000  00011f04  2**0
                  CONTENTS, READONLY
  5 .comment      000000b4  00000000  00000000  00011f2c  2**0
                  CONTENTS, READONLY
  6 .debug_frame  000009fc  00000000  00000000  00011fe0  2**2
                  CONTENTS, READONLY, DEBUGGING

Disassembly of section .text:

10008000 <app_entry>:
10008000:	480d      	ldr	r0, [pc, #52]	; (10008038 <app_entry+0x38>)
10008002:	490e      	ldr	r1, [pc, #56]	; (1000803c <app_entry+0x3c>)
10008004:	b570      	push	{r4, r5, r6, lr}
10008006:	4288      	cmp	r0, r1
10008008:	d002      	beq.n	10008010 <app_entry+0x10>
1000800a:	2300      	movs	r3, #0
1000800c:	4c0c      	ldr	r4, [pc, #48]	; (10008040 <app_entry+0x40>)
1000800e:	e003      	b.n	10008018 <app_entry+0x18>
10008010:	4b0c      	ldr	r3, [pc, #48]	; (10008044 <app_entry+0x44>)
10008012:	4a0d      	ldr	r2, [pc, #52]	; (10008048 <app_entry+0x48>)
10008014:	2100      	movs	r1, #0
10008016:	e006      	b.n	10008026 <app_entry+0x26>
10008018:	18ca      	adds	r2, r1, r3
1000801a:	42a2      	cmp	r2, r4
1000801c:	d2f8      	bcs.n	10008010 <app_entry+0x10>
1000801e:	58c5      	ldr	r5, [r0, r3]
10008020:	3304      	adds	r3, #4
10008022:	6015      	str	r5, [r2, #0]
10008024:	e7f8      	b.n	10008018 <app_entry+0x18>
10008026:	4293      	cmp	r3, r2
10008028:	d201      	bcs.n	1000802e <app_entry+0x2e>
1000802a:	c302      	stmia	r3!, {r1}
1000802c:	e7fb      	b.n	10008026 <app_entry+0x26>
1000802e:	4b07      	ldr	r3, [pc, #28]	; (1000804c <app_entry+0x4c>)
10008030:	4798      	blx	r3
10008032:	4b07      	ldr	r3, [pc, #28]	; (10008050 <app_entry+0x50>)
10008034:	4798      	blx	r3
10008036:	bd70      	pop	{r4, r5, r6, pc}
10008038:	10011e98 	.word	0x10011e98
1000803c:	10011e98 	.word	0x10011e98
10008040:	10011f04 	.word	0x10011f04
10008044:	10011f04 	.word	0x10011f04
10008048:	10014cd4 	.word	0x10014cd4
1000804c:	10010aa5 	.word	0x10010aa5
10008050:	1000c2f9 	.word	0x1000c2f9

10008054 <__do_global_dtors_aux>:
10008054:	b510      	push	{r4, lr}
10008056:	4c06      	ldr	r4, [pc, #24]	; (10008070 <__do_global_dtors_aux+0x1c>)
10008058:	7823      	ldrb	r3, [r4, #0]
1000805a:	2b00      	cmp	r3, #0
1000805c:	d107      	bne.n	1000806e <__do_global_dtors_aux+0x1a>
1000805e:	4b05      	ldr	r3, [pc, #20]	; (10008074 <__do_global_dtors_aux+0x20>)
10008060:	2b00      	cmp	r3, #0
10008062:	d002      	beq.n	1000806a <__do_global_dtors_aux+0x16>
10008064:	4804      	ldr	r0, [pc, #16]	; (10008078 <__do_global_dtors_aux+0x24>)
10008066:	e000      	b.n	1000806a <__do_global_dtors_aux+0x16>
10008068:	bf00      	nop
1000806a:	2301      	movs	r3, #1
1000806c:	7023      	strb	r3, [r4, #0]
1000806e:	bd10      	pop	{r4, pc}
10008070:	10011f04 	.word	0x10011f04
10008074:	00000000 	.word	0x00000000
10008078:	10011e98 	.word	0x10011e98

1000807c <frame_dummy>:
1000807c:	4b08      	ldr	r3, [pc, #32]	; (100080a0 <frame_dummy+0x24>)
1000807e:	b510      	push	{r4, lr}
10008080:	2b00      	cmp	r3, #0
10008082:	d003      	beq.n	1000808c <frame_dummy+0x10>
10008084:	4907      	ldr	r1, [pc, #28]	; (100080a4 <frame_dummy+0x28>)
10008086:	4808      	ldr	r0, [pc, #32]	; (100080a8 <frame_dummy+0x2c>)
10008088:	e000      	b.n	1000808c <frame_dummy+0x10>
1000808a:	bf00      	nop
1000808c:	4807      	ldr	r0, [pc, #28]	; (100080ac <frame_dummy+0x30>)
1000808e:	6803      	ldr	r3, [r0, #0]
10008090:	2b00      	cmp	r3, #0
10008092:	d100      	bne.n	10008096 <frame_dummy+0x1a>
10008094:	bd10      	pop	{r4, pc}
10008096:	4b06      	ldr	r3, [pc, #24]	; (100080b0 <frame_dummy+0x34>)
10008098:	2b00      	cmp	r3, #0
1000809a:	d0fb      	beq.n	10008094 <frame_dummy+0x18>
1000809c:	4798      	blx	r3
1000809e:	e7f9      	b.n	10008094 <frame_dummy+0x18>
100080a0:	00000000 	.word	0x00000000
100080a4:	10011f08 	.word	0x10011f08
100080a8:	10011e98 	.word	0x10011e98
100080ac:	10011e98 	.word	0x10011e98
100080b0:	00000000 	.word	0x00000000

100080b4 <aon_sleep_timer_get_config_defaults>:
100080b4:	2301      	movs	r3, #1
100080b6:	7003      	strb	r3, [r0, #0]
100080b8:	7043      	strb	r3, [r0, #1]
100080ba:	23fa      	movs	r3, #250	; 0xfa
100080bc:	01db      	lsls	r3, r3, #7
100080be:	6043      	str	r3, [r0, #4]
100080c0:	4770      	bx	lr
	...

100080c4 <aon_sleep_timer_disable>:
100080c4:	2200      	movs	r2, #0
100080c6:	2103      	movs	r1, #3
100080c8:	4b05      	ldr	r3, [pc, #20]	; (100080e0 <aon_sleep_timer_disable+0x1c>)
100080ca:	605a      	str	r2, [r3, #4]
100080cc:	681a      	ldr	r2, [r3, #0]
100080ce:	438a      	bics	r2, r1
100080d0:	601a      	str	r2, [r3, #0]
100080d2:	2280      	movs	r2, #128	; 0x80
100080d4:	01d2      	lsls	r2, r2, #7
100080d6:	6819      	ldr	r1, [r3, #0]
100080d8:	4211      	tst	r1, r2
100080da:	d1fc      	bne.n	100080d6 <aon_sleep_timer_disable+0x12>
100080dc:	4770      	bx	lr
100080de:	46c0      	nop			; (mov r8, r8)
100080e0:	4000d000 	.word	0x4000d000

100080e4 <aon_sleep_timer_clear_interrup>:
100080e4:	2110      	movs	r1, #16
100080e6:	4a02      	ldr	r2, [pc, #8]	; (100080f0 <aon_sleep_timer_clear_interrup+0xc>)
100080e8:	6813      	ldr	r3, [r2, #0]
100080ea:	430b      	orrs	r3, r1
100080ec:	6013      	str	r3, [r2, #0]
100080ee:	4770      	bx	lr
100080f0:	4000d000 	.word	0x4000d000

100080f4 <aon_sleep_timer_isr_handler>:
100080f4:	4b04      	ldr	r3, [pc, #16]	; (10008108 <aon_sleep_timer_isr_handler+0x14>)
100080f6:	b510      	push	{r4, lr}
100080f8:	4798      	blx	r3
100080fa:	4b04      	ldr	r3, [pc, #16]	; (1000810c <aon_sleep_timer_isr_handler+0x18>)
100080fc:	681b      	ldr	r3, [r3, #0]
100080fe:	2b00      	cmp	r3, #0
10008100:	d000      	beq.n	10008104 <aon_sleep_timer_isr_handler+0x10>
10008102:	4798      	blx	r3
10008104:	bd10      	pop	{r4, pc}
10008106:	46c0      	nop			; (mov r8, r8)
10008108:	100080e5 	.word	0x100080e5
1000810c:	10011f20 	.word	0x10011f20

10008110 <aon_sleep_timer_register_callback>:
10008110:	4b01      	ldr	r3, [pc, #4]	; (10008118 <aon_sleep_timer_register_callback+0x8>)
10008112:	6018      	str	r0, [r3, #0]
10008114:	4770      	bx	lr
10008116:	46c0      	nop			; (mov r8, r8)
10008118:	10011f20 	.word	0x10011f20

1000811c <aon_sleep_timer_unregister_callback>:
1000811c:	2200      	movs	r2, #0
1000811e:	4b01      	ldr	r3, [pc, #4]	; (10008124 <aon_sleep_timer_unregister_callback+0x8>)
10008120:	601a      	str	r2, [r3, #0]
10008122:	4770      	bx	lr
10008124:	10011f20 	.word	0x10011f20

10008128 <aon_sleep_timer_init>:
10008128:	b537      	push	{r0, r1, r2, r4, r5, lr}
1000812a:	2200      	movs	r2, #0
1000812c:	4b22      	ldr	r3, [pc, #136]	; (100081b8 <aon_sleep_timer_init+0x90>)
1000812e:	731a      	strb	r2, [r3, #12]
10008130:	7801      	ldrb	r1, [r0, #0]
10008132:	2902      	cmp	r1, #2
10008134:	d102      	bne.n	1000813c <aon_sleep_timer_init+0x14>
10008136:	7b1a      	ldrb	r2, [r3, #12]
10008138:	3101      	adds	r1, #1
1000813a:	e002      	b.n	10008142 <aon_sleep_timer_init+0x1a>
1000813c:	2901      	cmp	r1, #1
1000813e:	d102      	bne.n	10008146 <aon_sleep_timer_init+0x1e>
10008140:	7b1a      	ldrb	r2, [r3, #12]
10008142:	430a      	orrs	r2, r1
10008144:	731a      	strb	r2, [r3, #12]
10008146:	252c      	movs	r5, #44	; 0x2c
10008148:	2100      	movs	r1, #0
1000814a:	4b1c      	ldr	r3, [pc, #112]	; (100081bc <aon_sleep_timer_init+0x94>)
1000814c:	35ff      	adds	r5, #255	; 0xff
1000814e:	681a      	ldr	r2, [r3, #0]
10008150:	0054      	lsls	r4, r2, #1
10008152:	d018      	beq.n	10008186 <aon_sleep_timer_init+0x5e>
10008154:	6019      	str	r1, [r3, #0]
10008156:	9101      	str	r1, [sp, #4]
10008158:	9101      	str	r1, [sp, #4]
1000815a:	9c01      	ldr	r4, [sp, #4]
1000815c:	42ac      	cmp	r4, r5
1000815e:	d804      	bhi.n	1000816a <aon_sleep_timer_init+0x42>
10008160:	46c0      	nop			; (mov r8, r8)
10008162:	9c01      	ldr	r4, [sp, #4]
10008164:	3401      	adds	r4, #1
10008166:	9401      	str	r4, [sp, #4]
10008168:	e7f7      	b.n	1000815a <aon_sleep_timer_init+0x32>
1000816a:	7844      	ldrb	r4, [r0, #1]
1000816c:	2c00      	cmp	r4, #0
1000816e:	d102      	bne.n	10008176 <aon_sleep_timer_init+0x4e>
10008170:	2480      	movs	r4, #128	; 0x80
10008172:	00a4      	lsls	r4, r4, #2
10008174:	e001      	b.n	1000817a <aon_sleep_timer_init+0x52>
10008176:	2480      	movs	r4, #128	; 0x80
10008178:	01e4      	lsls	r4, r4, #7
1000817a:	4214      	tst	r4, r2
1000817c:	d001      	beq.n	10008182 <aon_sleep_timer_init+0x5a>
1000817e:	681a      	ldr	r2, [r3, #0]
10008180:	e7fb      	b.n	1000817a <aon_sleep_timer_init+0x52>
10008182:	681a      	ldr	r2, [r3, #0]
10008184:	e7e4      	b.n	10008150 <aon_sleep_timer_init+0x28>
10008186:	6842      	ldr	r2, [r0, #4]
10008188:	7841      	ldrb	r1, [r0, #1]
1000818a:	605a      	str	r2, [r3, #4]
1000818c:	2201      	movs	r2, #1
1000818e:	2900      	cmp	r1, #0
10008190:	d000      	beq.n	10008194 <aon_sleep_timer_init+0x6c>
10008192:	2202      	movs	r2, #2
10008194:	601a      	str	r2, [r3, #0]
10008196:	7842      	ldrb	r2, [r0, #1]
10008198:	2a01      	cmp	r2, #1
1000819a:	d108      	bne.n	100081ae <aon_sleep_timer_init+0x86>
1000819c:	21e0      	movs	r1, #224	; 0xe0
1000819e:	01c9      	lsls	r1, r1, #7
100081a0:	681a      	ldr	r2, [r3, #0]
100081a2:	400a      	ands	r2, r1
100081a4:	428a      	cmp	r2, r1
100081a6:	d1fb      	bne.n	100081a0 <aon_sleep_timer_init+0x78>
100081a8:	2200      	movs	r2, #0
100081aa:	4b04      	ldr	r3, [pc, #16]	; (100081bc <aon_sleep_timer_init+0x94>)
100081ac:	601a      	str	r2, [r3, #0]
100081ae:	4904      	ldr	r1, [pc, #16]	; (100081c0 <aon_sleep_timer_init+0x98>)
100081b0:	202b      	movs	r0, #43	; 0x2b
100081b2:	4b04      	ldr	r3, [pc, #16]	; (100081c4 <aon_sleep_timer_init+0x9c>)
100081b4:	4798      	blx	r3
100081b6:	bd37      	pop	{r0, r1, r2, r4, r5, pc}
100081b8:	4000e000 	.word	0x4000e000
100081bc:	4000d000 	.word	0x4000d000
100081c0:	100080f5 	.word	0x100080f5
100081c4:	1000a62d 	.word	0x1000a62d

100081c8 <sms_ble_pair_request_fn>:
100081c8:	4b04      	ldr	r3, [pc, #16]	; (100081dc <sms_ble_pair_request_fn+0x14>)
100081ca:	2000      	movs	r0, #0
100081cc:	781b      	ldrb	r3, [r3, #0]
100081ce:	4b04      	ldr	r3, [pc, #16]	; (100081e0 <sms_ble_pair_request_fn+0x18>)
100081d0:	781b      	ldrb	r3, [r3, #0]
100081d2:	4b04      	ldr	r3, [pc, #16]	; (100081e4 <sms_ble_pair_request_fn+0x1c>)
100081d4:	781b      	ldrb	r3, [r3, #0]
100081d6:	4b04      	ldr	r3, [pc, #16]	; (100081e8 <sms_ble_pair_request_fn+0x20>)
100081d8:	781b      	ldrb	r3, [r3, #0]
100081da:	4770      	bx	lr
100081dc:	100139ca 	.word	0x100139ca
100081e0:	10013a72 	.word	0x10013a72
100081e4:	100139c4 	.word	0x100139c4
100081e8:	10013a73 	.word	0x10013a73

100081ec <sms_ble_notification_confirmed_fn>:
100081ec:	b570      	push	{r4, r5, r6, lr}
100081ee:	4e10      	ldr	r6, [pc, #64]	; (10008230 <sms_ble_notification_confirmed_fn+0x44>)
100081f0:	2101      	movs	r1, #1
100081f2:	7830      	ldrb	r0, [r6, #0]
100081f4:	4d0f      	ldr	r5, [pc, #60]	; (10008234 <sms_ble_notification_confirmed_fn+0x48>)
100081f6:	47a8      	blx	r5
100081f8:	4b0f      	ldr	r3, [pc, #60]	; (10008238 <sms_ble_notification_confirmed_fn+0x4c>)
100081fa:	4798      	blx	r3
100081fc:	4b0f      	ldr	r3, [pc, #60]	; (1000823c <sms_ble_notification_confirmed_fn+0x50>)
100081fe:	2400      	movs	r4, #0
10008200:	7018      	strb	r0, [r3, #0]
10008202:	2001      	movs	r0, #1
10008204:	4b0e      	ldr	r3, [pc, #56]	; (10008240 <sms_ble_notification_confirmed_fn+0x54>)
10008206:	4798      	blx	r3
10008208:	2222      	movs	r2, #34	; 0x22
1000820a:	4b0e      	ldr	r3, [pc, #56]	; (10008244 <sms_ble_notification_confirmed_fn+0x58>)
1000820c:	0020      	movs	r0, r4
1000820e:	701c      	strb	r4, [r3, #0]
10008210:	4b0d      	ldr	r3, [pc, #52]	; (10008248 <sms_ble_notification_confirmed_fn+0x5c>)
10008212:	701a      	strb	r2, [r3, #0]
10008214:	4b0d      	ldr	r3, [pc, #52]	; (1000824c <sms_ble_notification_confirmed_fn+0x60>)
10008216:	4798      	blx	r3
10008218:	7830      	ldrb	r0, [r6, #0]
1000821a:	0021      	movs	r1, r4
1000821c:	47a8      	blx	r5
1000821e:	4b0c      	ldr	r3, [pc, #48]	; (10008250 <sms_ble_notification_confirmed_fn+0x64>)
10008220:	781b      	ldrb	r3, [r3, #0]
10008222:	42a3      	cmp	r3, r4
10008224:	d101      	bne.n	1000822a <sms_ble_notification_confirmed_fn+0x3e>
10008226:	4b0b      	ldr	r3, [pc, #44]	; (10008254 <sms_ble_notification_confirmed_fn+0x68>)
10008228:	4798      	blx	r3
1000822a:	2000      	movs	r0, #0
1000822c:	bd70      	pop	{r4, r5, r6, pc}
1000822e:	46c0      	nop			; (mov r8, r8)
10008230:	100139cc 	.word	0x100139cc
10008234:	10009b8d 	.word	0x10009b8d
10008238:	100086cd 	.word	0x100086cd
1000823c:	100139ca 	.word	0x100139ca
10008240:	10009041 	.word	0x10009041
10008244:	10013a73 	.word	0x10013a73
10008248:	10013a72 	.word	0x10013a72
1000824c:	100086f9 	.word	0x100086f9
10008250:	100139c4 	.word	0x100139c4
10008254:	1000bfd9 	.word	0x1000bfd9

10008258 <sms_ble_indication_confirmed_fn>:
10008258:	b570      	push	{r4, r5, r6, lr}
1000825a:	4e11      	ldr	r6, [pc, #68]	; (100082a0 <sms_ble_indication_confirmed_fn+0x48>)
1000825c:	2101      	movs	r1, #1
1000825e:	7830      	ldrb	r0, [r6, #0]
10008260:	4d10      	ldr	r5, [pc, #64]	; (100082a4 <sms_ble_indication_confirmed_fn+0x4c>)
10008262:	47a8      	blx	r5
10008264:	4b10      	ldr	r3, [pc, #64]	; (100082a8 <sms_ble_indication_confirmed_fn+0x50>)
10008266:	4798      	blx	r3
10008268:	4b10      	ldr	r3, [pc, #64]	; (100082ac <sms_ble_indication_confirmed_fn+0x54>)
1000826a:	2400      	movs	r4, #0
1000826c:	7018      	strb	r0, [r3, #0]
1000826e:	2001      	movs	r0, #1
10008270:	4b0f      	ldr	r3, [pc, #60]	; (100082b0 <sms_ble_indication_confirmed_fn+0x58>)
10008272:	4798      	blx	r3
10008274:	2222      	movs	r2, #34	; 0x22
10008276:	4b0f      	ldr	r3, [pc, #60]	; (100082b4 <sms_ble_indication_confirmed_fn+0x5c>)
10008278:	0020      	movs	r0, r4
1000827a:	701c      	strb	r4, [r3, #0]
1000827c:	4b0e      	ldr	r3, [pc, #56]	; (100082b8 <sms_ble_indication_confirmed_fn+0x60>)
1000827e:	701a      	strb	r2, [r3, #0]
10008280:	4b0e      	ldr	r3, [pc, #56]	; (100082bc <sms_ble_indication_confirmed_fn+0x64>)
10008282:	4798      	blx	r3
10008284:	4b0e      	ldr	r3, [pc, #56]	; (100082c0 <sms_ble_indication_confirmed_fn+0x68>)
10008286:	0020      	movs	r0, r4
10008288:	4798      	blx	r3
1000828a:	7830      	ldrb	r0, [r6, #0]
1000828c:	0021      	movs	r1, r4
1000828e:	47a8      	blx	r5
10008290:	4b0c      	ldr	r3, [pc, #48]	; (100082c4 <sms_ble_indication_confirmed_fn+0x6c>)
10008292:	781b      	ldrb	r3, [r3, #0]
10008294:	42a3      	cmp	r3, r4
10008296:	d101      	bne.n	1000829c <sms_ble_indication_confirmed_fn+0x44>
10008298:	4b0b      	ldr	r3, [pc, #44]	; (100082c8 <sms_ble_indication_confirmed_fn+0x70>)
1000829a:	4798      	blx	r3
1000829c:	2000      	movs	r0, #0
1000829e:	bd70      	pop	{r4, r5, r6, pc}
100082a0:	100139cc 	.word	0x100139cc
100082a4:	10009b8d 	.word	0x10009b8d
100082a8:	100086cd 	.word	0x100086cd
100082ac:	100139ca 	.word	0x100139ca
100082b0:	10009041 	.word	0x10009041
100082b4:	10013a73 	.word	0x10013a73
100082b8:	10013a72 	.word	0x10013a72
100082bc:	100086f9 	.word	0x100086f9
100082c0:	1000c2b1 	.word	0x1000c2b1
100082c4:	100139c4 	.word	0x100139c4
100082c8:	1000bfd9 	.word	0x1000bfd9

100082cc <sms_ble_startup>:
100082cc:	b510      	push	{r4, lr}
100082ce:	2001      	movs	r0, #1
100082d0:	4b04      	ldr	r3, [pc, #16]	; (100082e4 <sms_ble_startup+0x18>)
100082d2:	4798      	blx	r3
100082d4:	2202      	movs	r2, #2
100082d6:	4b04      	ldr	r3, [pc, #16]	; (100082e8 <sms_ble_startup+0x1c>)
100082d8:	2016      	movs	r0, #22
100082da:	701a      	strb	r2, [r3, #0]
100082dc:	4b03      	ldr	r3, [pc, #12]	; (100082ec <sms_ble_startup+0x20>)
100082de:	4798      	blx	r3
100082e0:	bd10      	pop	{r4, pc}
100082e2:	46c0      	nop			; (mov r8, r8)
100082e4:	100086f9 	.word	0x100086f9
100082e8:	10013a73 	.word	0x10013a73
100082ec:	10008a25 	.word	0x10008a25

100082f0 <sms_ble_power_down>:
100082f0:	b510      	push	{r4, lr}
100082f2:	4817      	ldr	r0, [pc, #92]	; (10008350 <sms_ble_power_down+0x60>)
100082f4:	4b17      	ldr	r3, [pc, #92]	; (10008354 <sms_ble_power_down+0x64>)
100082f6:	4798      	blx	r3
100082f8:	4c17      	ldr	r4, [pc, #92]	; (10008358 <sms_ble_power_down+0x68>)
100082fa:	4b18      	ldr	r3, [pc, #96]	; (1000835c <sms_ble_power_down+0x6c>)
100082fc:	7820      	ldrb	r0, [r4, #0]
100082fe:	b2c0      	uxtb	r0, r0
10008300:	2800      	cmp	r0, #0
10008302:	d103      	bne.n	1000830c <sms_ble_power_down+0x1c>
10008304:	4798      	blx	r3
10008306:	4b16      	ldr	r3, [pc, #88]	; (10008360 <sms_ble_power_down+0x70>)
10008308:	4798      	blx	r3
1000830a:	e020      	b.n	1000834e <sms_ble_power_down+0x5e>
1000830c:	2001      	movs	r0, #1
1000830e:	4798      	blx	r3
10008310:	7820      	ldrb	r0, [r4, #0]
10008312:	3820      	subs	r0, #32
10008314:	2803      	cmp	r0, #3
10008316:	d812      	bhi.n	1000833e <sms_ble_power_down+0x4e>
10008318:	f007 fb34 	bl	1000f984 <__gnu_thumb1_case_uqi>
1000831c:	09090c02 	.word	0x09090c02
10008320:	4b10      	ldr	r3, [pc, #64]	; (10008364 <sms_ble_power_down+0x74>)
10008322:	4798      	blx	r3
10008324:	2800      	cmp	r0, #0
10008326:	d10a      	bne.n	1000833e <sms_ble_power_down+0x4e>
10008328:	2311      	movs	r3, #17
1000832a:	7023      	strb	r3, [r4, #0]
1000832c:	e007      	b.n	1000833e <sms_ble_power_down+0x4e>
1000832e:	2001      	movs	r0, #1
10008330:	4b0d      	ldr	r3, [pc, #52]	; (10008368 <sms_ble_power_down+0x78>)
10008332:	4798      	blx	r3
10008334:	4b0d      	ldr	r3, [pc, #52]	; (1000836c <sms_ble_power_down+0x7c>)
10008336:	2113      	movs	r1, #19
10008338:	8818      	ldrh	r0, [r3, #0]
1000833a:	4b0d      	ldr	r3, [pc, #52]	; (10008370 <sms_ble_power_down+0x80>)
1000833c:	4798      	blx	r3
1000833e:	2311      	movs	r3, #17
10008340:	2203      	movs	r2, #3
10008342:	7023      	strb	r3, [r4, #0]
10008344:	4b0b      	ldr	r3, [pc, #44]	; (10008374 <sms_ble_power_down+0x84>)
10008346:	2016      	movs	r0, #22
10008348:	701a      	strb	r2, [r3, #0]
1000834a:	4b0b      	ldr	r3, [pc, #44]	; (10008378 <sms_ble_power_down+0x88>)
1000834c:	4798      	blx	r3
1000834e:	bd10      	pop	{r4, pc}
10008350:	10011b88 	.word	0x10011b88
10008354:	1000c245 	.word	0x1000c245
10008358:	10013a72 	.word	0x10013a72
1000835c:	100086f9 	.word	0x100086f9
10008360:	1000bfd9 	.word	0x1000bfd9
10008364:	1000d2a1 	.word	0x1000d2a1
10008368:	1000c2b1 	.word	0x1000c2b1
1000836c:	10013a20 	.word	0x10013a20
10008370:	1000d2cd 	.word	0x1000d2cd
10008374:	10013a73 	.word	0x10013a73
10008378:	10008a25 	.word	0x10008a25

1000837c <sms_ble_adv_report_fn>:
1000837c:	2211      	movs	r2, #17
1000837e:	b510      	push	{r4, lr}
10008380:	4b02      	ldr	r3, [pc, #8]	; (1000838c <sms_ble_adv_report_fn+0x10>)
10008382:	701a      	strb	r2, [r3, #0]
10008384:	4b02      	ldr	r3, [pc, #8]	; (10008390 <sms_ble_adv_report_fn+0x14>)
10008386:	4798      	blx	r3
10008388:	2000      	movs	r0, #0
1000838a:	bd10      	pop	{r4, pc}
1000838c:	10013a72 	.word	0x10013a72
10008390:	100082f1 	.word	0x100082f1

10008394 <sms_ble_connected_fn>:
10008394:	b510      	push	{r4, lr}
10008396:	4b07      	ldr	r3, [pc, #28]	; (100083b4 <sms_ble_connected_fn+0x20>)
10008398:	781a      	ldrb	r2, [r3, #0]
1000839a:	2a20      	cmp	r2, #32
1000839c:	d105      	bne.n	100083aa <sms_ble_connected_fn+0x16>
1000839e:	8901      	ldrh	r1, [r0, #8]
100083a0:	4a05      	ldr	r2, [pc, #20]	; (100083b8 <sms_ble_connected_fn+0x24>)
100083a2:	8011      	strh	r1, [r2, #0]
100083a4:	2221      	movs	r2, #33	; 0x21
100083a6:	701a      	strb	r2, [r3, #0]
100083a8:	e001      	b.n	100083ae <sms_ble_connected_fn+0x1a>
100083aa:	4b04      	ldr	r3, [pc, #16]	; (100083bc <sms_ble_connected_fn+0x28>)
100083ac:	4798      	blx	r3
100083ae:	2000      	movs	r0, #0
100083b0:	bd10      	pop	{r4, pc}
100083b2:	46c0      	nop			; (mov r8, r8)
100083b4:	10013a72 	.word	0x10013a72
100083b8:	10013a70 	.word	0x10013a70
100083bc:	100082f1 	.word	0x100082f1

100083c0 <sms_ble_paired_fn>:
100083c0:	b510      	push	{r4, lr}
100083c2:	4b0a      	ldr	r3, [pc, #40]	; (100083ec <sms_ble_paired_fn+0x2c>)
100083c4:	781a      	ldrb	r2, [r3, #0]
100083c6:	2a21      	cmp	r2, #33	; 0x21
100083c8:	d10c      	bne.n	100083e4 <sms_ble_paired_fn+0x24>
100083ca:	3201      	adds	r2, #1
100083cc:	701a      	strb	r2, [r3, #0]
100083ce:	4a08      	ldr	r2, [pc, #32]	; (100083f0 <sms_ble_paired_fn+0x30>)
100083d0:	2001      	movs	r0, #1
100083d2:	7812      	ldrb	r2, [r2, #0]
100083d4:	781b      	ldrb	r3, [r3, #0]
100083d6:	4b07      	ldr	r3, [pc, #28]	; (100083f4 <sms_ble_paired_fn+0x34>)
100083d8:	781b      	ldrb	r3, [r3, #0]
100083da:	4b07      	ldr	r3, [pc, #28]	; (100083f8 <sms_ble_paired_fn+0x38>)
100083dc:	781b      	ldrb	r3, [r3, #0]
100083de:	4b07      	ldr	r3, [pc, #28]	; (100083fc <sms_ble_paired_fn+0x3c>)
100083e0:	4798      	blx	r3
100083e2:	e001      	b.n	100083e8 <sms_ble_paired_fn+0x28>
100083e4:	4b06      	ldr	r3, [pc, #24]	; (10008400 <sms_ble_paired_fn+0x40>)
100083e6:	4798      	blx	r3
100083e8:	2000      	movs	r0, #0
100083ea:	bd10      	pop	{r4, pc}
100083ec:	10013a72 	.word	0x10013a72
100083f0:	100139ca 	.word	0x100139ca
100083f4:	100139c4 	.word	0x100139c4
100083f8:	10013a73 	.word	0x10013a73
100083fc:	1000c279 	.word	0x1000c279
10008400:	100082f1 	.word	0x100082f1

10008404 <sms_ble_advertise>:
10008404:	2220      	movs	r2, #32
10008406:	b530      	push	{r4, r5, lr}
10008408:	4b0b      	ldr	r3, [pc, #44]	; (10008438 <sms_ble_advertise+0x34>)
1000840a:	b085      	sub	sp, #20
1000840c:	701a      	strb	r2, [r3, #0]
1000840e:	4b0b      	ldr	r3, [pc, #44]	; (1000843c <sms_ble_advertise+0x38>)
10008410:	4798      	blx	r3
10008412:	1e04      	subs	r4, r0, #0
10008414:	d10d      	bne.n	10008432 <sms_ble_advertise+0x2e>
10008416:	4b0a      	ldr	r3, [pc, #40]	; (10008440 <sms_ble_advertise+0x3c>)
10008418:	9002      	str	r0, [sp, #8]
1000841a:	9301      	str	r3, [sp, #4]
1000841c:	23c8      	movs	r3, #200	; 0xc8
1000841e:	00db      	lsls	r3, r3, #3
10008420:	9300      	str	r3, [sp, #0]
10008422:	0002      	movs	r2, r0
10008424:	0003      	movs	r3, r0
10008426:	2101      	movs	r1, #1
10008428:	4d06      	ldr	r5, [pc, #24]	; (10008444 <sms_ble_advertise+0x40>)
1000842a:	47a8      	blx	r5
1000842c:	2800      	cmp	r0, #0
1000842e:	d000      	beq.n	10008432 <sms_ble_advertise+0x2e>
10008430:	34e2      	adds	r4, #226	; 0xe2
10008432:	0020      	movs	r0, r4
10008434:	b005      	add	sp, #20
10008436:	bd30      	pop	{r4, r5, pc}
10008438:	10013a72 	.word	0x10013a72
1000843c:	1000b6e1 	.word	0x1000b6e1
10008440:	0000028f 	.word	0x0000028f
10008444:	1000d165 	.word	0x1000d165

10008448 <sms_ble_disconnected_fn>:
10008448:	b570      	push	{r4, r5, r6, lr}
1000844a:	4c14      	ldr	r4, [pc, #80]	; (1000849c <sms_ble_disconnected_fn+0x54>)
1000844c:	0005      	movs	r5, r0
1000844e:	7823      	ldrb	r3, [r4, #0]
10008450:	2b22      	cmp	r3, #34	; 0x22
10008452:	d105      	bne.n	10008460 <sms_ble_disconnected_fn+0x18>
10008454:	2001      	movs	r0, #1
10008456:	4b12      	ldr	r3, [pc, #72]	; (100084a0 <sms_ble_disconnected_fn+0x58>)
10008458:	4798      	blx	r3
1000845a:	2000      	movs	r0, #0
1000845c:	4b11      	ldr	r3, [pc, #68]	; (100084a4 <sms_ble_disconnected_fn+0x5c>)
1000845e:	4798      	blx	r3
10008460:	2311      	movs	r3, #17
10008462:	7023      	strb	r3, [r4, #0]
10008464:	4b10      	ldr	r3, [pc, #64]	; (100084a8 <sms_ble_disconnected_fn+0x60>)
10008466:	781b      	ldrb	r3, [r3, #0]
10008468:	7823      	ldrb	r3, [r4, #0]
1000846a:	4b10      	ldr	r3, [pc, #64]	; (100084ac <sms_ble_disconnected_fn+0x64>)
1000846c:	781b      	ldrb	r3, [r3, #0]
1000846e:	4b10      	ldr	r3, [pc, #64]	; (100084b0 <sms_ble_disconnected_fn+0x68>)
10008470:	781b      	ldrb	r3, [r3, #0]
10008472:	78ab      	ldrb	r3, [r5, #2]
10008474:	2b1a      	cmp	r3, #26
10008476:	d009      	beq.n	1000848c <sms_ble_disconnected_fn+0x44>
10008478:	d804      	bhi.n	10008484 <sms_ble_disconnected_fn+0x3c>
1000847a:	2b05      	cmp	r3, #5
1000847c:	d006      	beq.n	1000848c <sms_ble_disconnected_fn+0x44>
1000847e:	2b08      	cmp	r3, #8
10008480:	d107      	bne.n	10008492 <sms_ble_disconnected_fn+0x4a>
10008482:	e003      	b.n	1000848c <sms_ble_disconnected_fn+0x44>
10008484:	2b29      	cmp	r3, #41	; 0x29
10008486:	d001      	beq.n	1000848c <sms_ble_disconnected_fn+0x44>
10008488:	2b3b      	cmp	r3, #59	; 0x3b
1000848a:	d102      	bne.n	10008492 <sms_ble_disconnected_fn+0x4a>
1000848c:	4b09      	ldr	r3, [pc, #36]	; (100084b4 <sms_ble_disconnected_fn+0x6c>)
1000848e:	4798      	blx	r3
10008490:	e001      	b.n	10008496 <sms_ble_disconnected_fn+0x4e>
10008492:	4b09      	ldr	r3, [pc, #36]	; (100084b8 <sms_ble_disconnected_fn+0x70>)
10008494:	4798      	blx	r3
10008496:	2000      	movs	r0, #0
10008498:	bd70      	pop	{r4, r5, r6, pc}
1000849a:	46c0      	nop			; (mov r8, r8)
1000849c:	10013a72 	.word	0x10013a72
100084a0:	1000c2b1 	.word	0x1000c2b1
100084a4:	1000c279 	.word	0x1000c279
100084a8:	100139ca 	.word	0x100139ca
100084ac:	100139c4 	.word	0x100139c4
100084b0:	10013a73 	.word	0x10013a73
100084b4:	10008405 	.word	0x10008405
100084b8:	100082f1 	.word	0x100082f1

100084bc <sms_ble_send_characteristic>:
100084bc:	2223      	movs	r2, #35	; 0x23
100084be:	b5f8      	push	{r3, r4, r5, r6, r7, lr}
100084c0:	4b3c      	ldr	r3, [pc, #240]	; (100085b4 <sms_ble_send_characteristic+0xf8>)
100084c2:	0006      	movs	r6, r0
100084c4:	701a      	strb	r2, [r3, #0]
100084c6:	2000      	movs	r0, #0
100084c8:	2e03      	cmp	r6, #3
100084ca:	d801      	bhi.n	100084d0 <sms_ble_send_characteristic+0x14>
100084cc:	4b3a      	ldr	r3, [pc, #232]	; (100085b8 <sms_ble_send_characteristic+0xfc>)
100084ce:	5d98      	ldrb	r0, [r3, r6]
100084d0:	4b3a      	ldr	r3, [pc, #232]	; (100085bc <sms_ble_send_characteristic+0x100>)
100084d2:	4798      	blx	r3
100084d4:	0004      	movs	r4, r0
100084d6:	20e2      	movs	r0, #226	; 0xe2
100084d8:	2c00      	cmp	r4, #0
100084da:	d069      	beq.n	100085b0 <sms_ble_send_characteristic+0xf4>
100084dc:	4f38      	ldr	r7, [pc, #224]	; (100085c0 <sms_ble_send_characteristic+0x104>)
100084de:	883b      	ldrh	r3, [r7, #0]
100084e0:	3301      	adds	r3, #1
100084e2:	803b      	strh	r3, [r7, #0]
100084e4:	2e01      	cmp	r6, #1
100084e6:	d027      	beq.n	10008538 <sms_ble_send_characteristic+0x7c>
100084e8:	2e00      	cmp	r6, #0
100084ea:	d01c      	beq.n	10008526 <sms_ble_send_characteristic+0x6a>
100084ec:	2e02      	cmp	r6, #2
100084ee:	d131      	bne.n	10008554 <sms_ble_send_characteristic+0x98>
100084f0:	4b34      	ldr	r3, [pc, #208]	; (100085c4 <sms_ble_send_characteristic+0x108>)
100084f2:	6a1a      	ldr	r2, [r3, #32]
100084f4:	7022      	strb	r2, [r4, #0]
100084f6:	6a1a      	ldr	r2, [r3, #32]
100084f8:	1212      	asrs	r2, r2, #8
100084fa:	7062      	strb	r2, [r4, #1]
100084fc:	6a1a      	ldr	r2, [r3, #32]
100084fe:	1412      	asrs	r2, r2, #16
10008500:	70a2      	strb	r2, [r4, #2]
10008502:	6a1a      	ldr	r2, [r3, #32]
10008504:	1612      	asrs	r2, r2, #24
10008506:	70e2      	strb	r2, [r4, #3]
10008508:	69da      	ldr	r2, [r3, #28]
1000850a:	7122      	strb	r2, [r4, #4]
1000850c:	69da      	ldr	r2, [r3, #28]
1000850e:	1212      	asrs	r2, r2, #8
10008510:	7162      	strb	r2, [r4, #5]
10008512:	69da      	ldr	r2, [r3, #28]
10008514:	69db      	ldr	r3, [r3, #28]
10008516:	1412      	asrs	r2, r2, #16
10008518:	161b      	asrs	r3, r3, #24
1000851a:	71e3      	strb	r3, [r4, #7]
1000851c:	4b2a      	ldr	r3, [pc, #168]	; (100085c8 <sms_ble_send_characteristic+0x10c>)
1000851e:	71a2      	strb	r2, [r4, #6]
10008520:	8a9e      	ldrh	r6, [r3, #20]
10008522:	2208      	movs	r2, #8
10008524:	e018      	b.n	10008558 <sms_ble_send_characteristic+0x9c>
10008526:	4b29      	ldr	r3, [pc, #164]	; (100085cc <sms_ble_send_characteristic+0x110>)
10008528:	881a      	ldrh	r2, [r3, #0]
1000852a:	2a7e      	cmp	r2, #126	; 0x7e
1000852c:	d801      	bhi.n	10008532 <sms_ble_send_characteristic+0x76>
1000852e:	3201      	adds	r2, #1
10008530:	b296      	uxth	r6, r2
10008532:	801e      	strh	r6, [r3, #0]
10008534:	7026      	strb	r6, [r4, #0]
10008536:	e009      	b.n	1000854c <sms_ble_send_characteristic+0x90>
10008538:	4a24      	ldr	r2, [pc, #144]	; (100085cc <sms_ble_send_characteristic+0x110>)
1000853a:	2300      	movs	r3, #0
1000853c:	8851      	ldrh	r1, [r2, #2]
1000853e:	29fe      	cmp	r1, #254	; 0xfe
10008540:	d801      	bhi.n	10008546 <sms_ble_send_characteristic+0x8a>
10008542:	3101      	adds	r1, #1
10008544:	b28b      	uxth	r3, r1
10008546:	8053      	strh	r3, [r2, #2]
10008548:	3b80      	subs	r3, #128	; 0x80
1000854a:	7023      	strb	r3, [r4, #0]
1000854c:	4b20      	ldr	r3, [pc, #128]	; (100085d0 <sms_ble_send_characteristic+0x114>)
1000854e:	2201      	movs	r2, #1
10008550:	8a9e      	ldrh	r6, [r3, #20]
10008552:	e001      	b.n	10008558 <sms_ble_send_characteristic+0x9c>
10008554:	2200      	movs	r2, #0
10008556:	0016      	movs	r6, r2
10008558:	b292      	uxth	r2, r2
1000855a:	0021      	movs	r1, r4
1000855c:	0030      	movs	r0, r6
1000855e:	4b1d      	ldr	r3, [pc, #116]	; (100085d4 <sms_ble_send_characteristic+0x118>)
10008560:	4798      	blx	r3
10008562:	1e05      	subs	r5, r0, #0
10008564:	d120      	bne.n	100085a8 <sms_ble_send_characteristic+0xec>
10008566:	8839      	ldrh	r1, [r7, #0]
10008568:	4b1b      	ldr	r3, [pc, #108]	; (100085d8 <sms_ble_send_characteristic+0x11c>)
1000856a:	481c      	ldr	r0, [pc, #112]	; (100085dc <sms_ble_send_characteristic+0x120>)
1000856c:	4798      	blx	r3
1000856e:	4f1c      	ldr	r7, [pc, #112]	; (100085e0 <sms_ble_send_characteristic+0x124>)
10008570:	2101      	movs	r1, #1
10008572:	7838      	ldrb	r0, [r7, #0]
10008574:	4b1b      	ldr	r3, [pc, #108]	; (100085e4 <sms_ble_send_characteristic+0x128>)
10008576:	4798      	blx	r3
10008578:	4b1b      	ldr	r3, [pc, #108]	; (100085e8 <sms_ble_send_characteristic+0x12c>)
1000857a:	0031      	movs	r1, r6
1000857c:	8818      	ldrh	r0, [r3, #0]
1000857e:	4b1b      	ldr	r3, [pc, #108]	; (100085ec <sms_ble_send_characteristic+0x130>)
10008580:	4798      	blx	r3
10008582:	2100      	movs	r1, #0
10008584:	0005      	movs	r5, r0
10008586:	4b17      	ldr	r3, [pc, #92]	; (100085e4 <sms_ble_send_characteristic+0x128>)
10008588:	7838      	ldrb	r0, [r7, #0]
1000858a:	4798      	blx	r3
1000858c:	4669      	mov	r1, sp
1000858e:	4672      	mov	r2, lr
10008590:	4817      	ldr	r0, [pc, #92]	; (100085f0 <sms_ble_send_characteristic+0x134>)
10008592:	4b11      	ldr	r3, [pc, #68]	; (100085d8 <sms_ble_send_characteristic+0x11c>)
10008594:	4798      	blx	r3
10008596:	2d00      	cmp	r5, #0
10008598:	d106      	bne.n	100085a8 <sms_ble_send_characteristic+0xec>
1000859a:	2001      	movs	r0, #1
1000859c:	4b15      	ldr	r3, [pc, #84]	; (100085f4 <sms_ble_send_characteristic+0x138>)
1000859e:	0002      	movs	r2, r0
100085a0:	7018      	strb	r0, [r3, #0]
100085a2:	2164      	movs	r1, #100	; 0x64
100085a4:	4b14      	ldr	r3, [pc, #80]	; (100085f8 <sms_ble_send_characteristic+0x13c>)
100085a6:	4798      	blx	r3
100085a8:	0020      	movs	r0, r4
100085aa:	4b14      	ldr	r3, [pc, #80]	; (100085fc <sms_ble_send_characteristic+0x140>)
100085ac:	4798      	blx	r3
100085ae:	0028      	movs	r0, r5
100085b0:	bdf8      	pop	{r3, r4, r5, r6, r7, pc}
100085b2:	46c0      	nop			; (mov r8, r8)
100085b4:	10013a72 	.word	0x10013a72
100085b8:	10011b84 	.word	0x10011b84
100085bc:	10010af1 	.word	0x10010af1
100085c0:	10013adc 	.word	0x10013adc
100085c4:	10013a44 	.word	0x10013a44
100085c8:	10013a8c 	.word	0x10013a8c
100085cc:	100139c6 	.word	0x100139c6
100085d0:	100139d0 	.word	0x100139d0
100085d4:	1000da49 	.word	0x1000da49
100085d8:	10010c91 	.word	0x10010c91
100085dc:	10011b9d 	.word	0x10011b9d
100085e0:	100139cc 	.word	0x100139cc
100085e4:	10009b8d 	.word	0x10009b8d
100085e8:	10013a20 	.word	0x10013a20
100085ec:	1000dbe9 	.word	0x1000dbe9
100085f0:	10011ba7 	.word	0x10011ba7
100085f4:	10013a73 	.word	0x10013a73
100085f8:	10008ffd 	.word	0x10008ffd
100085fc:	10010b05 	.word	0x10010b05

10008600 <sms_ble_primary_service_define>:
10008600:	2301      	movs	r3, #1
10008602:	b513      	push	{r0, r1, r4, lr}
10008604:	9301      	str	r3, [sp, #4]
10008606:	0003      	movs	r3, r0
10008608:	3314      	adds	r3, #20
1000860a:	9300      	str	r3, [sp, #0]
1000860c:	0001      	movs	r1, r0
1000860e:	2300      	movs	r3, #0
10008610:	3112      	adds	r1, #18
10008612:	001a      	movs	r2, r3
10008614:	4c01      	ldr	r4, [pc, #4]	; (1000861c <sms_ble_primary_service_define+0x1c>)
10008616:	47a0      	blx	r4
10008618:	bd16      	pop	{r1, r2, r4, pc}
1000861a:	46c0      	nop			; (mov r8, r8)
1000861c:	1000da29 	.word	0x1000da29

10008620 <sms_button_bt0_callback>:
10008620:	2201      	movs	r2, #1
10008622:	4b05      	ldr	r3, [pc, #20]	; (10008638 <sms_button_bt0_callback+0x18>)
10008624:	b510      	push	{r4, lr}
10008626:	701a      	strb	r2, [r3, #0]
10008628:	2300      	movs	r3, #0
1000862a:	2102      	movs	r1, #2
1000862c:	001a      	movs	r2, r3
1000862e:	201f      	movs	r0, #31
10008630:	4c02      	ldr	r4, [pc, #8]	; (1000863c <sms_button_bt0_callback+0x1c>)
10008632:	47a0      	blx	r4
10008634:	bd10      	pop	{r4, pc}
10008636:	46c0      	nop			; (mov r8, r8)
10008638:	10013a6c 	.word	0x10013a6c
1000863c:	1000bd71 	.word	0x1000bd71

10008640 <sms_button_bt1_callback>:
10008640:	2102      	movs	r1, #2
10008642:	4b04      	ldr	r3, [pc, #16]	; (10008654 <sms_button_bt1_callback+0x14>)
10008644:	b510      	push	{r4, lr}
10008646:	7019      	strb	r1, [r3, #0]
10008648:	2300      	movs	r3, #0
1000864a:	201d      	movs	r0, #29
1000864c:	001a      	movs	r2, r3
1000864e:	4c02      	ldr	r4, [pc, #8]	; (10008658 <sms_button_bt1_callback+0x18>)
10008650:	47a0      	blx	r4
10008652:	bd10      	pop	{r4, pc}
10008654:	10013a6c 	.word	0x10013a6c
10008658:	1000bd71 	.word	0x1000bd71

1000865c <sms_button_configure_gpio>:
1000865c:	b5f7      	push	{r0, r1, r2, r4, r5, r6, r7, lr}
1000865e:	ac01      	add	r4, sp, #4
10008660:	4f0f      	ldr	r7, [pc, #60]	; (100086a0 <sms_button_configure_gpio+0x44>)
10008662:	0020      	movs	r0, r4
10008664:	47b8      	blx	r7
10008666:	2302      	movs	r3, #2
10008668:	2500      	movs	r5, #0
1000866a:	7063      	strb	r3, [r4, #1]
1000866c:	2301      	movs	r3, #1
1000866e:	4e0d      	ldr	r6, [pc, #52]	; (100086a4 <sms_button_configure_gpio+0x48>)
10008670:	0021      	movs	r1, r4
10008672:	201f      	movs	r0, #31
10008674:	70e3      	strb	r3, [r4, #3]
10008676:	7025      	strb	r5, [r4, #0]
10008678:	47b0      	blx	r6
1000867a:	0020      	movs	r0, r4
1000867c:	47b8      	blx	r7
1000867e:	2302      	movs	r3, #2
10008680:	7063      	strb	r3, [r4, #1]
10008682:	2301      	movs	r3, #1
10008684:	0021      	movs	r1, r4
10008686:	201d      	movs	r0, #29
10008688:	70e3      	strb	r3, [r4, #3]
1000868a:	7025      	strb	r5, [r4, #0]
1000868c:	47b0      	blx	r6
1000868e:	0020      	movs	r0, r4
10008690:	47b8      	blx	r7
10008692:	0021      	movs	r1, r4
10008694:	2017      	movs	r0, #23
10008696:	7025      	strb	r5, [r4, #0]
10008698:	7065      	strb	r5, [r4, #1]
1000869a:	47b0      	blx	r6
1000869c:	bdf7      	pop	{r0, r1, r2, r4, r5, r6, r7, pc}
1000869e:	46c0      	nop			; (mov r8, r8)
100086a0:	10009981 	.word	0x10009981
100086a4:	10009991 	.word	0x10009991

100086a8 <sms_button_register_callbacks>:
100086a8:	b510      	push	{r4, lr}
100086aa:	2202      	movs	r2, #2
100086ac:	4c04      	ldr	r4, [pc, #16]	; (100086c0 <sms_button_register_callbacks+0x18>)
100086ae:	4905      	ldr	r1, [pc, #20]	; (100086c4 <sms_button_register_callbacks+0x1c>)
100086b0:	201f      	movs	r0, #31
100086b2:	47a0      	blx	r4
100086b4:	2202      	movs	r2, #2
100086b6:	4904      	ldr	r1, [pc, #16]	; (100086c8 <sms_button_register_callbacks+0x20>)
100086b8:	201d      	movs	r0, #29
100086ba:	47a0      	blx	r4
100086bc:	bd10      	pop	{r4, pc}
100086be:	46c0      	nop			; (mov r8, r8)
100086c0:	10009cb1 	.word	0x10009cb1
100086c4:	10008621 	.word	0x10008621
100086c8:	10008641 	.word	0x10008641

100086cc <sms_button_get_state>:
100086cc:	b570      	push	{r4, r5, r6, lr}
100086ce:	201f      	movs	r0, #31
100086d0:	4c08      	ldr	r4, [pc, #32]	; (100086f4 <sms_button_get_state+0x28>)
100086d2:	47a0      	blx	r4
100086d4:	0005      	movs	r5, r0
100086d6:	201d      	movs	r0, #29
100086d8:	47a0      	blx	r4
100086da:	0003      	movs	r3, r0
100086dc:	2d00      	cmp	r5, #0
100086de:	d004      	beq.n	100086ea <sms_button_get_state+0x1e>
100086e0:	2003      	movs	r0, #3
100086e2:	2b00      	cmp	r3, #0
100086e4:	d104      	bne.n	100086f0 <sms_button_get_state+0x24>
100086e6:	3802      	subs	r0, #2
100086e8:	e002      	b.n	100086f0 <sms_button_get_state+0x24>
100086ea:	1e58      	subs	r0, r3, #1
100086ec:	4183      	sbcs	r3, r0
100086ee:	0058      	lsls	r0, r3, #1
100086f0:	bd70      	pop	{r4, r5, r6, pc}
100086f2:	46c0      	nop			; (mov r8, r8)
100086f4:	10009b15 	.word	0x10009b15

100086f8 <sms_button_toggle_interrupt>:
100086f8:	b510      	push	{r4, lr}
100086fa:	2800      	cmp	r0, #0
100086fc:	d102      	bne.n	10008704 <sms_button_toggle_interrupt+0xc>
100086fe:	301f      	adds	r0, #31
10008700:	4c04      	ldr	r4, [pc, #16]	; (10008714 <sms_button_toggle_interrupt+0x1c>)
10008702:	e003      	b.n	1000870c <sms_button_toggle_interrupt+0x14>
10008704:	2801      	cmp	r0, #1
10008706:	d104      	bne.n	10008712 <sms_button_toggle_interrupt+0x1a>
10008708:	4c03      	ldr	r4, [pc, #12]	; (10008718 <sms_button_toggle_interrupt+0x20>)
1000870a:	301e      	adds	r0, #30
1000870c:	47a0      	blx	r4
1000870e:	201d      	movs	r0, #29
10008710:	47a0      	blx	r4
10008712:	bd10      	pop	{r4, pc}
10008714:	10009d49 	.word	0x10009d49
10008718:	10009d95 	.word	0x10009d95

1000871c <sms_button_bt0_fn>:
1000871c:	b570      	push	{r4, r5, r6, lr}
1000871e:	4c32      	ldr	r4, [pc, #200]	; (100087e8 <sms_button_bt0_fn+0xcc>)
10008720:	4a32      	ldr	r2, [pc, #200]	; (100087ec <sms_button_bt0_fn+0xd0>)
10008722:	7823      	ldrb	r3, [r4, #0]
10008724:	b2db      	uxtb	r3, r3
10008726:	7013      	strb	r3, [r2, #0]
10008728:	4b31      	ldr	r3, [pc, #196]	; (100087f0 <sms_button_bt0_fn+0xd4>)
1000872a:	4798      	blx	r3
1000872c:	4b31      	ldr	r3, [pc, #196]	; (100087f4 <sms_button_bt0_fn+0xd8>)
1000872e:	7020      	strb	r0, [r4, #0]
10008730:	4831      	ldr	r0, [pc, #196]	; (100087f8 <sms_button_bt0_fn+0xdc>)
10008732:	4798      	blx	r3
10008734:	7820      	ldrb	r0, [r4, #0]
10008736:	b2c0      	uxtb	r0, r0
10008738:	2803      	cmp	r0, #3
1000873a:	d853      	bhi.n	100087e4 <sms_button_bt0_fn+0xc8>
1000873c:	4c2f      	ldr	r4, [pc, #188]	; (100087fc <sms_button_bt0_fn+0xe0>)
1000873e:	f007 f921 	bl	1000f984 <__gnu_thumb1_case_uqi>
10008742:	0245      	.short	0x0245
10008744:	2c0f      	.short	0x2c0f
10008746:	4b2e      	ldr	r3, [pc, #184]	; (10008800 <sms_button_bt0_fn+0xe4>)
10008748:	781a      	ldrb	r2, [r3, #0]
1000874a:	b2d2      	uxtb	r2, r2
1000874c:	2a00      	cmp	r2, #0
1000874e:	d015      	beq.n	1000877c <sms_button_bt0_fn+0x60>
10008750:	2a22      	cmp	r2, #34	; 0x22
10008752:	d120      	bne.n	10008796 <sms_button_bt0_fn+0x7a>
10008754:	2000      	movs	r0, #0
10008756:	4b2b      	ldr	r3, [pc, #172]	; (10008804 <sms_button_bt0_fn+0xe8>)
10008758:	7018      	strb	r0, [r3, #0]
1000875a:	4b2b      	ldr	r3, [pc, #172]	; (10008808 <sms_button_bt0_fn+0xec>)
1000875c:	7018      	strb	r0, [r3, #0]
1000875e:	e018      	b.n	10008792 <sms_button_bt0_fn+0x76>
10008760:	4b27      	ldr	r3, [pc, #156]	; (10008800 <sms_button_bt0_fn+0xe4>)
10008762:	781a      	ldrb	r2, [r3, #0]
10008764:	b2d2      	uxtb	r2, r2
10008766:	2a00      	cmp	r2, #0
10008768:	d008      	beq.n	1000877c <sms_button_bt0_fn+0x60>
1000876a:	2a22      	cmp	r2, #34	; 0x22
1000876c:	d113      	bne.n	10008796 <sms_button_bt0_fn+0x7a>
1000876e:	2300      	movs	r3, #0
10008770:	4a24      	ldr	r2, [pc, #144]	; (10008804 <sms_button_bt0_fn+0xe8>)
10008772:	2001      	movs	r0, #1
10008774:	7013      	strb	r3, [r2, #0]
10008776:	4a24      	ldr	r2, [pc, #144]	; (10008808 <sms_button_bt0_fn+0xec>)
10008778:	7013      	strb	r3, [r2, #0]
1000877a:	e00a      	b.n	10008792 <sms_button_bt0_fn+0x76>
1000877c:	2001      	movs	r0, #1
1000877e:	4b21      	ldr	r3, [pc, #132]	; (10008804 <sms_button_bt0_fn+0xe8>)
10008780:	21fa      	movs	r1, #250	; 0xfa
10008782:	7018      	strb	r0, [r3, #0]
10008784:	4b20      	ldr	r3, [pc, #128]	; (10008808 <sms_button_bt0_fn+0xec>)
10008786:	701a      	strb	r2, [r3, #0]
10008788:	4b20      	ldr	r3, [pc, #128]	; (1000880c <sms_button_bt0_fn+0xf0>)
1000878a:	701a      	strb	r2, [r3, #0]
1000878c:	4b20      	ldr	r3, [pc, #128]	; (10008810 <sms_button_bt0_fn+0xf4>)
1000878e:	4798      	blx	r3
10008790:	e001      	b.n	10008796 <sms_button_bt0_fn+0x7a>
10008792:	4b20      	ldr	r3, [pc, #128]	; (10008814 <sms_button_bt0_fn+0xf8>)
10008794:	4798      	blx	r3
10008796:	2000      	movs	r0, #0
10008798:	e016      	b.n	100087c8 <sms_button_bt0_fn+0xac>
1000879a:	4b19      	ldr	r3, [pc, #100]	; (10008800 <sms_button_bt0_fn+0xe4>)
1000879c:	4a19      	ldr	r2, [pc, #100]	; (10008804 <sms_button_bt0_fn+0xe8>)
1000879e:	7818      	ldrb	r0, [r3, #0]
100087a0:	4b19      	ldr	r3, [pc, #100]	; (10008808 <sms_button_bt0_fn+0xec>)
100087a2:	b2c0      	uxtb	r0, r0
100087a4:	2800      	cmp	r0, #0
100087a6:	d103      	bne.n	100087b0 <sms_button_bt0_fn+0x94>
100087a8:	7010      	strb	r0, [r2, #0]
100087aa:	7018      	strb	r0, [r3, #0]
100087ac:	47a0      	blx	r4
100087ae:	e017      	b.n	100087e0 <sms_button_bt0_fn+0xc4>
100087b0:	2500      	movs	r5, #0
100087b2:	2103      	movs	r1, #3
100087b4:	7011      	strb	r1, [r2, #0]
100087b6:	701d      	strb	r5, [r3, #0]
100087b8:	4b14      	ldr	r3, [pc, #80]	; (1000880c <sms_button_bt0_fn+0xf0>)
100087ba:	2001      	movs	r0, #1
100087bc:	701d      	strb	r5, [r3, #0]
100087be:	002a      	movs	r2, r5
100087c0:	31f7      	adds	r1, #247	; 0xf7
100087c2:	4b13      	ldr	r3, [pc, #76]	; (10008810 <sms_button_bt0_fn+0xf4>)
100087c4:	4798      	blx	r3
100087c6:	0028      	movs	r0, r5
100087c8:	47a0      	blx	r4
100087ca:	e00b      	b.n	100087e4 <sms_button_bt0_fn+0xc8>
100087cc:	2000      	movs	r0, #0
100087ce:	47a0      	blx	r4
100087d0:	4b0c      	ldr	r3, [pc, #48]	; (10008804 <sms_button_bt0_fn+0xe8>)
100087d2:	781b      	ldrb	r3, [r3, #0]
100087d4:	2b00      	cmp	r3, #0
100087d6:	d105      	bne.n	100087e4 <sms_button_bt0_fn+0xc8>
100087d8:	4b0b      	ldr	r3, [pc, #44]	; (10008808 <sms_button_bt0_fn+0xec>)
100087da:	781b      	ldrb	r3, [r3, #0]
100087dc:	2b00      	cmp	r3, #0
100087de:	d101      	bne.n	100087e4 <sms_button_bt0_fn+0xc8>
100087e0:	4b0d      	ldr	r3, [pc, #52]	; (10008818 <sms_button_bt0_fn+0xfc>)
100087e2:	4798      	blx	r3
100087e4:	bd70      	pop	{r4, r5, r6, pc}
100087e6:	46c0      	nop			; (mov r8, r8)
100087e8:	100139ca 	.word	0x100139ca
100087ec:	10013a80 	.word	0x10013a80
100087f0:	100086cd 	.word	0x100086cd
100087f4:	1000c245 	.word	0x1000c245
100087f8:	10011c3c 	.word	0x10011c3c
100087fc:	100086f9 	.word	0x100086f9
10008800:	10013a72 	.word	0x10013a72
10008804:	100139c4 	.word	0x100139c4
10008808:	10013a73 	.word	0x10013a73
1000880c:	10013ade 	.word	0x10013ade
10008810:	10008ffd 	.word	0x10008ffd
10008814:	100084bd 	.word	0x100084bd
10008818:	1000bfd9 	.word	0x1000bfd9

1000881c <sms_button_bt1_fn>:
1000881c:	b570      	push	{r4, r5, r6, lr}
1000881e:	4c32      	ldr	r4, [pc, #200]	; (100088e8 <sms_button_bt1_fn+0xcc>)
10008820:	4a32      	ldr	r2, [pc, #200]	; (100088ec <sms_button_bt1_fn+0xd0>)
10008822:	7823      	ldrb	r3, [r4, #0]
10008824:	b2db      	uxtb	r3, r3
10008826:	7013      	strb	r3, [r2, #0]
10008828:	4b31      	ldr	r3, [pc, #196]	; (100088f0 <sms_button_bt1_fn+0xd4>)
1000882a:	4798      	blx	r3
1000882c:	4b31      	ldr	r3, [pc, #196]	; (100088f4 <sms_button_bt1_fn+0xd8>)
1000882e:	7020      	strb	r0, [r4, #0]
10008830:	4831      	ldr	r0, [pc, #196]	; (100088f8 <sms_button_bt1_fn+0xdc>)
10008832:	4798      	blx	r3
10008834:	7820      	ldrb	r0, [r4, #0]
10008836:	b2c0      	uxtb	r0, r0
10008838:	2803      	cmp	r0, #3
1000883a:	d853      	bhi.n	100088e4 <sms_button_bt1_fn+0xc8>
1000883c:	4c2f      	ldr	r4, [pc, #188]	; (100088fc <sms_button_bt1_fn+0xe0>)
1000883e:	f007 f8a1 	bl	1000f984 <__gnu_thumb1_case_uqi>
10008842:	1045      	.short	0x1045
10008844:	2c02      	.short	0x2c02
10008846:	4b2e      	ldr	r3, [pc, #184]	; (10008900 <sms_button_bt1_fn+0xe4>)
10008848:	781a      	ldrb	r2, [r3, #0]
1000884a:	b2d2      	uxtb	r2, r2
1000884c:	2a00      	cmp	r2, #0
1000884e:	d015      	beq.n	1000887c <sms_button_bt1_fn+0x60>
10008850:	2a22      	cmp	r2, #34	; 0x22
10008852:	d120      	bne.n	10008896 <sms_button_bt1_fn+0x7a>
10008854:	2300      	movs	r3, #0
10008856:	4a2b      	ldr	r2, [pc, #172]	; (10008904 <sms_button_bt1_fn+0xe8>)
10008858:	2001      	movs	r0, #1
1000885a:	7013      	strb	r3, [r2, #0]
1000885c:	4a2a      	ldr	r2, [pc, #168]	; (10008908 <sms_button_bt1_fn+0xec>)
1000885e:	7013      	strb	r3, [r2, #0]
10008860:	e017      	b.n	10008892 <sms_button_bt1_fn+0x76>
10008862:	4b27      	ldr	r3, [pc, #156]	; (10008900 <sms_button_bt1_fn+0xe4>)
10008864:	781a      	ldrb	r2, [r3, #0]
10008866:	b2d2      	uxtb	r2, r2
10008868:	2a00      	cmp	r2, #0
1000886a:	d007      	beq.n	1000887c <sms_button_bt1_fn+0x60>
1000886c:	2a22      	cmp	r2, #34	; 0x22
1000886e:	d112      	bne.n	10008896 <sms_button_bt1_fn+0x7a>
10008870:	2000      	movs	r0, #0
10008872:	4b24      	ldr	r3, [pc, #144]	; (10008904 <sms_button_bt1_fn+0xe8>)
10008874:	7018      	strb	r0, [r3, #0]
10008876:	4b24      	ldr	r3, [pc, #144]	; (10008908 <sms_button_bt1_fn+0xec>)
10008878:	7018      	strb	r0, [r3, #0]
1000887a:	e00a      	b.n	10008892 <sms_button_bt1_fn+0x76>
1000887c:	2001      	movs	r0, #1
1000887e:	4b21      	ldr	r3, [pc, #132]	; (10008904 <sms_button_bt1_fn+0xe8>)
10008880:	21fa      	movs	r1, #250	; 0xfa
10008882:	7018      	strb	r0, [r3, #0]
10008884:	4b20      	ldr	r3, [pc, #128]	; (10008908 <sms_button_bt1_fn+0xec>)
10008886:	701a      	strb	r2, [r3, #0]
10008888:	4b20      	ldr	r3, [pc, #128]	; (1000890c <sms_button_bt1_fn+0xf0>)
1000888a:	701a      	strb	r2, [r3, #0]
1000888c:	4b20      	ldr	r3, [pc, #128]	; (10008910 <sms_button_bt1_fn+0xf4>)
1000888e:	4798      	blx	r3
10008890:	e001      	b.n	10008896 <sms_button_bt1_fn+0x7a>
10008892:	4b20      	ldr	r3, [pc, #128]	; (10008914 <sms_button_bt1_fn+0xf8>)
10008894:	4798      	blx	r3
10008896:	2000      	movs	r0, #0
10008898:	e016      	b.n	100088c8 <sms_button_bt1_fn+0xac>
1000889a:	4b19      	ldr	r3, [pc, #100]	; (10008900 <sms_button_bt1_fn+0xe4>)
1000889c:	4a19      	ldr	r2, [pc, #100]	; (10008904 <sms_button_bt1_fn+0xe8>)
1000889e:	7818      	ldrb	r0, [r3, #0]
100088a0:	4b19      	ldr	r3, [pc, #100]	; (10008908 <sms_button_bt1_fn+0xec>)
100088a2:	b2c0      	uxtb	r0, r0
100088a4:	2800      	cmp	r0, #0
100088a6:	d103      	bne.n	100088b0 <sms_button_bt1_fn+0x94>
100088a8:	7010      	strb	r0, [r2, #0]
100088aa:	7018      	strb	r0, [r3, #0]
100088ac:	47a0      	blx	r4
100088ae:	e017      	b.n	100088e0 <sms_button_bt1_fn+0xc4>
100088b0:	2500      	movs	r5, #0
100088b2:	2103      	movs	r1, #3
100088b4:	7011      	strb	r1, [r2, #0]
100088b6:	701d      	strb	r5, [r3, #0]
100088b8:	4b14      	ldr	r3, [pc, #80]	; (1000890c <sms_button_bt1_fn+0xf0>)
100088ba:	2001      	movs	r0, #1
100088bc:	701d      	strb	r5, [r3, #0]
100088be:	002a      	movs	r2, r5
100088c0:	31f7      	adds	r1, #247	; 0xf7
100088c2:	4b13      	ldr	r3, [pc, #76]	; (10008910 <sms_button_bt1_fn+0xf4>)
100088c4:	4798      	blx	r3
100088c6:	0028      	movs	r0, r5
100088c8:	47a0      	blx	r4
100088ca:	e00b      	b.n	100088e4 <sms_button_bt1_fn+0xc8>
100088cc:	2000      	movs	r0, #0
100088ce:	47a0      	blx	r4
100088d0:	4b0c      	ldr	r3, [pc, #48]	; (10008904 <sms_button_bt1_fn+0xe8>)
100088d2:	781b      	ldrb	r3, [r3, #0]
100088d4:	2b00      	cmp	r3, #0
100088d6:	d105      	bne.n	100088e4 <sms_button_bt1_fn+0xc8>
100088d8:	4b0b      	ldr	r3, [pc, #44]	; (10008908 <sms_button_bt1_fn+0xec>)
100088da:	781b      	ldrb	r3, [r3, #0]
100088dc:	2b00      	cmp	r3, #0
100088de:	d101      	bne.n	100088e4 <sms_button_bt1_fn+0xc8>
100088e0:	4b0d      	ldr	r3, [pc, #52]	; (10008918 <sms_button_bt1_fn+0xfc>)
100088e2:	4798      	blx	r3
100088e4:	bd70      	pop	{r4, r5, r6, pc}
100088e6:	46c0      	nop			; (mov r8, r8)
100088e8:	100139ca 	.word	0x100139ca
100088ec:	10013a80 	.word	0x10013a80
100088f0:	100086cd 	.word	0x100086cd
100088f4:	1000c245 	.word	0x1000c245
100088f8:	10011c50 	.word	0x10011c50
100088fc:	100086f9 	.word	0x100086f9
10008900:	10013a72 	.word	0x10013a72
10008904:	100139c4 	.word	0x100139c4
10008908:	10013a73 	.word	0x10013a73
1000890c:	10013ade 	.word	0x10013ade
10008910:	10008ffd 	.word	0x10008ffd
10008914:	100084bd 	.word	0x100084bd
10008918:	1000bfd9 	.word	0x1000bfd9

1000891c <sms_button_service_init>:
1000891c:	2202      	movs	r2, #2
1000891e:	7002      	strb	r2, [r0, #0]
10008920:	3255      	adds	r2, #85	; 0x55
10008922:	70c2      	strb	r2, [r0, #3]
10008924:	3a3b      	subs	r2, #59	; 0x3b
10008926:	7102      	strb	r2, [r0, #4]
10008928:	32a2      	adds	r2, #162	; 0xa2
1000892a:	71c2      	strb	r2, [r0, #7]
1000892c:	3a64      	subs	r2, #100	; 0x64
1000892e:	7202      	strb	r2, [r0, #8]
10008930:	3a2a      	subs	r2, #42	; 0x2a
10008932:	72c2      	strb	r2, [r0, #11]
10008934:	3220      	adds	r2, #32
10008936:	7302      	strb	r2, [r0, #12]
10008938:	326b      	adds	r2, #107	; 0x6b
1000893a:	73c2      	strb	r2, [r0, #15]
1000893c:	7402      	strb	r2, [r0, #16]
1000893e:	b082      	sub	sp, #8
10008940:	3aa9      	subs	r2, #169	; 0xa9
10008942:	8502      	strh	r2, [r0, #40]	; 0x28
10008944:	466a      	mov	r2, sp
10008946:	3207      	adds	r2, #7
10008948:	62c2      	str	r2, [r0, #44]	; 0x2c
1000894a:	2201      	movs	r2, #1
1000894c:	8602      	strh	r2, [r0, #48]	; 0x30
1000894e:	8642      	strh	r2, [r0, #50]	; 0x32
10008950:	0002      	movs	r2, r0
10008952:	2300      	movs	r3, #0
10008954:	2111      	movs	r1, #17
10008956:	3234      	adds	r2, #52	; 0x34
10008958:	8243      	strh	r3, [r0, #18]
1000895a:	7043      	strb	r3, [r0, #1]
1000895c:	7083      	strb	r3, [r0, #2]
1000895e:	7143      	strb	r3, [r0, #5]
10008960:	7183      	strb	r3, [r0, #6]
10008962:	7243      	strb	r3, [r0, #9]
10008964:	7283      	strb	r3, [r0, #10]
10008966:	7343      	strb	r3, [r0, #13]
10008968:	7383      	strb	r3, [r0, #14]
1000896a:	7011      	strb	r1, [r2, #0]
1000896c:	6383      	str	r3, [r0, #56]	; 0x38
1000896e:	8783      	strh	r3, [r0, #60]	; 0x3c
10008970:	87c3      	strh	r3, [r0, #62]	; 0x3e
10008972:	7413      	strb	r3, [r2, #16]
10008974:	7453      	strb	r3, [r2, #17]
10008976:	7493      	strb	r3, [r2, #18]
10008978:	3212      	adds	r2, #18
1000897a:	8053      	strh	r3, [r2, #2]
1000897c:	8093      	strh	r3, [r2, #4]
1000897e:	80d3      	strh	r3, [r2, #6]
10008980:	6403      	str	r3, [r0, #64]	; 0x40
10008982:	b002      	add	sp, #8
10008984:	4770      	bx	lr
	...

10008988 <sms_button_define_services>:
10008988:	b513      	push	{r0, r1, r4, lr}
1000898a:	466b      	mov	r3, sp
1000898c:	1d99      	adds	r1, r3, #6
1000898e:	2300      	movs	r3, #0
10008990:	4c04      	ldr	r4, [pc, #16]	; (100089a4 <sms_button_define_services+0x1c>)
10008992:	800b      	strh	r3, [r1, #0]
10008994:	0020      	movs	r0, r4
10008996:	4b04      	ldr	r3, [pc, #16]	; (100089a8 <sms_button_define_services+0x20>)
10008998:	4798      	blx	r3
1000899a:	0020      	movs	r0, r4
1000899c:	4b03      	ldr	r3, [pc, #12]	; (100089ac <sms_button_define_services+0x24>)
1000899e:	4798      	blx	r3
100089a0:	bd13      	pop	{r0, r1, r4, pc}
100089a2:	46c0      	nop			; (mov r8, r8)
100089a4:	100139d0 	.word	0x100139d0
100089a8:	1000891d 	.word	0x1000891d
100089ac:	10008601 	.word	0x10008601

100089b0 <sms_led_switch_on>:
100089b0:	b510      	push	{r4, lr}
100089b2:	2100      	movs	r1, #0
100089b4:	4b01      	ldr	r3, [pc, #4]	; (100089bc <sms_led_switch_on+0xc>)
100089b6:	4798      	blx	r3
100089b8:	bd10      	pop	{r4, pc}
100089ba:	46c0      	nop			; (mov r8, r8)
100089bc:	10009b8d 	.word	0x10009b8d

100089c0 <sms_led_switch_off>:
100089c0:	b510      	push	{r4, lr}
100089c2:	2101      	movs	r1, #1
100089c4:	4b01      	ldr	r3, [pc, #4]	; (100089cc <sms_led_switch_off+0xc>)
100089c6:	4798      	blx	r3
100089c8:	bd10      	pop	{r4, pc}
100089ca:	46c0      	nop			; (mov r8, r8)
100089cc:	10009b8d 	.word	0x10009b8d

100089d0 <sms_led_gpio_init>:
100089d0:	b513      	push	{r0, r1, r4, lr}
100089d2:	ac01      	add	r4, sp, #4
100089d4:	0020      	movs	r0, r4
100089d6:	4b06      	ldr	r3, [pc, #24]	; (100089f0 <sms_led_gpio_init+0x20>)
100089d8:	4798      	blx	r3
100089da:	2301      	movs	r3, #1
100089dc:	0021      	movs	r1, r4
100089de:	7023      	strb	r3, [r4, #0]
100089e0:	2016      	movs	r0, #22
100089e2:	4b04      	ldr	r3, [pc, #16]	; (100089f4 <sms_led_gpio_init+0x24>)
100089e4:	4798      	blx	r3
100089e6:	2016      	movs	r0, #22
100089e8:	4b03      	ldr	r3, [pc, #12]	; (100089f8 <sms_led_gpio_init+0x28>)
100089ea:	4798      	blx	r3
100089ec:	bd13      	pop	{r0, r1, r4, pc}
100089ee:	46c0      	nop			; (mov r8, r8)
100089f0:	10009981 	.word	0x10009981
100089f4:	10009991 	.word	0x10009991
100089f8:	100089c1 	.word	0x100089c1

100089fc <sms_led_toggle>:
100089fc:	b510      	push	{r4, lr}
100089fe:	4b06      	ldr	r3, [pc, #24]	; (10008a18 <sms_led_toggle+0x1c>)
10008a00:	0004      	movs	r4, r0
10008a02:	4798      	blx	r3
10008a04:	2800      	cmp	r0, #0
10008a06:	d102      	bne.n	10008a0e <sms_led_toggle+0x12>
10008a08:	0020      	movs	r0, r4
10008a0a:	4b04      	ldr	r3, [pc, #16]	; (10008a1c <sms_led_toggle+0x20>)
10008a0c:	e001      	b.n	10008a12 <sms_led_toggle+0x16>
10008a0e:	0020      	movs	r0, r4
10008a10:	4b03      	ldr	r3, [pc, #12]	; (10008a20 <sms_led_toggle+0x24>)
10008a12:	4798      	blx	r3
10008a14:	bd10      	pop	{r4, pc}
10008a16:	46c0      	nop			; (mov r8, r8)
10008a18:	10009b51 	.word	0x10009b51
10008a1c:	100089c1 	.word	0x100089c1
10008a20:	100089b1 	.word	0x100089b1

10008a24 <sms_led_blink_start>:
10008a24:	4b0b      	ldr	r3, [pc, #44]	; (10008a54 <sms_led_blink_start+0x30>)
10008a26:	b510      	push	{r4, lr}
10008a28:	4798      	blx	r3
10008a2a:	2200      	movs	r2, #0
10008a2c:	4b0a      	ldr	r3, [pc, #40]	; (10008a58 <sms_led_blink_start+0x34>)
10008a2e:	2164      	movs	r1, #100	; 0x64
10008a30:	701a      	strb	r2, [r3, #0]
10008a32:	4b0a      	ldr	r3, [pc, #40]	; (10008a5c <sms_led_blink_start+0x38>)
10008a34:	781b      	ldrb	r3, [r3, #0]
10008a36:	b2db      	uxtb	r3, r3
10008a38:	2b02      	cmp	r3, #2
10008a3a:	d005      	beq.n	10008a48 <sms_led_blink_start+0x24>
10008a3c:	2b03      	cmp	r3, #3
10008a3e:	d102      	bne.n	10008a46 <sms_led_blink_start+0x22>
10008a40:	312d      	adds	r1, #45	; 0x2d
10008a42:	31ff      	adds	r1, #255	; 0xff
10008a44:	e000      	b.n	10008a48 <sms_led_blink_start+0x24>
10008a46:	0011      	movs	r1, r2
10008a48:	2201      	movs	r2, #1
10008a4a:	4b05      	ldr	r3, [pc, #20]	; (10008a60 <sms_led_blink_start+0x3c>)
10008a4c:	0010      	movs	r0, r2
10008a4e:	4798      	blx	r3
10008a50:	bd10      	pop	{r4, pc}
10008a52:	46c0      	nop			; (mov r8, r8)
10008a54:	100089b1 	.word	0x100089b1
10008a58:	10013adf 	.word	0x10013adf
10008a5c:	10013a73 	.word	0x10013a73
10008a60:	10008ffd 	.word	0x10008ffd

10008a64 <sms_pressure_ms58_reset>:
10008a64:	231e      	movs	r3, #30
10008a66:	b513      	push	{r0, r1, r4, lr}
10008a68:	4a04      	ldr	r2, [pc, #16]	; (10008a7c <sms_pressure_ms58_reset+0x18>)
10008a6a:	4905      	ldr	r1, [pc, #20]	; (10008a80 <sms_pressure_ms58_reset+0x1c>)
10008a6c:	7013      	strb	r3, [r2, #0]
10008a6e:	3b1d      	subs	r3, #29
10008a70:	9300      	str	r3, [sp, #0]
10008a72:	4c04      	ldr	r4, [pc, #16]	; (10008a84 <sms_pressure_ms58_reset+0x20>)
10008a74:	4b04      	ldr	r3, [pc, #16]	; (10008a88 <sms_pressure_ms58_reset+0x24>)
10008a76:	4805      	ldr	r0, [pc, #20]	; (10008a8c <sms_pressure_ms58_reset+0x28>)
10008a78:	47a0      	blx	r4
10008a7a:	bd13      	pop	{r0, r1, r4, pc}
10008a7c:	10013a32 	.word	0x10013a32
10008a80:	10013a74 	.word	0x10013a74
10008a84:	10008ee9 	.word	0x10008ee9
10008a88:	10013a22 	.word	0x10013a22
10008a8c:	10013a78 	.word	0x10013a78

10008a90 <sms_pressure_startup>:
10008a90:	b570      	push	{r4, r5, r6, lr}
10008a92:	2500      	movs	r5, #0
10008a94:	2401      	movs	r4, #1
10008a96:	2001      	movs	r0, #1
10008a98:	4b08      	ldr	r3, [pc, #32]	; (10008abc <sms_pressure_startup+0x2c>)
10008a9a:	4798      	blx	r3
10008a9c:	4b08      	ldr	r3, [pc, #32]	; (10008ac0 <sms_pressure_startup+0x30>)
10008a9e:	1d9a      	adds	r2, r3, #6
10008aa0:	77d4      	strb	r4, [r2, #31]
10008aa2:	701d      	strb	r5, [r3, #0]
10008aa4:	4b07      	ldr	r3, [pc, #28]	; (10008ac4 <sms_pressure_startup+0x34>)
10008aa6:	4798      	blx	r3
10008aa8:	2202      	movs	r2, #2
10008aaa:	4b07      	ldr	r3, [pc, #28]	; (10008ac8 <sms_pressure_startup+0x38>)
10008aac:	2103      	movs	r1, #3
10008aae:	701a      	strb	r2, [r3, #0]
10008ab0:	0020      	movs	r0, r4
10008ab2:	002a      	movs	r2, r5
10008ab4:	4b05      	ldr	r3, [pc, #20]	; (10008acc <sms_pressure_startup+0x3c>)
10008ab6:	4798      	blx	r3
10008ab8:	bd70      	pop	{r4, r5, r6, pc}
10008aba:	46c0      	nop			; (mov r8, r8)
10008abc:	100086f9 	.word	0x100086f9
10008ac0:	10013a44 	.word	0x10013a44
10008ac4:	10008a65 	.word	0x10008a65
10008ac8:	100139c4 	.word	0x100139c4
10008acc:	10008ffd 	.word	0x10008ffd

10008ad0 <sms_pressure_ms58_read_prom>:
10008ad0:	23a2      	movs	r3, #162	; 0xa2
10008ad2:	b5f7      	push	{r0, r1, r2, r4, r5, r6, r7, lr}
10008ad4:	4d3b      	ldr	r5, [pc, #236]	; (10008bc4 <sms_pressure_ms58_read_prom+0xf4>)
10008ad6:	4c3c      	ldr	r4, [pc, #240]	; (10008bc8 <sms_pressure_ms58_read_prom+0xf8>)
10008ad8:	702b      	strb	r3, [r5, #0]
10008ada:	2300      	movs	r3, #0
10008adc:	706b      	strb	r3, [r5, #1]
10008ade:	2300      	movs	r3, #0
10008ae0:	70ab      	strb	r3, [r5, #2]
10008ae2:	2303      	movs	r3, #3
10008ae4:	4f39      	ldr	r7, [pc, #228]	; (10008bcc <sms_pressure_ms58_read_prom+0xfc>)
10008ae6:	9300      	str	r3, [sp, #0]
10008ae8:	0039      	movs	r1, r7
10008aea:	0023      	movs	r3, r4
10008aec:	002a      	movs	r2, r5
10008aee:	4e38      	ldr	r6, [pc, #224]	; (10008bd0 <sms_pressure_ms58_read_prom+0x100>)
10008af0:	4838      	ldr	r0, [pc, #224]	; (10008bd4 <sms_pressure_ms58_read_prom+0x104>)
10008af2:	47b0      	blx	r6
10008af4:	7863      	ldrb	r3, [r4, #1]
10008af6:	78a2      	ldrb	r2, [r4, #2]
10008af8:	021b      	lsls	r3, r3, #8
10008afa:	4313      	orrs	r3, r2
10008afc:	4a36      	ldr	r2, [pc, #216]	; (10008bd8 <sms_pressure_ms58_read_prom+0x108>)
10008afe:	0039      	movs	r1, r7
10008b00:	80d3      	strh	r3, [r2, #6]
10008b02:	23a4      	movs	r3, #164	; 0xa4
10008b04:	702b      	strb	r3, [r5, #0]
10008b06:	3ba1      	subs	r3, #161	; 0xa1
10008b08:	9300      	str	r3, [sp, #0]
10008b0a:	002a      	movs	r2, r5
10008b0c:	0023      	movs	r3, r4
10008b0e:	4e30      	ldr	r6, [pc, #192]	; (10008bd0 <sms_pressure_ms58_read_prom+0x100>)
10008b10:	4830      	ldr	r0, [pc, #192]	; (10008bd4 <sms_pressure_ms58_read_prom+0x104>)
10008b12:	47b0      	blx	r6
10008b14:	7863      	ldrb	r3, [r4, #1]
10008b16:	78a2      	ldrb	r2, [r4, #2]
10008b18:	021b      	lsls	r3, r3, #8
10008b1a:	4313      	orrs	r3, r2
10008b1c:	4a2e      	ldr	r2, [pc, #184]	; (10008bd8 <sms_pressure_ms58_read_prom+0x108>)
10008b1e:	0039      	movs	r1, r7
10008b20:	8113      	strh	r3, [r2, #8]
10008b22:	23a6      	movs	r3, #166	; 0xa6
10008b24:	702b      	strb	r3, [r5, #0]
10008b26:	3ba3      	subs	r3, #163	; 0xa3
10008b28:	9300      	str	r3, [sp, #0]
10008b2a:	002a      	movs	r2, r5
10008b2c:	0023      	movs	r3, r4
10008b2e:	4e28      	ldr	r6, [pc, #160]	; (10008bd0 <sms_pressure_ms58_read_prom+0x100>)
10008b30:	4828      	ldr	r0, [pc, #160]	; (10008bd4 <sms_pressure_ms58_read_prom+0x104>)
10008b32:	47b0      	blx	r6
10008b34:	7863      	ldrb	r3, [r4, #1]
10008b36:	78a2      	ldrb	r2, [r4, #2]
10008b38:	021b      	lsls	r3, r3, #8
10008b3a:	4313      	orrs	r3, r2
10008b3c:	4a26      	ldr	r2, [pc, #152]	; (10008bd8 <sms_pressure_ms58_read_prom+0x108>)
10008b3e:	0039      	movs	r1, r7
10008b40:	8153      	strh	r3, [r2, #10]
10008b42:	23a8      	movs	r3, #168	; 0xa8
10008b44:	702b      	strb	r3, [r5, #0]
10008b46:	3ba5      	subs	r3, #165	; 0xa5
10008b48:	9300      	str	r3, [sp, #0]
10008b4a:	002a      	movs	r2, r5
10008b4c:	0023      	movs	r3, r4
10008b4e:	4e20      	ldr	r6, [pc, #128]	; (10008bd0 <sms_pressure_ms58_read_prom+0x100>)
10008b50:	4820      	ldr	r0, [pc, #128]	; (10008bd4 <sms_pressure_ms58_read_prom+0x104>)
10008b52:	47b0      	blx	r6
10008b54:	7863      	ldrb	r3, [r4, #1]
10008b56:	78a2      	ldrb	r2, [r4, #2]
10008b58:	021b      	lsls	r3, r3, #8
10008b5a:	4313      	orrs	r3, r2
10008b5c:	4a1e      	ldr	r2, [pc, #120]	; (10008bd8 <sms_pressure_ms58_read_prom+0x108>)
10008b5e:	0039      	movs	r1, r7
10008b60:	8193      	strh	r3, [r2, #12]
10008b62:	23aa      	movs	r3, #170	; 0xaa
10008b64:	702b      	strb	r3, [r5, #0]
10008b66:	3ba7      	subs	r3, #167	; 0xa7
10008b68:	9300      	str	r3, [sp, #0]
10008b6a:	002a      	movs	r2, r5
10008b6c:	0023      	movs	r3, r4
10008b6e:	4e18      	ldr	r6, [pc, #96]	; (10008bd0 <sms_pressure_ms58_read_prom+0x100>)
10008b70:	4818      	ldr	r0, [pc, #96]	; (10008bd4 <sms_pressure_ms58_read_prom+0x104>)
10008b72:	47b0      	blx	r6
10008b74:	7863      	ldrb	r3, [r4, #1]
10008b76:	78a2      	ldrb	r2, [r4, #2]
10008b78:	021b      	lsls	r3, r3, #8
10008b7a:	4313      	orrs	r3, r2
10008b7c:	4a16      	ldr	r2, [pc, #88]	; (10008bd8 <sms_pressure_ms58_read_prom+0x108>)
10008b7e:	0039      	movs	r1, r7
10008b80:	81d3      	strh	r3, [r2, #14]
10008b82:	23ac      	movs	r3, #172	; 0xac
10008b84:	702b      	strb	r3, [r5, #0]
10008b86:	3ba9      	subs	r3, #169	; 0xa9
10008b88:	9300      	str	r3, [sp, #0]
10008b8a:	002a      	movs	r2, r5
10008b8c:	0023      	movs	r3, r4
10008b8e:	4e10      	ldr	r6, [pc, #64]	; (10008bd0 <sms_pressure_ms58_read_prom+0x100>)
10008b90:	4810      	ldr	r0, [pc, #64]	; (10008bd4 <sms_pressure_ms58_read_prom+0x104>)
10008b92:	47b0      	blx	r6
10008b94:	7863      	ldrb	r3, [r4, #1]
10008b96:	78a2      	ldrb	r2, [r4, #2]
10008b98:	021b      	lsls	r3, r3, #8
10008b9a:	4313      	orrs	r3, r2
10008b9c:	4a0e      	ldr	r2, [pc, #56]	; (10008bd8 <sms_pressure_ms58_read_prom+0x108>)
10008b9e:	0039      	movs	r1, r7
10008ba0:	8213      	strh	r3, [r2, #16]
10008ba2:	23ae      	movs	r3, #174	; 0xae
10008ba4:	702b      	strb	r3, [r5, #0]
10008ba6:	3bab      	subs	r3, #171	; 0xab
10008ba8:	9300      	str	r3, [sp, #0]
10008baa:	002a      	movs	r2, r5
10008bac:	0023      	movs	r3, r4
10008bae:	4d08      	ldr	r5, [pc, #32]	; (10008bd0 <sms_pressure_ms58_read_prom+0x100>)
10008bb0:	4808      	ldr	r0, [pc, #32]	; (10008bd4 <sms_pressure_ms58_read_prom+0x104>)
10008bb2:	47a8      	blx	r5
10008bb4:	7863      	ldrb	r3, [r4, #1]
10008bb6:	78a2      	ldrb	r2, [r4, #2]
10008bb8:	021b      	lsls	r3, r3, #8
10008bba:	4313      	orrs	r3, r2
10008bbc:	4a06      	ldr	r2, [pc, #24]	; (10008bd8 <sms_pressure_ms58_read_prom+0x108>)
10008bbe:	2000      	movs	r0, #0
10008bc0:	8253      	strh	r3, [r2, #18]
10008bc2:	bdfe      	pop	{r1, r2, r3, r4, r5, r6, r7, pc}
10008bc4:	10013a32 	.word	0x10013a32
10008bc8:	10013a22 	.word	0x10013a22
10008bcc:	10013a74 	.word	0x10013a74
10008bd0:	10008ee9 	.word	0x10008ee9
10008bd4:	10013a78 	.word	0x10013a78
10008bd8:	10013a44 	.word	0x10013a44

10008bdc <sms_pressure_init>:
10008bdc:	b510      	push	{r4, lr}
10008bde:	4b06      	ldr	r3, [pc, #24]	; (10008bf8 <sms_pressure_init+0x1c>)
10008be0:	4798      	blx	r3
10008be2:	2800      	cmp	r0, #0
10008be4:	d106      	bne.n	10008bf4 <sms_pressure_init+0x18>
10008be6:	2201      	movs	r2, #1
10008be8:	4b04      	ldr	r3, [pc, #16]	; (10008bfc <sms_pressure_init+0x20>)
10008bea:	705a      	strb	r2, [r3, #1]
10008bec:	3306      	adds	r3, #6
10008bee:	1892      	adds	r2, r2, r2
10008bf0:	77da      	strb	r2, [r3, #31]
10008bf2:	e000      	b.n	10008bf6 <sms_pressure_init+0x1a>
10008bf4:	2010      	movs	r0, #16
10008bf6:	bd10      	pop	{r4, pc}
10008bf8:	10008ad1 	.word	0x10008ad1
10008bfc:	10013a44 	.word	0x10013a44

10008c00 <sms_pressure_ms58_read_data>:
10008c00:	b5f7      	push	{r0, r1, r2, r4, r5, r6, r7, lr}
10008c02:	4b29      	ldr	r3, [pc, #164]	; (10008ca8 <sms_pressure_ms58_read_data+0xa8>)
10008c04:	4e29      	ldr	r6, [pc, #164]	; (10008cac <sms_pressure_ms58_read_data+0xac>)
10008c06:	7fdb      	ldrb	r3, [r3, #31]
10008c08:	b2db      	uxtb	r3, r3
10008c0a:	2b03      	cmp	r3, #3
10008c0c:	d026      	beq.n	10008c5c <sms_pressure_ms58_read_data+0x5c>
10008c0e:	2b04      	cmp	r3, #4
10008c10:	d148      	bne.n	10008ca4 <sms_pressure_ms58_read_data+0xa4>
10008c12:	2200      	movs	r2, #0
10008c14:	4c26      	ldr	r4, [pc, #152]	; (10008cb0 <sms_pressure_ms58_read_data+0xb0>)
10008c16:	4d27      	ldr	r5, [pc, #156]	; (10008cb4 <sms_pressure_ms58_read_data+0xb4>)
10008c18:	7022      	strb	r2, [r4, #0]
10008c1a:	7062      	strb	r2, [r4, #1]
10008c1c:	70a2      	strb	r2, [r4, #2]
10008c1e:	70e2      	strb	r2, [r4, #3]
10008c20:	4925      	ldr	r1, [pc, #148]	; (10008cb8 <sms_pressure_ms58_read_data+0xb8>)
10008c22:	9300      	str	r3, [sp, #0]
10008c24:	0022      	movs	r2, r4
10008c26:	002b      	movs	r3, r5
10008c28:	4f24      	ldr	r7, [pc, #144]	; (10008cbc <sms_pressure_ms58_read_data+0xbc>)
10008c2a:	4825      	ldr	r0, [pc, #148]	; (10008cc0 <sms_pressure_ms58_read_data+0xc0>)
10008c2c:	47b8      	blx	r7
10008c2e:	786b      	ldrb	r3, [r5, #1]
10008c30:	4921      	ldr	r1, [pc, #132]	; (10008cb8 <sms_pressure_ms58_read_data+0xb8>)
10008c32:	041a      	lsls	r2, r3, #16
10008c34:	78ab      	ldrb	r3, [r5, #2]
10008c36:	4822      	ldr	r0, [pc, #136]	; (10008cc0 <sms_pressure_ms58_read_data+0xc0>)
10008c38:	021b      	lsls	r3, r3, #8
10008c3a:	4313      	orrs	r3, r2
10008c3c:	78ea      	ldrb	r2, [r5, #3]
10008c3e:	4313      	orrs	r3, r2
10008c40:	61b3      	str	r3, [r6, #24]
10008c42:	2342      	movs	r3, #66	; 0x42
10008c44:	7023      	strb	r3, [r4, #0]
10008c46:	3b41      	subs	r3, #65	; 0x41
10008c48:	9300      	str	r3, [sp, #0]
10008c4a:	0022      	movs	r2, r4
10008c4c:	002b      	movs	r3, r5
10008c4e:	47b8      	blx	r7
10008c50:	2303      	movs	r3, #3
10008c52:	4a15      	ldr	r2, [pc, #84]	; (10008ca8 <sms_pressure_ms58_read_data+0xa8>)
10008c54:	77d3      	strb	r3, [r2, #31]
10008c56:	1d73      	adds	r3, r6, #5
10008c58:	2201      	movs	r2, #1
10008c5a:	e022      	b.n	10008ca2 <sms_pressure_ms58_read_data+0xa2>
10008c5c:	2300      	movs	r3, #0
10008c5e:	4c14      	ldr	r4, [pc, #80]	; (10008cb0 <sms_pressure_ms58_read_data+0xb0>)
10008c60:	4d14      	ldr	r5, [pc, #80]	; (10008cb4 <sms_pressure_ms58_read_data+0xb4>)
10008c62:	7023      	strb	r3, [r4, #0]
10008c64:	7063      	strb	r3, [r4, #1]
10008c66:	70a3      	strb	r3, [r4, #2]
10008c68:	70e3      	strb	r3, [r4, #3]
10008c6a:	3304      	adds	r3, #4
10008c6c:	0022      	movs	r2, r4
10008c6e:	9300      	str	r3, [sp, #0]
10008c70:	4911      	ldr	r1, [pc, #68]	; (10008cb8 <sms_pressure_ms58_read_data+0xb8>)
10008c72:	002b      	movs	r3, r5
10008c74:	4812      	ldr	r0, [pc, #72]	; (10008cc0 <sms_pressure_ms58_read_data+0xc0>)
10008c76:	4f11      	ldr	r7, [pc, #68]	; (10008cbc <sms_pressure_ms58_read_data+0xbc>)
10008c78:	47b8      	blx	r7
10008c7a:	786b      	ldrb	r3, [r5, #1]
10008c7c:	490e      	ldr	r1, [pc, #56]	; (10008cb8 <sms_pressure_ms58_read_data+0xb8>)
10008c7e:	041a      	lsls	r2, r3, #16
10008c80:	78ab      	ldrb	r3, [r5, #2]
10008c82:	480f      	ldr	r0, [pc, #60]	; (10008cc0 <sms_pressure_ms58_read_data+0xc0>)
10008c84:	021b      	lsls	r3, r3, #8
10008c86:	4313      	orrs	r3, r2
10008c88:	78ea      	ldrb	r2, [r5, #3]
10008c8a:	4313      	orrs	r3, r2
10008c8c:	6173      	str	r3, [r6, #20]
10008c8e:	2352      	movs	r3, #82	; 0x52
10008c90:	7023      	strb	r3, [r4, #0]
10008c92:	3b51      	subs	r3, #81	; 0x51
10008c94:	0022      	movs	r2, r4
10008c96:	9300      	str	r3, [sp, #0]
10008c98:	4c08      	ldr	r4, [pc, #32]	; (10008cbc <sms_pressure_ms58_read_data+0xbc>)
10008c9a:	002b      	movs	r3, r5
10008c9c:	47a0      	blx	r4
10008c9e:	2204      	movs	r2, #4
10008ca0:	4b01      	ldr	r3, [pc, #4]	; (10008ca8 <sms_pressure_ms58_read_data+0xa8>)
10008ca2:	77da      	strb	r2, [r3, #31]
10008ca4:	2000      	movs	r0, #0
10008ca6:	bdfe      	pop	{r1, r2, r3, r4, r5, r6, r7, pc}
10008ca8:	10013a4a 	.word	0x10013a4a
10008cac:	10013a44 	.word	0x10013a44
10008cb0:	10013a32 	.word	0x10013a32
10008cb4:	10013a22 	.word	0x10013a22
10008cb8:	10013a74 	.word	0x10013a74
10008cbc:	10008ee9 	.word	0x10008ee9
10008cc0:	10013a78 	.word	0x10013a78

10008cc4 <sms_pressure_ms58_calculate>:
10008cc4:	b5f0      	push	{r4, r5, r6, r7, lr}
10008cc6:	2700      	movs	r7, #0
10008cc8:	4c2a      	ldr	r4, [pc, #168]	; (10008d74 <sms_pressure_ms58_calculate+0xb0>)
10008cca:	b085      	sub	sp, #20
10008ccc:	89e5      	ldrh	r5, [r4, #14]
10008cce:	69a3      	ldr	r3, [r4, #24]
10008cd0:	022d      	lsls	r5, r5, #8
10008cd2:	8a20      	ldrh	r0, [r4, #16]
10008cd4:	1b5d      	subs	r5, r3, r5
10008cd6:	17eb      	asrs	r3, r5, #31
10008cd8:	4e27      	ldr	r6, [pc, #156]	; (10008d78 <sms_pressure_ms58_calculate+0xb4>)
10008cda:	9303      	str	r3, [sp, #12]
10008cdc:	002a      	movs	r2, r5
10008cde:	0039      	movs	r1, r7
10008ce0:	b280      	uxth	r0, r0
10008ce2:	47b0      	blx	r6
10008ce4:	23fa      	movs	r3, #250	; 0xfa
10008ce6:	0249      	lsls	r1, r1, #9
10008ce8:	0dc0      	lsrs	r0, r0, #23
10008cea:	4308      	orrs	r0, r1
10008cec:	00db      	lsls	r3, r3, #3
10008cee:	18c0      	adds	r0, r0, r3
10008cf0:	6220      	str	r0, [r4, #32]
10008cf2:	8923      	ldrh	r3, [r4, #8]
10008cf4:	002a      	movs	r2, r5
10008cf6:	b29b      	uxth	r3, r3
10008cf8:	9300      	str	r3, [sp, #0]
10008cfa:	89a0      	ldrh	r0, [r4, #12]
10008cfc:	17eb      	asrs	r3, r5, #31
10008cfe:	0039      	movs	r1, r7
10008d00:	b280      	uxth	r0, r0
10008d02:	47b0      	blx	r6
10008d04:	000b      	movs	r3, r1
10008d06:	0649      	lsls	r1, r1, #25
10008d08:	468c      	mov	ip, r1
10008d0a:	0002      	movs	r2, r0
10008d0c:	09d0      	lsrs	r0, r2, #7
10008d0e:	4662      	mov	r2, ip
10008d10:	11d9      	asrs	r1, r3, #7
10008d12:	003b      	movs	r3, r7
10008d14:	9e00      	ldr	r6, [sp, #0]
10008d16:	4310      	orrs	r0, r2
10008d18:	0432      	lsls	r2, r6, #16
10008d1a:	1880      	adds	r0, r0, r2
10008d1c:	4159      	adcs	r1, r3
10008d1e:	9000      	str	r0, [sp, #0]
10008d20:	9101      	str	r1, [sp, #4]
10008d22:	88e3      	ldrh	r3, [r4, #6]
10008d24:	8960      	ldrh	r0, [r4, #10]
10008d26:	b29b      	uxth	r3, r3
10008d28:	001e      	movs	r6, r3
10008d2a:	6963      	ldr	r3, [r4, #20]
10008d2c:	002a      	movs	r2, r5
10008d2e:	9302      	str	r3, [sp, #8]
10008d30:	4d11      	ldr	r5, [pc, #68]	; (10008d78 <sms_pressure_ms58_calculate+0xb4>)
10008d32:	9b03      	ldr	r3, [sp, #12]
10008d34:	0039      	movs	r1, r7
10008d36:	b280      	uxth	r0, r0
10008d38:	47a8      	blx	r5
10008d3a:	060d      	lsls	r5, r1, #24
10008d3c:	120b      	asrs	r3, r1, #8
10008d3e:	0039      	movs	r1, r7
10008d40:	0a02      	lsrs	r2, r0, #8
10008d42:	432a      	orrs	r2, r5
10008d44:	03f0      	lsls	r0, r6, #15
10008d46:	1880      	adds	r0, r0, r2
10008d48:	4159      	adcs	r1, r3
10008d4a:	4d0b      	ldr	r5, [pc, #44]	; (10008d78 <sms_pressure_ms58_calculate+0xb4>)
10008d4c:	9a02      	ldr	r2, [sp, #8]
10008d4e:	003b      	movs	r3, r7
10008d50:	47a8      	blx	r5
10008d52:	02cd      	lsls	r5, r1, #11
10008d54:	0d42      	lsrs	r2, r0, #21
10008d56:	432a      	orrs	r2, r5
10008d58:	154b      	asrs	r3, r1, #21
10008d5a:	9800      	ldr	r0, [sp, #0]
10008d5c:	9901      	ldr	r1, [sp, #4]
10008d5e:	1a12      	subs	r2, r2, r0
10008d60:	418b      	sbcs	r3, r1
10008d62:	045b      	lsls	r3, r3, #17
10008d64:	0bd2      	lsrs	r2, r2, #15
10008d66:	431a      	orrs	r2, r3
10008d68:	61e2      	str	r2, [r4, #28]
10008d6a:	6a23      	ldr	r3, [r4, #32]
10008d6c:	69e3      	ldr	r3, [r4, #28]
10008d6e:	b005      	add	sp, #20
10008d70:	bdf0      	pop	{r4, r5, r6, r7, pc}
10008d72:	46c0      	nop			; (mov r8, r8)
10008d74:	10013a44 	.word	0x10013a44
10008d78:	1000fac5 	.word	0x1000fac5

10008d7c <sms_pressure_poll_data>:
10008d7c:	b510      	push	{r4, lr}
10008d7e:	4b0f      	ldr	r3, [pc, #60]	; (10008dbc <sms_pressure_poll_data+0x40>)
10008d80:	781b      	ldrb	r3, [r3, #0]
10008d82:	2b22      	cmp	r3, #34	; 0x22
10008d84:	d118      	bne.n	10008db8 <sms_pressure_poll_data+0x3c>
10008d86:	4b0e      	ldr	r3, [pc, #56]	; (10008dc0 <sms_pressure_poll_data+0x44>)
10008d88:	4798      	blx	r3
10008d8a:	2800      	cmp	r0, #0
10008d8c:	d10a      	bne.n	10008da4 <sms_pressure_poll_data+0x28>
10008d8e:	4b0d      	ldr	r3, [pc, #52]	; (10008dc4 <sms_pressure_poll_data+0x48>)
10008d90:	3305      	adds	r3, #5
10008d92:	7fda      	ldrb	r2, [r3, #31]
10008d94:	2a00      	cmp	r2, #0
10008d96:	d005      	beq.n	10008da4 <sms_pressure_poll_data+0x28>
10008d98:	77d8      	strb	r0, [r3, #31]
10008d9a:	4b0b      	ldr	r3, [pc, #44]	; (10008dc8 <sms_pressure_poll_data+0x4c>)
10008d9c:	4798      	blx	r3
10008d9e:	2002      	movs	r0, #2
10008da0:	4b0a      	ldr	r3, [pc, #40]	; (10008dcc <sms_pressure_poll_data+0x50>)
10008da2:	4798      	blx	r3
10008da4:	4b0a      	ldr	r3, [pc, #40]	; (10008dd0 <sms_pressure_poll_data+0x54>)
10008da6:	781b      	ldrb	r3, [r3, #0]
10008da8:	2b00      	cmp	r3, #0
10008daa:	d105      	bne.n	10008db8 <sms_pressure_poll_data+0x3c>
10008dac:	4b09      	ldr	r3, [pc, #36]	; (10008dd4 <sms_pressure_poll_data+0x58>)
10008dae:	781b      	ldrb	r3, [r3, #0]
10008db0:	2b00      	cmp	r3, #0
10008db2:	d101      	bne.n	10008db8 <sms_pressure_poll_data+0x3c>
10008db4:	4b08      	ldr	r3, [pc, #32]	; (10008dd8 <sms_pressure_poll_data+0x5c>)
10008db6:	4798      	blx	r3
10008db8:	bd10      	pop	{r4, pc}
10008dba:	46c0      	nop			; (mov r8, r8)
10008dbc:	10013a72 	.word	0x10013a72
10008dc0:	10008c01 	.word	0x10008c01
10008dc4:	10013a44 	.word	0x10013a44
10008dc8:	10008cc5 	.word	0x10008cc5
10008dcc:	100084bd 	.word	0x100084bd
10008dd0:	100139c4 	.word	0x100139c4
10008dd4:	10013a73 	.word	0x10013a73
10008dd8:	1000bfd9 	.word	0x1000bfd9

10008ddc <sms_pressure_service_init>:
10008ddc:	2257      	movs	r2, #87	; 0x57
10008dde:	70c2      	strb	r2, [r0, #3]
10008de0:	3a3b      	subs	r2, #59	; 0x3b
10008de2:	7102      	strb	r2, [r0, #4]
10008de4:	32a2      	adds	r2, #162	; 0xa2
10008de6:	71c2      	strb	r2, [r0, #7]
10008de8:	3a64      	subs	r2, #100	; 0x64
10008dea:	7202      	strb	r2, [r0, #8]
10008dec:	3a2a      	subs	r2, #42	; 0x2a
10008dee:	72c2      	strb	r2, [r0, #11]
10008df0:	3220      	adds	r2, #32
10008df2:	7302      	strb	r2, [r0, #12]
10008df4:	329e      	adds	r2, #158	; 0x9e
10008df6:	73c2      	strb	r2, [r0, #15]
10008df8:	7402      	strb	r2, [r0, #16]
10008dfa:	b082      	sub	sp, #8
10008dfc:	3adc      	subs	r2, #220	; 0xdc
10008dfe:	8502      	strh	r2, [r0, #40]	; 0x28
10008e00:	466a      	mov	r2, sp
10008e02:	3207      	adds	r2, #7
10008e04:	62c2      	str	r2, [r0, #44]	; 0x2c
10008e06:	2301      	movs	r3, #1
10008e08:	2208      	movs	r2, #8
10008e0a:	8243      	strh	r3, [r0, #18]
10008e0c:	8602      	strh	r2, [r0, #48]	; 0x30
10008e0e:	8642      	strh	r2, [r0, #50]	; 0x32
10008e10:	18db      	adds	r3, r3, r3
10008e12:	0002      	movs	r2, r0
10008e14:	7003      	strb	r3, [r0, #0]
10008e16:	2111      	movs	r1, #17
10008e18:	2300      	movs	r3, #0
10008e1a:	3234      	adds	r2, #52	; 0x34
10008e1c:	7043      	strb	r3, [r0, #1]
10008e1e:	7083      	strb	r3, [r0, #2]
10008e20:	7143      	strb	r3, [r0, #5]
10008e22:	7183      	strb	r3, [r0, #6]
10008e24:	7243      	strb	r3, [r0, #9]
10008e26:	7283      	strb	r3, [r0, #10]
10008e28:	7343      	strb	r3, [r0, #13]
10008e2a:	7383      	strb	r3, [r0, #14]
10008e2c:	7011      	strb	r1, [r2, #0]
10008e2e:	6383      	str	r3, [r0, #56]	; 0x38
10008e30:	8783      	strh	r3, [r0, #60]	; 0x3c
10008e32:	87c3      	strh	r3, [r0, #62]	; 0x3e
10008e34:	7413      	strb	r3, [r2, #16]
10008e36:	7453      	strb	r3, [r2, #17]
10008e38:	7493      	strb	r3, [r2, #18]
10008e3a:	3212      	adds	r2, #18
10008e3c:	8053      	strh	r3, [r2, #2]
10008e3e:	8093      	strh	r3, [r2, #4]
10008e40:	80d3      	strh	r3, [r2, #6]
10008e42:	6403      	str	r3, [r0, #64]	; 0x40
10008e44:	b002      	add	sp, #8
10008e46:	4770      	bx	lr

10008e48 <sms_pressure_define_services>:
10008e48:	b513      	push	{r0, r1, r4, lr}
10008e4a:	466b      	mov	r3, sp
10008e4c:	1dd9      	adds	r1, r3, #7
10008e4e:	2300      	movs	r3, #0
10008e50:	4c04      	ldr	r4, [pc, #16]	; (10008e64 <sms_pressure_define_services+0x1c>)
10008e52:	700b      	strb	r3, [r1, #0]
10008e54:	0020      	movs	r0, r4
10008e56:	4b04      	ldr	r3, [pc, #16]	; (10008e68 <sms_pressure_define_services+0x20>)
10008e58:	4798      	blx	r3
10008e5a:	0020      	movs	r0, r4
10008e5c:	4b03      	ldr	r3, [pc, #12]	; (10008e6c <sms_pressure_define_services+0x24>)
10008e5e:	4798      	blx	r3
10008e60:	bd13      	pop	{r0, r1, r4, pc}
10008e62:	46c0      	nop			; (mov r8, r8)
10008e64:	10013a8c 	.word	0x10013a8c
10008e68:	10008ddd 	.word	0x10008ddd
10008e6c:	10008601 	.word	0x10008601

10008e70 <spi_master_configure>:
10008e70:	b530      	push	{r4, r5, lr}
10008e72:	b08d      	sub	sp, #52	; 0x34
10008e74:	ac01      	add	r4, sp, #4
10008e76:	0020      	movs	r0, r4
10008e78:	4b13      	ldr	r3, [pc, #76]	; (10008ec8 <spi_master_configure+0x58>)
10008e7a:	4798      	blx	r3
10008e7c:	2310      	movs	r3, #16
10008e7e:	0021      	movs	r1, r4
10008e80:	7023      	strb	r3, [r4, #0]
10008e82:	4812      	ldr	r0, [pc, #72]	; (10008ecc <spi_master_configure+0x5c>)
10008e84:	ac02      	add	r4, sp, #8
10008e86:	4b12      	ldr	r3, [pc, #72]	; (10008ed0 <spi_master_configure+0x60>)
10008e88:	4798      	blx	r3
10008e8a:	0020      	movs	r0, r4
10008e8c:	4b11      	ldr	r3, [pc, #68]	; (10008ed4 <spi_master_configure+0x64>)
10008e8e:	4798      	blx	r3
10008e90:	2368      	movs	r3, #104	; 0x68
10008e92:	2213      	movs	r2, #19
10008e94:	7123      	strb	r3, [r4, #4]
10008e96:	2300      	movs	r3, #0
10008e98:	4d0f      	ldr	r5, [pc, #60]	; (10008ed8 <spi_master_configure+0x68>)
10008e9a:	70a3      	strb	r3, [r4, #2]
10008e9c:	60e2      	str	r2, [r4, #12]
10008e9e:	3311      	adds	r3, #17
10008ea0:	3a14      	subs	r2, #20
10008ea2:	60a3      	str	r3, [r4, #8]
10008ea4:	6122      	str	r2, [r4, #16]
10008ea6:	3b0d      	subs	r3, #13
10008ea8:	6222      	str	r2, [r4, #32]
10008eaa:	3213      	adds	r2, #19
10008eac:	61a3      	str	r3, [r4, #24]
10008eae:	61e3      	str	r3, [r4, #28]
10008eb0:	6162      	str	r2, [r4, #20]
10008eb2:	6263      	str	r3, [r4, #36]	; 0x24
10008eb4:	0022      	movs	r2, r4
10008eb6:	4909      	ldr	r1, [pc, #36]	; (10008edc <spi_master_configure+0x6c>)
10008eb8:	0028      	movs	r0, r5
10008eba:	4b09      	ldr	r3, [pc, #36]	; (10008ee0 <spi_master_configure+0x70>)
10008ebc:	4798      	blx	r3
10008ebe:	0028      	movs	r0, r5
10008ec0:	4b08      	ldr	r3, [pc, #32]	; (10008ee4 <spi_master_configure+0x74>)
10008ec2:	4798      	blx	r3
10008ec4:	b00d      	add	sp, #52	; 0x34
10008ec6:	bd30      	pop	{r4, r5, pc}
10008ec8:	1000938d 	.word	0x1000938d
10008ecc:	10013a74 	.word	0x10013a74
10008ed0:	100093c5 	.word	0x100093c5
10008ed4:	10009399 	.word	0x10009399
10008ed8:	10013a78 	.word	0x10013a78
10008edc:	40007000 	.word	0x40007000
10008ee0:	1000948d 	.word	0x1000948d
10008ee4:	10009401 	.word	0x10009401

10008ee8 <spi_master_transceive>:
10008ee8:	b5f7      	push	{r0, r1, r2, r4, r5, r6, r7, lr}
10008eea:	0004      	movs	r4, r0
10008eec:	001e      	movs	r6, r3
10008eee:	ab08      	add	r3, sp, #32
10008ef0:	881b      	ldrh	r3, [r3, #0]
10008ef2:	4f09      	ldr	r7, [pc, #36]	; (10008f18 <spi_master_transceive+0x30>)
10008ef4:	9200      	str	r2, [sp, #0]
10008ef6:	2201      	movs	r2, #1
10008ef8:	000d      	movs	r5, r1
10008efa:	9301      	str	r3, [sp, #4]
10008efc:	47b8      	blx	r7
10008efe:	9b01      	ldr	r3, [sp, #4]
10008f00:	0032      	movs	r2, r6
10008f02:	9900      	ldr	r1, [sp, #0]
10008f04:	0020      	movs	r0, r4
10008f06:	4e05      	ldr	r6, [pc, #20]	; (10008f1c <spi_master_transceive+0x34>)
10008f08:	47b0      	blx	r6
10008f0a:	0006      	movs	r6, r0
10008f0c:	0029      	movs	r1, r5
10008f0e:	2200      	movs	r2, #0
10008f10:	0020      	movs	r0, r4
10008f12:	47b8      	blx	r7
10008f14:	0030      	movs	r0, r6
10008f16:	bdfe      	pop	{r1, r2, r3, r4, r5, r6, r7, pc}
10008f18:	10009629 	.word	0x10009629
10008f1c:	100095a9 	.word	0x100095a9

10008f20 <sms_timer_aon_callback>:
10008f20:	2204      	movs	r2, #4
10008f22:	4b05      	ldr	r3, [pc, #20]	; (10008f38 <sms_timer_aon_callback+0x18>)
10008f24:	b510      	push	{r4, lr}
10008f26:	701a      	strb	r2, [r3, #0]
10008f28:	2300      	movs	r3, #0
10008f2a:	2103      	movs	r1, #3
10008f2c:	001a      	movs	r2, r3
10008f2e:	2042      	movs	r0, #66	; 0x42
10008f30:	4c02      	ldr	r4, [pc, #8]	; (10008f3c <sms_timer_aon_callback+0x1c>)
10008f32:	47a0      	blx	r4
10008f34:	bd10      	pop	{r4, pc}
10008f36:	46c0      	nop			; (mov r8, r8)
10008f38:	10013a6c 	.word	0x10013a6c
10008f3c:	1000bd71 	.word	0x1000bd71

10008f40 <sms_timer_aon_init>:
10008f40:	b537      	push	{r0, r1, r2, r4, r5, lr}
10008f42:	4b06      	ldr	r3, [pc, #24]	; (10008f5c <sms_timer_aon_init+0x1c>)
10008f44:	0004      	movs	r4, r0
10008f46:	4668      	mov	r0, sp
10008f48:	000d      	movs	r5, r1
10008f4a:	4798      	blx	r3
10008f4c:	466b      	mov	r3, sp
10008f4e:	4668      	mov	r0, sp
10008f50:	705d      	strb	r5, [r3, #1]
10008f52:	4b03      	ldr	r3, [pc, #12]	; (10008f60 <sms_timer_aon_init+0x20>)
10008f54:	9401      	str	r4, [sp, #4]
10008f56:	4798      	blx	r3
10008f58:	bd37      	pop	{r0, r1, r2, r4, r5, pc}
10008f5a:	46c0      	nop			; (mov r8, r8)
10008f5c:	100080b5 	.word	0x100080b5
10008f60:	10008129 	.word	0x10008129

10008f64 <sms_timer_aon_disable>:
10008f64:	b510      	push	{r4, lr}
10008f66:	4b01      	ldr	r3, [pc, #4]	; (10008f6c <sms_timer_aon_disable+0x8>)
10008f68:	4798      	blx	r3
10008f6a:	bd10      	pop	{r4, pc}
10008f6c:	100080c5 	.word	0x100080c5

10008f70 <sms_timer_aon_register_callback>:
10008f70:	b510      	push	{r4, lr}
10008f72:	4b04      	ldr	r3, [pc, #16]	; (10008f84 <sms_timer_aon_register_callback+0x14>)
10008f74:	4804      	ldr	r0, [pc, #16]	; (10008f88 <sms_timer_aon_register_callback+0x18>)
10008f76:	4798      	blx	r3
10008f78:	2280      	movs	r2, #128	; 0x80
10008f7a:	4b04      	ldr	r3, [pc, #16]	; (10008f8c <sms_timer_aon_register_callback+0x1c>)
10008f7c:	0512      	lsls	r2, r2, #20
10008f7e:	601a      	str	r2, [r3, #0]
10008f80:	bd10      	pop	{r4, pc}
10008f82:	46c0      	nop			; (mov r8, r8)
10008f84:	10008111 	.word	0x10008111
10008f88:	10008f21 	.word	0x10008f21
10008f8c:	e000e100 	.word	0xe000e100

10008f90 <sms_timer_aon_unregister_callback>:
10008f90:	b510      	push	{r4, lr}
10008f92:	4b03      	ldr	r3, [pc, #12]	; (10008fa0 <sms_timer_aon_unregister_callback+0x10>)
10008f94:	4798      	blx	r3
10008f96:	2280      	movs	r2, #128	; 0x80
10008f98:	4b02      	ldr	r3, [pc, #8]	; (10008fa4 <sms_timer_aon_unregister_callback+0x14>)
10008f9a:	0512      	lsls	r2, r2, #20
10008f9c:	67da      	str	r2, [r3, #124]	; 0x7c
10008f9e:	bd10      	pop	{r4, pc}
10008fa0:	1000811d 	.word	0x1000811d
10008fa4:	e000e104 	.word	0xe000e104

10008fa8 <sms_dualtimer_init>:
10008fa8:	b530      	push	{r4, r5, lr}
10008faa:	2500      	movs	r5, #0
10008fac:	b089      	sub	sp, #36	; 0x24
10008fae:	ac01      	add	r4, sp, #4
10008fb0:	0020      	movs	r0, r4
10008fb2:	4b08      	ldr	r3, [pc, #32]	; (10008fd4 <sms_dualtimer_init+0x2c>)
10008fb4:	4798      	blx	r3
10008fb6:	4b08      	ldr	r3, [pc, #32]	; (10008fd8 <sms_dualtimer_init+0x30>)
10008fb8:	0020      	movs	r0, r4
10008fba:	60a3      	str	r3, [r4, #8]
10008fbc:	6163      	str	r3, [r4, #20]
10008fbe:	4b07      	ldr	r3, [pc, #28]	; (10008fdc <sms_dualtimer_init+0x34>)
10008fc0:	7065      	strb	r5, [r4, #1]
10008fc2:	7365      	strb	r5, [r4, #13]
10008fc4:	4798      	blx	r3
10008fc6:	0028      	movs	r0, r5
10008fc8:	4c05      	ldr	r4, [pc, #20]	; (10008fe0 <sms_dualtimer_init+0x38>)
10008fca:	47a0      	blx	r4
10008fcc:	2001      	movs	r0, #1
10008fce:	47a0      	blx	r4
10008fd0:	b009      	add	sp, #36	; 0x24
10008fd2:	bd30      	pop	{r4, r5, pc}
10008fd4:	10009689 	.word	0x10009689
10008fd8:	018cba80 	.word	0x018cba80
10008fdc:	1000971d 	.word	0x1000971d
10008fe0:	100096f9 	.word	0x100096f9

10008fe4 <sms_dualtimer_register_callback>:
10008fe4:	b510      	push	{r4, lr}
10008fe6:	0004      	movs	r4, r0
10008fe8:	4b02      	ldr	r3, [pc, #8]	; (10008ff4 <sms_dualtimer_register_callback+0x10>)
10008fea:	4798      	blx	r3
10008fec:	0020      	movs	r0, r4
10008fee:	4b02      	ldr	r3, [pc, #8]	; (10008ff8 <sms_dualtimer_register_callback+0x14>)
10008ff0:	4798      	blx	r3
10008ff2:	bd10      	pop	{r4, pc}
10008ff4:	10009829 	.word	0x10009829
10008ff8:	100096f9 	.word	0x100096f9

10008ffc <sms_dualtimer_start>:
10008ffc:	b510      	push	{r4, lr}
10008ffe:	0014      	movs	r4, r2
10009000:	2201      	movs	r2, #1
10009002:	2802      	cmp	r0, #2
10009004:	d802      	bhi.n	1000900c <sms_dualtimer_start+0x10>
10009006:	4b0a      	ldr	r3, [pc, #40]	; (10009030 <sms_dualtimer_start+0x34>)
10009008:	0080      	lsls	r0, r0, #2
1000900a:	58c2      	ldr	r2, [r0, r3]
1000900c:	2900      	cmp	r1, #0
1000900e:	d101      	bne.n	10009014 <sms_dualtimer_start+0x18>
10009010:	21fa      	movs	r1, #250	; 0xfa
10009012:	0089      	lsls	r1, r1, #2
10009014:	434a      	muls	r2, r1
10009016:	0020      	movs	r0, r4
10009018:	2100      	movs	r1, #0
1000901a:	4b06      	ldr	r3, [pc, #24]	; (10009034 <sms_dualtimer_start+0x38>)
1000901c:	4798      	blx	r3
1000901e:	0020      	movs	r0, r4
10009020:	4b05      	ldr	r3, [pc, #20]	; (10009038 <sms_dualtimer_start+0x3c>)
10009022:	4798      	blx	r3
10009024:	2280      	movs	r2, #128	; 0x80
10009026:	4b05      	ldr	r3, [pc, #20]	; (1000903c <sms_dualtimer_start+0x40>)
10009028:	01d2      	lsls	r2, r2, #7
1000902a:	601a      	str	r2, [r3, #0]
1000902c:	bd10      	pop	{r4, pc}
1000902e:	46c0      	nop			; (mov r8, r8)
10009030:	10011c64 	.word	0x10011c64
10009034:	100096ad 	.word	0x100096ad
10009038:	100096d1 	.word	0x100096d1
1000903c:	e000e100 	.word	0xe000e100

10009040 <sms_dualtimer_stop>:
10009040:	b510      	push	{r4, lr}
10009042:	4b01      	ldr	r3, [pc, #4]	; (10009048 <sms_dualtimer_stop+0x8>)
10009044:	4798      	blx	r3
10009046:	bd10      	pop	{r4, pc}
10009048:	100096f9 	.word	0x100096f9

1000904c <sms_dualtimer1_cb>:
1000904c:	2205      	movs	r2, #5
1000904e:	4b05      	ldr	r3, [pc, #20]	; (10009064 <sms_dualtimer1_cb+0x18>)
10009050:	b510      	push	{r4, lr}
10009052:	701a      	strb	r2, [r3, #0]
10009054:	2300      	movs	r3, #0
10009056:	2101      	movs	r1, #1
10009058:	001a      	movs	r2, r3
1000905a:	2040      	movs	r0, #64	; 0x40
1000905c:	4c02      	ldr	r4, [pc, #8]	; (10009068 <sms_dualtimer1_cb+0x1c>)
1000905e:	47a0      	blx	r4
10009060:	bd10      	pop	{r4, pc}
10009062:	46c0      	nop			; (mov r8, r8)
10009064:	10013a6c 	.word	0x10013a6c
10009068:	1000bd71 	.word	0x1000bd71

1000906c <sms_dualtimer2_cb>:
1000906c:	2206      	movs	r2, #6
1000906e:	4b05      	ldr	r3, [pc, #20]	; (10009084 <sms_dualtimer2_cb+0x18>)
10009070:	b510      	push	{r4, lr}
10009072:	701a      	strb	r2, [r3, #0]
10009074:	2300      	movs	r3, #0
10009076:	2101      	movs	r1, #1
10009078:	001a      	movs	r2, r3
1000907a:	2041      	movs	r0, #65	; 0x41
1000907c:	4c02      	ldr	r4, [pc, #8]	; (10009088 <sms_dualtimer2_cb+0x1c>)
1000907e:	47a0      	blx	r4
10009080:	bd10      	pop	{r4, pc}
10009082:	46c0      	nop			; (mov r8, r8)
10009084:	10013a6c 	.word	0x10013a6c
10009088:	1000bd71 	.word	0x1000bd71

1000908c <sms_dualtimer1_fn>:
1000908c:	b5f7      	push	{r0, r1, r2, r4, r5, r6, r7, lr}
1000908e:	2001      	movs	r0, #1
10009090:	4c64      	ldr	r4, [pc, #400]	; (10009224 <sms_dualtimer1_fn+0x198>)
10009092:	47a0      	blx	r4
10009094:	4d64      	ldr	r5, [pc, #400]	; (10009228 <sms_dualtimer1_fn+0x19c>)
10009096:	782e      	ldrb	r6, [r5, #0]
10009098:	b2f6      	uxtb	r6, r6
1000909a:	2e02      	cmp	r6, #2
1000909c:	d007      	beq.n	100090ae <sms_dualtimer1_fn+0x22>
1000909e:	2e03      	cmp	r6, #3
100090a0:	d100      	bne.n	100090a4 <sms_dualtimer1_fn+0x18>
100090a2:	e08a      	b.n	100091ba <sms_dualtimer1_fn+0x12e>
100090a4:	2000      	movs	r0, #0
100090a6:	2e01      	cmp	r6, #1
100090a8:	d000      	beq.n	100090ac <sms_dualtimer1_fn+0x20>
100090aa:	e0b4      	b.n	10009216 <sms_dualtimer1_fn+0x18a>
100090ac:	e033      	b.n	10009116 <sms_dualtimer1_fn+0x8a>
100090ae:	2700      	movs	r7, #0
100090b0:	2201      	movs	r2, #1
100090b2:	4b5e      	ldr	r3, [pc, #376]	; (1000922c <sms_dualtimer1_fn+0x1a0>)
100090b4:	702f      	strb	r7, [r5, #0]
100090b6:	701a      	strb	r2, [r3, #0]
100090b8:	4b5d      	ldr	r3, [pc, #372]	; (10009230 <sms_dualtimer1_fn+0x1a4>)
100090ba:	77df      	strb	r7, [r3, #31]
100090bc:	4b5d      	ldr	r3, [pc, #372]	; (10009234 <sms_dualtimer1_fn+0x1a8>)
100090be:	4798      	blx	r3
100090c0:	9001      	str	r0, [sp, #4]
100090c2:	42b8      	cmp	r0, r7
100090c4:	d01c      	beq.n	10009100 <sms_dualtimer1_fn+0x74>
100090c6:	4b5a      	ldr	r3, [pc, #360]	; (10009230 <sms_dualtimer1_fn+0x1a4>)
100090c8:	4a59      	ldr	r2, [pc, #356]	; (10009230 <sms_dualtimer1_fn+0x1a4>)
100090ca:	7fdb      	ldrb	r3, [r3, #31]
100090cc:	3301      	adds	r3, #1
100090ce:	b2db      	uxtb	r3, r3
100090d0:	77d3      	strb	r3, [r2, #31]
100090d2:	7fd3      	ldrb	r3, [r2, #31]
100090d4:	2b03      	cmp	r3, #3
100090d6:	d90f      	bls.n	100090f8 <sms_dualtimer1_fn+0x6c>
100090d8:	2201      	movs	r2, #1
100090da:	4b54      	ldr	r3, [pc, #336]	; (1000922c <sms_dualtimer1_fn+0x1a0>)
100090dc:	0038      	movs	r0, r7
100090de:	3306      	adds	r3, #6
100090e0:	77df      	strb	r7, [r3, #31]
100090e2:	4b55      	ldr	r3, [pc, #340]	; (10009238 <sms_dualtimer1_fn+0x1ac>)
100090e4:	701a      	strb	r2, [r3, #0]
100090e6:	47a0      	blx	r4
100090e8:	4b54      	ldr	r3, [pc, #336]	; (1000923c <sms_dualtimer1_fn+0x1b0>)
100090ea:	781b      	ldrb	r3, [r3, #0]
100090ec:	42bb      	cmp	r3, r7
100090ee:	d000      	beq.n	100090f2 <sms_dualtimer1_fn+0x66>
100090f0:	e097      	b.n	10009222 <sms_dualtimer1_fn+0x196>
100090f2:	4b53      	ldr	r3, [pc, #332]	; (10009240 <sms_dualtimer1_fn+0x1b4>)
100090f4:	4798      	blx	r3
100090f6:	e094      	b.n	10009222 <sms_dualtimer1_fn+0x196>
100090f8:	702e      	strb	r6, [r5, #0]
100090fa:	003a      	movs	r2, r7
100090fc:	2103      	movs	r1, #3
100090fe:	e080      	b.n	10009202 <sms_dualtimer1_fn+0x176>
10009100:	2205      	movs	r2, #5
10009102:	4b4a      	ldr	r3, [pc, #296]	; (1000922c <sms_dualtimer1_fn+0x1a0>)
10009104:	9801      	ldr	r0, [sp, #4]
10009106:	3306      	adds	r3, #6
10009108:	77de      	strb	r6, [r3, #31]
1000910a:	4b4b      	ldr	r3, [pc, #300]	; (10009238 <sms_dualtimer1_fn+0x1ac>)
1000910c:	701a      	strb	r2, [r3, #0]
1000910e:	4b4d      	ldr	r3, [pc, #308]	; (10009244 <sms_dualtimer1_fn+0x1b8>)
10009110:	4798      	blx	r3
10009112:	9801      	ldr	r0, [sp, #4]
10009114:	e07f      	b.n	10009216 <sms_dualtimer1_fn+0x18a>
10009116:	2700      	movs	r7, #0
10009118:	4b4b      	ldr	r3, [pc, #300]	; (10009248 <sms_dualtimer1_fn+0x1bc>)
1000911a:	702f      	strb	r7, [r5, #0]
1000911c:	781b      	ldrb	r3, [r3, #0]
1000911e:	4a4b      	ldr	r2, [pc, #300]	; (1000924c <sms_dualtimer1_fn+0x1c0>)
10009120:	b2db      	uxtb	r3, r3
10009122:	7013      	strb	r3, [r2, #0]
10009124:	4b4a      	ldr	r3, [pc, #296]	; (10009250 <sms_dualtimer1_fn+0x1c4>)
10009126:	4798      	blx	r3
10009128:	4b47      	ldr	r3, [pc, #284]	; (10009248 <sms_dualtimer1_fn+0x1bc>)
1000912a:	7018      	strb	r0, [r3, #0]
1000912c:	4b49      	ldr	r3, [pc, #292]	; (10009254 <sms_dualtimer1_fn+0x1c8>)
1000912e:	484a      	ldr	r0, [pc, #296]	; (10009258 <sms_dualtimer1_fn+0x1cc>)
10009130:	4798      	blx	r3
10009132:	4b46      	ldr	r3, [pc, #280]	; (1000924c <sms_dualtimer1_fn+0x1c0>)
10009134:	781b      	ldrb	r3, [r3, #0]
10009136:	b2db      	uxtb	r3, r3
10009138:	9301      	str	r3, [sp, #4]
1000913a:	2b01      	cmp	r3, #1
1000913c:	d002      	beq.n	10009144 <sms_dualtimer1_fn+0xb8>
1000913e:	2b02      	cmp	r3, #2
10009140:	d008      	beq.n	10009154 <sms_dualtimer1_fn+0xc8>
10009142:	e038      	b.n	100091b6 <sms_dualtimer1_fn+0x12a>
10009144:	4b40      	ldr	r3, [pc, #256]	; (10009248 <sms_dualtimer1_fn+0x1bc>)
10009146:	781e      	ldrb	r6, [r3, #0]
10009148:	b2f6      	uxtb	r6, r6
1000914a:	2e01      	cmp	r6, #1
1000914c:	d00a      	beq.n	10009164 <sms_dualtimer1_fn+0xd8>
1000914e:	2e02      	cmp	r6, #2
10009150:	d021      	beq.n	10009196 <sms_dualtimer1_fn+0x10a>
10009152:	e030      	b.n	100091b6 <sms_dualtimer1_fn+0x12a>
10009154:	4b3c      	ldr	r3, [pc, #240]	; (10009248 <sms_dualtimer1_fn+0x1bc>)
10009156:	781b      	ldrb	r3, [r3, #0]
10009158:	b2db      	uxtb	r3, r3
1000915a:	9301      	str	r3, [sp, #4]
1000915c:	2b01      	cmp	r3, #1
1000915e:	d01a      	beq.n	10009196 <sms_dualtimer1_fn+0x10a>
10009160:	2b02      	cmp	r3, #2
10009162:	d128      	bne.n	100091b6 <sms_dualtimer1_fn+0x12a>
10009164:	4b3d      	ldr	r3, [pc, #244]	; (1000925c <sms_dualtimer1_fn+0x1d0>)
10009166:	781b      	ldrb	r3, [r3, #0]
10009168:	b2db      	uxtb	r3, r3
1000916a:	9301      	str	r3, [sp, #4]
1000916c:	2b00      	cmp	r3, #0
1000916e:	d122      	bne.n	100091b6 <sms_dualtimer1_fn+0x12a>
10009170:	4a3b      	ldr	r2, [pc, #236]	; (10009260 <sms_dualtimer1_fn+0x1d4>)
10009172:	7813      	ldrb	r3, [r2, #0]
10009174:	3301      	adds	r3, #1
10009176:	b2db      	uxtb	r3, r3
10009178:	7013      	strb	r3, [r2, #0]
1000917a:	2b0f      	cmp	r3, #15
1000917c:	d904      	bls.n	10009188 <sms_dualtimer1_fn+0xfc>
1000917e:	466b      	mov	r3, sp
10009180:	791b      	ldrb	r3, [r3, #4]
10009182:	702b      	strb	r3, [r5, #0]
10009184:	4b37      	ldr	r3, [pc, #220]	; (10009264 <sms_dualtimer1_fn+0x1d8>)
10009186:	e035      	b.n	100091f4 <sms_dualtimer1_fn+0x168>
10009188:	9801      	ldr	r0, [sp, #4]
1000918a:	47a0      	blx	r4
1000918c:	702e      	strb	r6, [r5, #0]
1000918e:	9a01      	ldr	r2, [sp, #4]
10009190:	21fa      	movs	r1, #250	; 0xfa
10009192:	0030      	movs	r0, r6
10009194:	e036      	b.n	10009204 <sms_dualtimer1_fn+0x178>
10009196:	4b31      	ldr	r3, [pc, #196]	; (1000925c <sms_dualtimer1_fn+0x1d0>)
10009198:	781e      	ldrb	r6, [r3, #0]
1000919a:	b2f6      	uxtb	r6, r6
1000919c:	2e00      	cmp	r6, #0
1000919e:	d10a      	bne.n	100091b6 <sms_dualtimer1_fn+0x12a>
100091a0:	4b2f      	ldr	r3, [pc, #188]	; (10009260 <sms_dualtimer1_fn+0x1d4>)
100091a2:	0030      	movs	r0, r6
100091a4:	701e      	strb	r6, [r3, #0]
100091a6:	47a0      	blx	r4
100091a8:	466b      	mov	r3, sp
100091aa:	791b      	ldrb	r3, [r3, #4]
100091ac:	0032      	movs	r2, r6
100091ae:	702b      	strb	r3, [r5, #0]
100091b0:	2164      	movs	r1, #100	; 0x64
100091b2:	9801      	ldr	r0, [sp, #4]
100091b4:	e026      	b.n	10009204 <sms_dualtimer1_fn+0x178>
100091b6:	0038      	movs	r0, r7
100091b8:	e02d      	b.n	10009216 <sms_dualtimer1_fn+0x18a>
100091ba:	2600      	movs	r6, #0
100091bc:	4f22      	ldr	r7, [pc, #136]	; (10009248 <sms_dualtimer1_fn+0x1bc>)
100091be:	702e      	strb	r6, [r5, #0]
100091c0:	783b      	ldrb	r3, [r7, #0]
100091c2:	4a22      	ldr	r2, [pc, #136]	; (1000924c <sms_dualtimer1_fn+0x1c0>)
100091c4:	b2db      	uxtb	r3, r3
100091c6:	7013      	strb	r3, [r2, #0]
100091c8:	4b21      	ldr	r3, [pc, #132]	; (10009250 <sms_dualtimer1_fn+0x1c4>)
100091ca:	4798      	blx	r3
100091cc:	4b21      	ldr	r3, [pc, #132]	; (10009254 <sms_dualtimer1_fn+0x1c8>)
100091ce:	7038      	strb	r0, [r7, #0]
100091d0:	4821      	ldr	r0, [pc, #132]	; (10009258 <sms_dualtimer1_fn+0x1cc>)
100091d2:	4798      	blx	r3
100091d4:	4b1d      	ldr	r3, [pc, #116]	; (1000924c <sms_dualtimer1_fn+0x1c0>)
100091d6:	781b      	ldrb	r3, [r3, #0]
100091d8:	2b03      	cmp	r3, #3
100091da:	d116      	bne.n	1000920a <sms_dualtimer1_fn+0x17e>
100091dc:	783f      	ldrb	r7, [r7, #0]
100091de:	b2ff      	uxtb	r7, r7
100091e0:	2f03      	cmp	r7, #3
100091e2:	d112      	bne.n	1000920a <sms_dualtimer1_fn+0x17e>
100091e4:	4a1e      	ldr	r2, [pc, #120]	; (10009260 <sms_dualtimer1_fn+0x1d4>)
100091e6:	7813      	ldrb	r3, [r2, #0]
100091e8:	3301      	adds	r3, #1
100091ea:	b2db      	uxtb	r3, r3
100091ec:	7013      	strb	r3, [r2, #0]
100091ee:	2b09      	cmp	r3, #9
100091f0:	d902      	bls.n	100091f8 <sms_dualtimer1_fn+0x16c>
100091f2:	4b1d      	ldr	r3, [pc, #116]	; (10009268 <sms_dualtimer1_fn+0x1dc>)
100091f4:	4798      	blx	r3
100091f6:	e014      	b.n	10009222 <sms_dualtimer1_fn+0x196>
100091f8:	0030      	movs	r0, r6
100091fa:	47a0      	blx	r4
100091fc:	0032      	movs	r2, r6
100091fe:	21fa      	movs	r1, #250	; 0xfa
10009200:	702f      	strb	r7, [r5, #0]
10009202:	2001      	movs	r0, #1
10009204:	4b19      	ldr	r3, [pc, #100]	; (1000926c <sms_dualtimer1_fn+0x1e0>)
10009206:	4798      	blx	r3
10009208:	e00b      	b.n	10009222 <sms_dualtimer1_fn+0x196>
1000920a:	2000      	movs	r0, #0
1000920c:	4b06      	ldr	r3, [pc, #24]	; (10009228 <sms_dualtimer1_fn+0x19c>)
1000920e:	7018      	strb	r0, [r3, #0]
10009210:	4b04      	ldr	r3, [pc, #16]	; (10009224 <sms_dualtimer1_fn+0x198>)
10009212:	4798      	blx	r3
10009214:	e000      	b.n	10009218 <sms_dualtimer1_fn+0x18c>
10009216:	47a0      	blx	r4
10009218:	4b08      	ldr	r3, [pc, #32]	; (1000923c <sms_dualtimer1_fn+0x1b0>)
1000921a:	781b      	ldrb	r3, [r3, #0]
1000921c:	2b00      	cmp	r3, #0
1000921e:	d100      	bne.n	10009222 <sms_dualtimer1_fn+0x196>
10009220:	e767      	b.n	100090f2 <sms_dualtimer1_fn+0x66>
10009222:	bdf7      	pop	{r0, r1, r2, r4, r5, r6, r7, pc}
10009224:	100086f9 	.word	0x100086f9
10009228:	100139c4 	.word	0x100139c4
1000922c:	10013a44 	.word	0x10013a44
10009230:	10013a4b 	.word	0x10013a4b
10009234:	10008bdd 	.word	0x10008bdd
10009238:	100139cb 	.word	0x100139cb
1000923c:	10013a73 	.word	0x10013a73
10009240:	1000bfd9 	.word	0x1000bfd9
10009244:	1000c2b1 	.word	0x1000c2b1
10009248:	100139ca 	.word	0x100139ca
1000924c:	10013a80 	.word	0x10013a80
10009250:	100086cd 	.word	0x100086cd
10009254:	1000c245 	.word	0x1000c245
10009258:	10011c70 	.word	0x10011c70
1000925c:	10013a72 	.word	0x10013a72
10009260:	10013ade 	.word	0x10013ade
10009264:	100082cd 	.word	0x100082cd
10009268:	100082f1 	.word	0x100082f1
1000926c:	10008ffd 	.word	0x10008ffd

10009270 <sms_dualtimer2_fn>:
10009270:	b570      	push	{r4, r5, r6, lr}
10009272:	2001      	movs	r0, #1
10009274:	4d36      	ldr	r5, [pc, #216]	; (10009350 <sms_dualtimer2_fn+0xe0>)
10009276:	47a8      	blx	r5
10009278:	4c36      	ldr	r4, [pc, #216]	; (10009354 <sms_dualtimer2_fn+0xe4>)
1000927a:	7820      	ldrb	r0, [r4, #0]
1000927c:	3801      	subs	r0, #1
1000927e:	2804      	cmp	r0, #4
10009280:	d865      	bhi.n	1000934e <sms_dualtimer2_fn+0xde>
10009282:	f006 fb7f 	bl	1000f984 <__gnu_thumb1_case_uqi>
10009286:	2b03      	.short	0x2b03
10009288:	6243      	.short	0x6243
1000928a:	62          	.byte	0x62
1000928b:	00          	.byte	0x00
1000928c:	2600      	movs	r6, #0
1000928e:	4b32      	ldr	r3, [pc, #200]	; (10009358 <sms_dualtimer2_fn+0xe8>)
10009290:	4832      	ldr	r0, [pc, #200]	; (1000935c <sms_dualtimer2_fn+0xec>)
10009292:	4798      	blx	r3
10009294:	4a32      	ldr	r2, [pc, #200]	; (10009360 <sms_dualtimer2_fn+0xf0>)
10009296:	7026      	strb	r6, [r4, #0]
10009298:	7813      	ldrb	r3, [r2, #0]
1000929a:	2b22      	cmp	r3, #34	; 0x22
1000929c:	d106      	bne.n	100092ac <sms_dualtimer2_fn+0x3c>
1000929e:	0030      	movs	r0, r6
100092a0:	47a8      	blx	r5
100092a2:	4b30      	ldr	r3, [pc, #192]	; (10009364 <sms_dualtimer2_fn+0xf4>)
100092a4:	781b      	ldrb	r3, [r3, #0]
100092a6:	42b3      	cmp	r3, r6
100092a8:	d151      	bne.n	1000934e <sms_dualtimer2_fn+0xde>
100092aa:	e040      	b.n	1000932e <sms_dualtimer2_fn+0xbe>
100092ac:	492e      	ldr	r1, [pc, #184]	; (10009368 <sms_dualtimer2_fn+0xf8>)
100092ae:	780b      	ldrb	r3, [r1, #0]
100092b0:	3301      	adds	r3, #1
100092b2:	b2db      	uxtb	r3, r3
100092b4:	700b      	strb	r3, [r1, #0]
100092b6:	2b02      	cmp	r3, #2
100092b8:	d908      	bls.n	100092cc <sms_dualtimer2_fn+0x5c>
100092ba:	2322      	movs	r3, #34	; 0x22
100092bc:	0030      	movs	r0, r6
100092be:	7026      	strb	r6, [r4, #0]
100092c0:	7013      	strb	r3, [r2, #0]
100092c2:	47a8      	blx	r5
100092c4:	0030      	movs	r0, r6
100092c6:	4b29      	ldr	r3, [pc, #164]	; (1000936c <sms_dualtimer2_fn+0xfc>)
100092c8:	4798      	blx	r3
100092ca:	e040      	b.n	1000934e <sms_dualtimer2_fn+0xde>
100092cc:	2001      	movs	r0, #1
100092ce:	2164      	movs	r1, #100	; 0x64
100092d0:	0002      	movs	r2, r0
100092d2:	4b27      	ldr	r3, [pc, #156]	; (10009370 <sms_dualtimer2_fn+0x100>)
100092d4:	7020      	strb	r0, [r4, #0]
100092d6:	4798      	blx	r3
100092d8:	0030      	movs	r0, r6
100092da:	e037      	b.n	1000934c <sms_dualtimer2_fn+0xdc>
100092dc:	2600      	movs	r6, #0
100092de:	4a25      	ldr	r2, [pc, #148]	; (10009374 <sms_dualtimer2_fn+0x104>)
100092e0:	7026      	strb	r6, [r4, #0]
100092e2:	7813      	ldrb	r3, [r2, #0]
100092e4:	2016      	movs	r0, #22
100092e6:	3301      	adds	r3, #1
100092e8:	b2db      	uxtb	r3, r3
100092ea:	7013      	strb	r3, [r2, #0]
100092ec:	7813      	ldrb	r3, [r2, #0]
100092ee:	2b07      	cmp	r3, #7
100092f0:	d905      	bls.n	100092fe <sms_dualtimer2_fn+0x8e>
100092f2:	4b21      	ldr	r3, [pc, #132]	; (10009378 <sms_dualtimer2_fn+0x108>)
100092f4:	4798      	blx	r3
100092f6:	0030      	movs	r0, r6
100092f8:	47a8      	blx	r5
100092fa:	4b20      	ldr	r3, [pc, #128]	; (1000937c <sms_dualtimer2_fn+0x10c>)
100092fc:	e018      	b.n	10009330 <sms_dualtimer2_fn+0xc0>
100092fe:	4b20      	ldr	r3, [pc, #128]	; (10009380 <sms_dualtimer2_fn+0x110>)
10009300:	4798      	blx	r3
10009302:	2302      	movs	r3, #2
10009304:	2201      	movs	r2, #1
10009306:	7023      	strb	r3, [r4, #0]
10009308:	2164      	movs	r1, #100	; 0x64
1000930a:	e01a      	b.n	10009342 <sms_dualtimer2_fn+0xd2>
1000930c:	2600      	movs	r6, #0
1000930e:	4a19      	ldr	r2, [pc, #100]	; (10009374 <sms_dualtimer2_fn+0x104>)
10009310:	7026      	strb	r6, [r4, #0]
10009312:	7813      	ldrb	r3, [r2, #0]
10009314:	2016      	movs	r0, #22
10009316:	3301      	adds	r3, #1
10009318:	b2db      	uxtb	r3, r3
1000931a:	7013      	strb	r3, [r2, #0]
1000931c:	7813      	ldrb	r3, [r2, #0]
1000931e:	2b03      	cmp	r3, #3
10009320:	d908      	bls.n	10009334 <sms_dualtimer2_fn+0xc4>
10009322:	4b15      	ldr	r3, [pc, #84]	; (10009378 <sms_dualtimer2_fn+0x108>)
10009324:	4798      	blx	r3
10009326:	0030      	movs	r0, r6
10009328:	47a8      	blx	r5
1000932a:	4b16      	ldr	r3, [pc, #88]	; (10009384 <sms_dualtimer2_fn+0x114>)
1000932c:	4798      	blx	r3
1000932e:	4b16      	ldr	r3, [pc, #88]	; (10009388 <sms_dualtimer2_fn+0x118>)
10009330:	4798      	blx	r3
10009332:	e00c      	b.n	1000934e <sms_dualtimer2_fn+0xde>
10009334:	4b12      	ldr	r3, [pc, #72]	; (10009380 <sms_dualtimer2_fn+0x110>)
10009336:	4798      	blx	r3
10009338:	2303      	movs	r3, #3
1000933a:	21c8      	movs	r1, #200	; 0xc8
1000933c:	2201      	movs	r2, #1
1000933e:	7023      	strb	r3, [r4, #0]
10009340:	0049      	lsls	r1, r1, #1
10009342:	0010      	movs	r0, r2
10009344:	4b0a      	ldr	r3, [pc, #40]	; (10009370 <sms_dualtimer2_fn+0x100>)
10009346:	4798      	blx	r3
10009348:	e001      	b.n	1000934e <sms_dualtimer2_fn+0xde>
1000934a:	2000      	movs	r0, #0
1000934c:	47a8      	blx	r5
1000934e:	bd70      	pop	{r4, r5, r6, pc}
10009350:	100086f9 	.word	0x100086f9
10009354:	10013a73 	.word	0x10013a73
10009358:	1000c245 	.word	0x1000c245
1000935c:	10011c84 	.word	0x10011c84
10009360:	10013a72 	.word	0x10013a72
10009364:	100139c4 	.word	0x100139c4
10009368:	10013a6e 	.word	0x10013a6e
1000936c:	1000c2b1 	.word	0x1000c2b1
10009370:	10008ffd 	.word	0x10008ffd
10009374:	10013adf 	.word	0x10013adf
10009378:	100089c1 	.word	0x100089c1
1000937c:	10008405 	.word	0x10008405
10009380:	100089fd 	.word	0x100089fd
10009384:	1000c181 	.word	0x1000c181
10009388:	1000bfd9 	.word	0x1000bfd9

1000938c <spi_slave_inst_get_config_defaults>:
1000938c:	230c      	movs	r3, #12
1000938e:	7003      	strb	r3, [r0, #0]
10009390:	2300      	movs	r3, #0
10009392:	7043      	strb	r3, [r0, #1]
10009394:	7083      	strb	r3, [r0, #2]
10009396:	4770      	bx	lr

10009398 <spi_get_config_defaults>:
10009398:	2301      	movs	r3, #1
1000939a:	7003      	strb	r3, [r0, #0]
1000939c:	2300      	movs	r3, #0
1000939e:	7043      	strb	r3, [r0, #1]
100093a0:	7083      	strb	r3, [r0, #2]
100093a2:	70c3      	strb	r3, [r0, #3]
100093a4:	3381      	adds	r3, #129	; 0x81
100093a6:	7103      	strb	r3, [r0, #4]
100093a8:	3b77      	subs	r3, #119	; 0x77
100093aa:	6083      	str	r3, [r0, #8]
100093ac:	3301      	adds	r3, #1
100093ae:	60c3      	str	r3, [r0, #12]
100093b0:	3301      	adds	r3, #1
100093b2:	6103      	str	r3, [r0, #16]
100093b4:	3301      	adds	r3, #1
100093b6:	6143      	str	r3, [r0, #20]
100093b8:	3b0b      	subs	r3, #11
100093ba:	6183      	str	r3, [r0, #24]
100093bc:	61c3      	str	r3, [r0, #28]
100093be:	6203      	str	r3, [r0, #32]
100093c0:	6243      	str	r3, [r0, #36]	; 0x24
100093c2:	4770      	bx	lr

100093c4 <spi_attach_slave>:
100093c4:	b573      	push	{r0, r1, r4, r5, r6, lr}
100093c6:	0004      	movs	r4, r0
100093c8:	2601      	movs	r6, #1
100093ca:	780b      	ldrb	r3, [r1, #0]
100093cc:	ad01      	add	r5, sp, #4
100093ce:	7003      	strb	r3, [r0, #0]
100093d0:	784b      	ldrb	r3, [r1, #1]
100093d2:	7043      	strb	r3, [r0, #1]
100093d4:	788b      	ldrb	r3, [r1, #2]
100093d6:	7083      	strb	r3, [r0, #2]
100093d8:	0028      	movs	r0, r5
100093da:	4b06      	ldr	r3, [pc, #24]	; (100093f4 <spi_attach_slave+0x30>)
100093dc:	4798      	blx	r3
100093de:	0029      	movs	r1, r5
100093e0:	7820      	ldrb	r0, [r4, #0]
100093e2:	4b05      	ldr	r3, [pc, #20]	; (100093f8 <spi_attach_slave+0x34>)
100093e4:	702e      	strb	r6, [r5, #0]
100093e6:	4798      	blx	r3
100093e8:	0031      	movs	r1, r6
100093ea:	7820      	ldrb	r0, [r4, #0]
100093ec:	4b03      	ldr	r3, [pc, #12]	; (100093fc <spi_attach_slave+0x38>)
100093ee:	4798      	blx	r3
100093f0:	bd73      	pop	{r0, r1, r4, r5, r6, pc}
100093f2:	46c0      	nop			; (mov r8, r8)
100093f4:	10009981 	.word	0x10009981
100093f8:	10009991 	.word	0x10009991
100093fc:	10009b8d 	.word	0x10009b8d

10009400 <spi_enable>:
10009400:	2201      	movs	r2, #1
10009402:	6803      	ldr	r3, [r0, #0]
10009404:	761a      	strb	r2, [r3, #24]
10009406:	4770      	bx	lr

10009408 <spi_disable>:
10009408:	2300      	movs	r3, #0
1000940a:	b510      	push	{r4, lr}
1000940c:	6802      	ldr	r2, [r0, #0]
1000940e:	7613      	strb	r3, [r2, #24]
10009410:	6803      	ldr	r3, [r0, #0]
10009412:	4a0c      	ldr	r2, [pc, #48]	; (10009444 <spi_disable+0x3c>)
10009414:	4293      	cmp	r3, r2
10009416:	d108      	bne.n	1000942a <spi_disable+0x22>
10009418:	4c0b      	ldr	r4, [pc, #44]	; (10009448 <spi_disable+0x40>)
1000941a:	2041      	movs	r0, #65	; 0x41
1000941c:	47a0      	blx	r4
1000941e:	2026      	movs	r0, #38	; 0x26
10009420:	47a0      	blx	r4
10009422:	2038      	movs	r0, #56	; 0x38
10009424:	47a0      	blx	r4
10009426:	2001      	movs	r0, #1
10009428:	e00a      	b.n	10009440 <spi_disable+0x38>
1000942a:	4a08      	ldr	r2, [pc, #32]	; (1000944c <spi_disable+0x44>)
1000942c:	4293      	cmp	r3, r2
1000942e:	d108      	bne.n	10009442 <spi_disable+0x3a>
10009430:	4c05      	ldr	r4, [pc, #20]	; (10009448 <spi_disable+0x40>)
10009432:	2042      	movs	r0, #66	; 0x42
10009434:	47a0      	blx	r4
10009436:	2027      	movs	r0, #39	; 0x27
10009438:	47a0      	blx	r4
1000943a:	2039      	movs	r0, #57	; 0x39
1000943c:	47a0      	blx	r4
1000943e:	2002      	movs	r0, #2
10009440:	47a0      	blx	r4
10009442:	bd10      	pop	{r4, pc}
10009444:	40006000 	.word	0x40006000
10009448:	1000a0a5 	.word	0x1000a0a5
1000944c:	40007000 	.word	0x40007000

10009450 <spi_reset>:
10009450:	b510      	push	{r4, lr}
10009452:	4b0a      	ldr	r3, [pc, #40]	; (1000947c <spi_reset+0x2c>)
10009454:	6804      	ldr	r4, [r0, #0]
10009456:	4798      	blx	r3
10009458:	4b09      	ldr	r3, [pc, #36]	; (10009480 <spi_reset+0x30>)
1000945a:	429c      	cmp	r4, r3
1000945c:	d104      	bne.n	10009468 <spi_reset+0x18>
1000945e:	2001      	movs	r0, #1
10009460:	4c08      	ldr	r4, [pc, #32]	; (10009484 <spi_reset+0x34>)
10009462:	47a0      	blx	r4
10009464:	2038      	movs	r0, #56	; 0x38
10009466:	e006      	b.n	10009476 <spi_reset+0x26>
10009468:	4b07      	ldr	r3, [pc, #28]	; (10009488 <spi_reset+0x38>)
1000946a:	429c      	cmp	r4, r3
1000946c:	d104      	bne.n	10009478 <spi_reset+0x28>
1000946e:	2002      	movs	r0, #2
10009470:	4c04      	ldr	r4, [pc, #16]	; (10009484 <spi_reset+0x34>)
10009472:	47a0      	blx	r4
10009474:	2039      	movs	r0, #57	; 0x39
10009476:	47a0      	blx	r4
10009478:	bd10      	pop	{r4, pc}
1000947a:	46c0      	nop			; (mov r8, r8)
1000947c:	10009409 	.word	0x10009409
10009480:	40006000 	.word	0x40006000
10009484:	1000a2a5 	.word	0x1000a2a5
10009488:	40007000 	.word	0x40007000

1000948c <spi_init>:
1000948c:	b5f0      	push	{r4, r5, r6, r7, lr}
1000948e:	0006      	movs	r6, r0
10009490:	6031      	str	r1, [r6, #0]
10009492:	7e0b      	ldrb	r3, [r1, #24]
10009494:	b085      	sub	sp, #20
10009496:	000f      	movs	r7, r1
10009498:	0014      	movs	r4, r2
1000949a:	07db      	lsls	r3, r3, #31
1000949c:	d501      	bpl.n	100094a2 <spi_init+0x16>
1000949e:	2300      	movs	r3, #0
100094a0:	760b      	strb	r3, [r1, #24]
100094a2:	4b3a      	ldr	r3, [pc, #232]	; (1000958c <spi_init+0x100>)
100094a4:	0030      	movs	r0, r6
100094a6:	4798      	blx	r3
100094a8:	6833      	ldr	r3, [r6, #0]
100094aa:	4a39      	ldr	r2, [pc, #228]	; (10009590 <spi_init+0x104>)
100094ac:	4293      	cmp	r3, r2
100094ae:	d108      	bne.n	100094c2 <spi_init+0x36>
100094b0:	4d38      	ldr	r5, [pc, #224]	; (10009594 <spi_init+0x108>)
100094b2:	2041      	movs	r0, #65	; 0x41
100094b4:	47a8      	blx	r5
100094b6:	2026      	movs	r0, #38	; 0x26
100094b8:	47a8      	blx	r5
100094ba:	2038      	movs	r0, #56	; 0x38
100094bc:	47a8      	blx	r5
100094be:	2001      	movs	r0, #1
100094c0:	e00a      	b.n	100094d8 <spi_init+0x4c>
100094c2:	4a35      	ldr	r2, [pc, #212]	; (10009598 <spi_init+0x10c>)
100094c4:	4293      	cmp	r3, r2
100094c6:	d108      	bne.n	100094da <spi_init+0x4e>
100094c8:	4d32      	ldr	r5, [pc, #200]	; (10009594 <spi_init+0x108>)
100094ca:	2042      	movs	r0, #66	; 0x42
100094cc:	47a8      	blx	r5
100094ce:	2027      	movs	r0, #39	; 0x27
100094d0:	47a8      	blx	r5
100094d2:	2039      	movs	r0, #57	; 0x39
100094d4:	47a8      	blx	r5
100094d6:	2002      	movs	r0, #2
100094d8:	47a8      	blx	r5
100094da:	4b30      	ldr	r3, [pc, #192]	; (1000959c <spi_init+0x110>)
100094dc:	a803      	add	r0, sp, #12
100094de:	4798      	blx	r3
100094e0:	0023      	movs	r3, r4
100094e2:	0025      	movs	r5, r4
100094e4:	3318      	adds	r3, #24
100094e6:	3508      	adds	r5, #8
100094e8:	9301      	str	r3, [sp, #4]
100094ea:	6828      	ldr	r0, [r5, #0]
100094ec:	1c43      	adds	r3, r0, #1
100094ee:	d00e      	beq.n	1000950e <spi_init+0x82>
100094f0:	7823      	ldrb	r3, [r4, #0]
100094f2:	2b01      	cmp	r3, #1
100094f4:	d001      	beq.n	100094fa <spi_init+0x6e>
100094f6:	2b00      	cmp	r3, #0
100094f8:	d101      	bne.n	100094fe <spi_init+0x72>
100094fa:	aa02      	add	r2, sp, #8
100094fc:	7113      	strb	r3, [r2, #4]
100094fe:	a903      	add	r1, sp, #12
10009500:	4b27      	ldr	r3, [pc, #156]	; (100095a0 <spi_init+0x114>)
10009502:	b2c0      	uxtb	r0, r0
10009504:	4798      	blx	r3
10009506:	8a29      	ldrh	r1, [r5, #16]
10009508:	7828      	ldrb	r0, [r5, #0]
1000950a:	4b26      	ldr	r3, [pc, #152]	; (100095a4 <spi_init+0x118>)
1000950c:	4798      	blx	r3
1000950e:	9b01      	ldr	r3, [sp, #4]
10009510:	3504      	adds	r5, #4
10009512:	429d      	cmp	r5, r3
10009514:	d1e9      	bne.n	100094ea <spi_init+0x5e>
10009516:	78e3      	ldrb	r3, [r4, #3]
10009518:	743b      	strb	r3, [r7, #16]
1000951a:	7823      	ldrb	r3, [r4, #0]
1000951c:	2b01      	cmp	r3, #1
1000951e:	d100      	bne.n	10009522 <spi_init+0x96>
10009520:	773b      	strb	r3, [r7, #28]
10009522:	7823      	ldrb	r3, [r4, #0]
10009524:	2b00      	cmp	r3, #0
10009526:	d100      	bne.n	1000952a <spi_init+0x9e>
10009528:	773b      	strb	r3, [r7, #28]
1000952a:	7822      	ldrb	r2, [r4, #0]
1000952c:	6833      	ldr	r3, [r6, #0]
1000952e:	7172      	strb	r2, [r6, #5]
10009530:	7822      	ldrb	r2, [r4, #0]
10009532:	2a01      	cmp	r2, #1
10009534:	d101      	bne.n	1000953a <spi_init+0xae>
10009536:	7922      	ldrb	r2, [r4, #4]
10009538:	829a      	strh	r2, [r3, #20]
1000953a:	7861      	ldrb	r1, [r4, #1]
1000953c:	3305      	adds	r3, #5
1000953e:	7fda      	ldrb	r2, [r3, #31]
10009540:	2904      	cmp	r1, #4
10009542:	d101      	bne.n	10009548 <spi_init+0xbc>
10009544:	430a      	orrs	r2, r1
10009546:	e001      	b.n	1000954c <spi_init+0xc0>
10009548:	2104      	movs	r1, #4
1000954a:	438a      	bics	r2, r1
1000954c:	77da      	strb	r2, [r3, #31]
1000954e:	78a0      	ldrb	r0, [r4, #2]
10009550:	2803      	cmp	r0, #3
10009552:	d817      	bhi.n	10009584 <spi_init+0xf8>
10009554:	2202      	movs	r2, #2
10009556:	7fd9      	ldrb	r1, [r3, #31]
10009558:	f006 fa14 	bl	1000f984 <__gnu_thumb1_case_uqi>
1000955c:	0e050b02 	.word	0x0e050b02
10009560:	4391      	bics	r1, r2
10009562:	000a      	movs	r2, r1
10009564:	e000      	b.n	10009568 <spi_init+0xdc>
10009566:	430a      	orrs	r2, r1
10009568:	2101      	movs	r1, #1
1000956a:	77da      	strb	r2, [r3, #31]
1000956c:	7fda      	ldrb	r2, [r3, #31]
1000956e:	438a      	bics	r2, r1
10009570:	e007      	b.n	10009582 <spi_init+0xf6>
10009572:	4391      	bics	r1, r2
10009574:	000a      	movs	r2, r1
10009576:	e000      	b.n	1000957a <spi_init+0xee>
10009578:	430a      	orrs	r2, r1
1000957a:	2101      	movs	r1, #1
1000957c:	77da      	strb	r2, [r3, #31]
1000957e:	7fda      	ldrb	r2, [r3, #31]
10009580:	430a      	orrs	r2, r1
10009582:	77da      	strb	r2, [r3, #31]
10009584:	2000      	movs	r0, #0
10009586:	b005      	add	sp, #20
10009588:	bdf0      	pop	{r4, r5, r6, r7, pc}
1000958a:	46c0      	nop			; (mov r8, r8)
1000958c:	10009451 	.word	0x10009451
10009590:	40006000 	.word	0x40006000
10009594:	10009ebd 	.word	0x10009ebd
10009598:	40007000 	.word	0x40007000
1000959c:	10009981 	.word	0x10009981
100095a0:	10009991 	.word	0x10009991
100095a4:	10009bd9 	.word	0x10009bd9

100095a8 <spi_transceive_buffer_wait>:
100095a8:	b5f7      	push	{r0, r1, r2, r4, r5, r6, r7, lr}
100095aa:	466d      	mov	r5, sp
100095ac:	1def      	adds	r7, r5, #7
100095ae:	2500      	movs	r5, #0
100095b0:	6804      	ldr	r4, [r0, #0]
100095b2:	703d      	strb	r5, [r7, #0]
100095b4:	261f      	movs	r6, #31
100095b6:	42ac      	cmp	r4, r5
100095b8:	d034      	beq.n	10009624 <spi_transceive_buffer_wait+0x7c>
100095ba:	42a9      	cmp	r1, r5
100095bc:	d105      	bne.n	100095ca <spi_transceive_buffer_wait+0x22>
100095be:	7980      	ldrb	r0, [r0, #6]
100095c0:	000d      	movs	r5, r1
100095c2:	7038      	strb	r0, [r7, #0]
100095c4:	3e1e      	subs	r6, #30
100095c6:	0039      	movs	r1, r7
100095c8:	e009      	b.n	100095de <spi_transceive_buffer_wait+0x36>
100095ca:	2a00      	cmp	r2, #0
100095cc:	d004      	beq.n	100095d8 <spi_transceive_buffer_wait+0x30>
100095ce:	2617      	movs	r6, #23
100095d0:	2b00      	cmp	r3, #0
100095d2:	d027      	beq.n	10009624 <spi_transceive_buffer_wait+0x7c>
100095d4:	002e      	movs	r6, r5
100095d6:	e002      	b.n	100095de <spi_transceive_buffer_wait+0x36>
100095d8:	0016      	movs	r6, r2
100095da:	2501      	movs	r5, #1
100095dc:	003a      	movs	r2, r7
100095de:	0020      	movs	r0, r4
100095e0:	3028      	adds	r0, #40	; 0x28
100095e2:	7800      	ldrb	r0, [r0, #0]
100095e4:	07c0      	lsls	r0, r0, #31
100095e6:	0fc0      	lsrs	r0, r0, #31
100095e8:	b2c0      	uxtb	r0, r0
100095ea:	2800      	cmp	r0, #0
100095ec:	d1f7      	bne.n	100095de <spi_transceive_buffer_wait+0x36>
100095ee:	7b27      	ldrb	r7, [r4, #12]
100095f0:	7a27      	ldrb	r7, [r4, #8]
100095f2:	4277      	negs	r7, r6
100095f4:	417e      	adcs	r6, r7
100095f6:	426f      	negs	r7, r5
100095f8:	417d      	adcs	r5, r7
100095fa:	4298      	cmp	r0, r3
100095fc:	d00e      	beq.n	1000961c <spi_transceive_buffer_wait+0x74>
100095fe:	7a27      	ldrb	r7, [r4, #8]
10009600:	07ff      	lsls	r7, r7, #31
10009602:	d5fc      	bpl.n	100095fe <spi_transceive_buffer_wait+0x56>
10009604:	780f      	ldrb	r7, [r1, #0]
10009606:	7027      	strb	r7, [r4, #0]
10009608:	7b27      	ldrb	r7, [r4, #12]
1000960a:	07ff      	lsls	r7, r7, #31
1000960c:	d5fc      	bpl.n	10009608 <spi_transceive_buffer_wait+0x60>
1000960e:	7927      	ldrb	r7, [r4, #4]
10009610:	3001      	adds	r0, #1
10009612:	7017      	strb	r7, [r2, #0]
10009614:	b280      	uxth	r0, r0
10009616:	1989      	adds	r1, r1, r6
10009618:	1952      	adds	r2, r2, r5
1000961a:	e7ee      	b.n	100095fa <spi_transceive_buffer_wait+0x52>
1000961c:	7a23      	ldrb	r3, [r4, #8]
1000961e:	06db      	lsls	r3, r3, #27
10009620:	d5fc      	bpl.n	1000961c <spi_transceive_buffer_wait+0x74>
10009622:	2600      	movs	r6, #0
10009624:	0030      	movs	r0, r6
10009626:	bdfe      	pop	{r1, r2, r3, r4, r5, r6, r7, pc}

10009628 <spi_select_slave>:
10009628:	b510      	push	{r4, lr}
1000962a:	4b04      	ldr	r3, [pc, #16]	; (1000963c <spi_select_slave+0x14>)
1000962c:	7808      	ldrb	r0, [r1, #0]
1000962e:	2100      	movs	r1, #0
10009630:	2a00      	cmp	r2, #0
10009632:	d100      	bne.n	10009636 <spi_select_slave+0xe>
10009634:	2101      	movs	r1, #1
10009636:	4798      	blx	r3
10009638:	2000      	movs	r0, #0
1000963a:	bd10      	pop	{r4, pc}
1000963c:	10009b8d 	.word	0x10009b8d

10009640 <dualtimer_isr_handler>:
10009640:	b510      	push	{r4, lr}
10009642:	4b0c      	ldr	r3, [pc, #48]	; (10009674 <dualtimer_isr_handler+0x34>)
10009644:	7d1a      	ldrb	r2, [r3, #20]
10009646:	2a00      	cmp	r2, #0
10009648:	d006      	beq.n	10009658 <dualtimer_isr_handler+0x18>
1000964a:	2201      	movs	r2, #1
1000964c:	731a      	strb	r2, [r3, #12]
1000964e:	4b0a      	ldr	r3, [pc, #40]	; (10009678 <dualtimer_isr_handler+0x38>)
10009650:	681b      	ldr	r3, [r3, #0]
10009652:	2b00      	cmp	r3, #0
10009654:	d000      	beq.n	10009658 <dualtimer_isr_handler+0x18>
10009656:	4798      	blx	r3
10009658:	4b08      	ldr	r3, [pc, #32]	; (1000967c <dualtimer_isr_handler+0x3c>)
1000965a:	781b      	ldrb	r3, [r3, #0]
1000965c:	2b00      	cmp	r3, #0
1000965e:	d007      	beq.n	10009670 <dualtimer_isr_handler+0x30>
10009660:	2201      	movs	r2, #1
10009662:	4b07      	ldr	r3, [pc, #28]	; (10009680 <dualtimer_isr_handler+0x40>)
10009664:	701a      	strb	r2, [r3, #0]
10009666:	4b07      	ldr	r3, [pc, #28]	; (10009684 <dualtimer_isr_handler+0x44>)
10009668:	681b      	ldr	r3, [r3, #0]
1000966a:	2b00      	cmp	r3, #0
1000966c:	d000      	beq.n	10009670 <dualtimer_isr_handler+0x30>
1000966e:	4798      	blx	r3
10009670:	bd10      	pop	{r4, pc}
10009672:	46c0      	nop			; (mov r8, r8)
10009674:	40001000 	.word	0x40001000
10009678:	10011f24 	.word	0x10011f24
1000967c:	40001034 	.word	0x40001034
10009680:	4000102c 	.word	0x4000102c
10009684:	10011f28 	.word	0x10011f28

10009688 <dualtimer_get_config_defaults>:
10009688:	2202      	movs	r2, #2
1000968a:	2301      	movs	r3, #1
1000968c:	7042      	strb	r2, [r0, #1]
1000968e:	7342      	strb	r2, [r0, #13]
10009690:	2200      	movs	r2, #0
10009692:	7003      	strb	r3, [r0, #0]
10009694:	7303      	strb	r3, [r0, #12]
10009696:	7083      	strb	r3, [r0, #2]
10009698:	7383      	strb	r3, [r0, #14]
1000969a:	70c2      	strb	r2, [r0, #3]
1000969c:	73c2      	strb	r2, [r0, #15]
1000969e:	7103      	strb	r3, [r0, #4]
100096a0:	7403      	strb	r3, [r0, #16]
100096a2:	6082      	str	r2, [r0, #8]
100096a4:	6142      	str	r2, [r0, #20]
100096a6:	7602      	strb	r2, [r0, #24]
100096a8:	4770      	bx	lr
	...

100096ac <dualtimer_set_counter>:
100096ac:	4b07      	ldr	r3, [pc, #28]	; (100096cc <dualtimer_set_counter+0x20>)
100096ae:	2800      	cmp	r0, #0
100096b0:	d105      	bne.n	100096be <dualtimer_set_counter+0x12>
100096b2:	2900      	cmp	r1, #0
100096b4:	d101      	bne.n	100096ba <dualtimer_set_counter+0xe>
100096b6:	601a      	str	r2, [r3, #0]
100096b8:	e006      	b.n	100096c8 <dualtimer_set_counter+0x1c>
100096ba:	619a      	str	r2, [r3, #24]
100096bc:	e004      	b.n	100096c8 <dualtimer_set_counter+0x1c>
100096be:	2900      	cmp	r1, #0
100096c0:	d101      	bne.n	100096c6 <dualtimer_set_counter+0x1a>
100096c2:	621a      	str	r2, [r3, #32]
100096c4:	e000      	b.n	100096c8 <dualtimer_set_counter+0x1c>
100096c6:	639a      	str	r2, [r3, #56]	; 0x38
100096c8:	4770      	bx	lr
100096ca:	46c0      	nop			; (mov r8, r8)
100096cc:	40001000 	.word	0x40001000

100096d0 <dualtimer_enable>:
100096d0:	2380      	movs	r3, #128	; 0x80
100096d2:	425b      	negs	r3, r3
100096d4:	2800      	cmp	r0, #0
100096d6:	d105      	bne.n	100096e4 <dualtimer_enable+0x14>
100096d8:	4905      	ldr	r1, [pc, #20]	; (100096f0 <dualtimer_enable+0x20>)
100096da:	7a0a      	ldrb	r2, [r1, #8]
100096dc:	4313      	orrs	r3, r2
100096de:	b2db      	uxtb	r3, r3
100096e0:	720b      	strb	r3, [r1, #8]
100096e2:	e004      	b.n	100096ee <dualtimer_enable+0x1e>
100096e4:	4903      	ldr	r1, [pc, #12]	; (100096f4 <dualtimer_enable+0x24>)
100096e6:	780a      	ldrb	r2, [r1, #0]
100096e8:	4313      	orrs	r3, r2
100096ea:	b2db      	uxtb	r3, r3
100096ec:	700b      	strb	r3, [r1, #0]
100096ee:	4770      	bx	lr
100096f0:	40001000 	.word	0x40001000
100096f4:	40001028 	.word	0x40001028

100096f8 <dualtimer_disable>:
100096f8:	237f      	movs	r3, #127	; 0x7f
100096fa:	2800      	cmp	r0, #0
100096fc:	d104      	bne.n	10009708 <dualtimer_disable+0x10>
100096fe:	4a05      	ldr	r2, [pc, #20]	; (10009714 <dualtimer_disable+0x1c>)
10009700:	7a11      	ldrb	r1, [r2, #8]
10009702:	400b      	ands	r3, r1
10009704:	7213      	strb	r3, [r2, #8]
10009706:	e003      	b.n	10009710 <dualtimer_disable+0x18>
10009708:	4a03      	ldr	r2, [pc, #12]	; (10009718 <dualtimer_disable+0x20>)
1000970a:	7811      	ldrb	r1, [r2, #0]
1000970c:	400b      	ands	r3, r1
1000970e:	7013      	strb	r3, [r2, #0]
10009710:	4770      	bx	lr
10009712:	46c0      	nop			; (mov r8, r8)
10009714:	40001000 	.word	0x40001000
10009718:	40001028 	.word	0x40001028

1000971c <dualtimer_init>:
1000971c:	b570      	push	{r4, r5, r6, lr}
1000971e:	0004      	movs	r4, r0
10009720:	4b3a      	ldr	r3, [pc, #232]	; (1000980c <dualtimer_init+0xf0>)
10009722:	2004      	movs	r0, #4
10009724:	4798      	blx	r3
10009726:	7823      	ldrb	r3, [r4, #0]
10009728:	2b00      	cmp	r3, #0
1000972a:	d102      	bne.n	10009732 <dualtimer_init+0x16>
1000972c:	7b23      	ldrb	r3, [r4, #12]
1000972e:	2b00      	cmp	r3, #0
10009730:	d00d      	beq.n	1000974e <dualtimer_init+0x32>
10009732:	2220      	movs	r2, #32
10009734:	4936      	ldr	r1, [pc, #216]	; (10009810 <dualtimer_init+0xf4>)
10009736:	68cb      	ldr	r3, [r1, #12]
10009738:	4313      	orrs	r3, r2
1000973a:	60cb      	str	r3, [r1, #12]
1000973c:	7e20      	ldrb	r0, [r4, #24]
1000973e:	3a1d      	subs	r2, #29
10009740:	4002      	ands	r2, r0
10009742:	2030      	movs	r0, #48	; 0x30
10009744:	698b      	ldr	r3, [r1, #24]
10009746:	0112      	lsls	r2, r2, #4
10009748:	4383      	bics	r3, r0
1000974a:	4313      	orrs	r3, r2
1000974c:	618b      	str	r3, [r1, #24]
1000974e:	2300      	movs	r3, #0
10009750:	7822      	ldrb	r2, [r4, #0]
10009752:	429a      	cmp	r2, r3
10009754:	d026      	beq.n	100097a4 <dualtimer_init+0x88>
10009756:	7862      	ldrb	r2, [r4, #1]
10009758:	3301      	adds	r3, #1
1000975a:	2a00      	cmp	r2, #0
1000975c:	d003      	beq.n	10009766 <dualtimer_init+0x4a>
1000975e:	3a02      	subs	r2, #2
10009760:	4253      	negs	r3, r2
10009762:	4153      	adcs	r3, r2
10009764:	019b      	lsls	r3, r3, #6
10009766:	2002      	movs	r0, #2
10009768:	78a1      	ldrb	r1, [r4, #2]
1000976a:	7922      	ldrb	r2, [r4, #4]
1000976c:	0049      	lsls	r1, r1, #1
1000976e:	4001      	ands	r1, r0
10009770:	000d      	movs	r5, r1
10009772:	78e1      	ldrb	r1, [r4, #3]
10009774:	4081      	lsls	r1, r0
10009776:	300a      	adds	r0, #10
10009778:	4001      	ands	r1, r0
1000977a:	4329      	orrs	r1, r5
1000977c:	430b      	orrs	r3, r1
1000977e:	2a00      	cmp	r2, #0
10009780:	d001      	beq.n	10009786 <dualtimer_init+0x6a>
10009782:	2220      	movs	r2, #32
10009784:	4313      	orrs	r3, r2
10009786:	20c4      	movs	r0, #196	; 0xc4
10009788:	2601      	movs	r6, #1
1000978a:	68a1      	ldr	r1, [r4, #8]
1000978c:	4a21      	ldr	r2, [pc, #132]	; (10009814 <dualtimer_init+0xf8>)
1000978e:	4d20      	ldr	r5, [pc, #128]	; (10009810 <dualtimer_init+0xf4>)
10009790:	6011      	str	r1, [r2, #0]
10009792:	0040      	lsls	r0, r0, #1
10009794:	7213      	strb	r3, [r2, #8]
10009796:	5c29      	ldrb	r1, [r5, r0]
10009798:	4331      	orrs	r1, r6
1000979a:	5429      	strb	r1, [r5, r0]
1000979c:	2180      	movs	r1, #128	; 0x80
1000979e:	7a10      	ldrb	r0, [r2, #8]
100097a0:	4301      	orrs	r1, r0
100097a2:	7211      	strb	r1, [r2, #8]
100097a4:	7b22      	ldrb	r2, [r4, #12]
100097a6:	2a00      	cmp	r2, #0
100097a8:	d02a      	beq.n	10009800 <dualtimer_init+0xe4>
100097aa:	7b62      	ldrb	r2, [r4, #13]
100097ac:	2a00      	cmp	r2, #0
100097ae:	d005      	beq.n	100097bc <dualtimer_init+0xa0>
100097b0:	2a01      	cmp	r2, #1
100097b2:	d005      	beq.n	100097c0 <dualtimer_init+0xa4>
100097b4:	2a02      	cmp	r2, #2
100097b6:	d104      	bne.n	100097c2 <dualtimer_init+0xa6>
100097b8:	2340      	movs	r3, #64	; 0x40
100097ba:	e002      	b.n	100097c2 <dualtimer_init+0xa6>
100097bc:	2301      	movs	r3, #1
100097be:	e000      	b.n	100097c2 <dualtimer_init+0xa6>
100097c0:	2300      	movs	r3, #0
100097c2:	2102      	movs	r1, #2
100097c4:	7ba2      	ldrb	r2, [r4, #14]
100097c6:	0052      	lsls	r2, r2, #1
100097c8:	400a      	ands	r2, r1
100097ca:	0010      	movs	r0, r2
100097cc:	7be2      	ldrb	r2, [r4, #15]
100097ce:	408a      	lsls	r2, r1
100097d0:	310a      	adds	r1, #10
100097d2:	400a      	ands	r2, r1
100097d4:	4302      	orrs	r2, r0
100097d6:	4313      	orrs	r3, r2
100097d8:	7c22      	ldrb	r2, [r4, #16]
100097da:	2a00      	cmp	r2, #0
100097dc:	d001      	beq.n	100097e2 <dualtimer_init+0xc6>
100097de:	2220      	movs	r2, #32
100097e0:	4313      	orrs	r3, r2
100097e2:	6961      	ldr	r1, [r4, #20]
100097e4:	4a0b      	ldr	r2, [pc, #44]	; (10009814 <dualtimer_init+0xf8>)
100097e6:	2002      	movs	r0, #2
100097e8:	6211      	str	r1, [r2, #32]
100097ea:	4a0b      	ldr	r2, [pc, #44]	; (10009818 <dualtimer_init+0xfc>)
100097ec:	4908      	ldr	r1, [pc, #32]	; (10009810 <dualtimer_init+0xf4>)
100097ee:	7013      	strb	r3, [r2, #0]
100097f0:	22c4      	movs	r2, #196	; 0xc4
100097f2:	0052      	lsls	r2, r2, #1
100097f4:	5c8b      	ldrb	r3, [r1, r2]
100097f6:	4303      	orrs	r3, r0
100097f8:	548b      	strb	r3, [r1, r2]
100097fa:	3801      	subs	r0, #1
100097fc:	4b07      	ldr	r3, [pc, #28]	; (1000981c <dualtimer_init+0x100>)
100097fe:	4798      	blx	r3
10009800:	4907      	ldr	r1, [pc, #28]	; (10009820 <dualtimer_init+0x104>)
10009802:	201e      	movs	r0, #30
10009804:	4b07      	ldr	r3, [pc, #28]	; (10009824 <dualtimer_init+0x108>)
10009806:	4798      	blx	r3
10009808:	bd70      	pop	{r4, r5, r6, pc}
1000980a:	46c0      	nop			; (mov r8, r8)
1000980c:	1000a2a5 	.word	0x1000a2a5
10009810:	4000b000 	.word	0x4000b000
10009814:	40001000 	.word	0x40001000
10009818:	40001028 	.word	0x40001028
1000981c:	100096d1 	.word	0x100096d1
10009820:	10009641 	.word	0x10009641
10009824:	1000a62d 	.word	0x1000a62d

10009828 <dualtimer_register_callback>:
10009828:	4b02      	ldr	r3, [pc, #8]	; (10009834 <dualtimer_register_callback+0xc>)
1000982a:	2800      	cmp	r0, #0
1000982c:	d000      	beq.n	10009830 <dualtimer_register_callback+0x8>
1000982e:	4b02      	ldr	r3, [pc, #8]	; (10009838 <dualtimer_register_callback+0x10>)
10009830:	6019      	str	r1, [r3, #0]
10009832:	4770      	bx	lr
10009834:	10011f24 	.word	0x10011f24
10009838:	10011f28 	.word	0x10011f28

1000983c <gpio_port0_isr_handler>:
1000983c:	b570      	push	{r4, r5, r6, lr}
1000983e:	2300      	movs	r3, #0
10009840:	2601      	movs	r6, #1
10009842:	4812      	ldr	r0, [pc, #72]	; (1000988c <gpio_port0_isr_handler+0x50>)
10009844:	6805      	ldr	r5, [r0, #0]
10009846:	8f29      	ldrh	r1, [r5, #56]	; 0x38
10009848:	b289      	uxth	r1, r1
1000984a:	0032      	movs	r2, r6
1000984c:	409a      	lsls	r2, r3
1000984e:	2401      	movs	r4, #1
10009850:	4211      	tst	r1, r2
10009852:	d011      	beq.n	10009878 <gpio_port0_isr_handler+0x3c>
10009854:	b292      	uxth	r2, r2
10009856:	872a      	strh	r2, [r5, #56]	; 0x38
10009858:	0002      	movs	r2, r0
1000985a:	3208      	adds	r2, #8
1000985c:	8fd2      	ldrh	r2, [r2, #62]	; 0x3e
1000985e:	411a      	asrs	r2, r3
10009860:	4222      	tst	r2, r4
10009862:	d00c      	beq.n	1000987e <gpio_port0_isr_handler+0x42>
10009864:	1d82      	adds	r2, r0, #6
10009866:	8fd2      	ldrh	r2, [r2, #62]	; 0x3e
10009868:	411a      	asrs	r2, r3
1000986a:	4222      	tst	r2, r4
1000986c:	d007      	beq.n	1000987e <gpio_port0_isr_handler+0x42>
1000986e:	009b      	lsls	r3, r3, #2
10009870:	18c3      	adds	r3, r0, r3
10009872:	685b      	ldr	r3, [r3, #4]
10009874:	4798      	blx	r3
10009876:	e002      	b.n	1000987e <gpio_port0_isr_handler+0x42>
10009878:	3301      	adds	r3, #1
1000987a:	2b10      	cmp	r3, #16
1000987c:	d1e5      	bne.n	1000984a <gpio_port0_isr_handler+0xe>
1000987e:	2180      	movs	r1, #128	; 0x80
10009880:	23c0      	movs	r3, #192	; 0xc0
10009882:	4a03      	ldr	r2, [pc, #12]	; (10009890 <gpio_port0_isr_handler+0x54>)
10009884:	0409      	lsls	r1, r1, #16
10009886:	005b      	lsls	r3, r3, #1
10009888:	50d1      	str	r1, [r2, r3]
1000988a:	bd70      	pop	{r4, r5, r6, pc}
1000988c:	10013ae0 	.word	0x10013ae0
10009890:	e000e100 	.word	0xe000e100

10009894 <gpio_port1_isr_handler>:
10009894:	b5f7      	push	{r0, r1, r2, r4, r5, r6, r7, lr}
10009896:	2400      	movs	r4, #0
10009898:	2701      	movs	r7, #1
1000989a:	4d17      	ldr	r5, [pc, #92]	; (100098f8 <gpio_port1_isr_handler+0x64>)
1000989c:	6cab      	ldr	r3, [r5, #72]	; 0x48
1000989e:	8f1e      	ldrh	r6, [r3, #56]	; 0x38
100098a0:	b2b6      	uxth	r6, r6
100098a2:	0b73      	lsrs	r3, r6, #13
100098a4:	035b      	lsls	r3, r3, #13
100098a6:	9301      	str	r3, [sp, #4]
100098a8:	9b01      	ldr	r3, [sp, #4]
100098aa:	2b00      	cmp	r3, #0
100098ac:	d001      	beq.n	100098b2 <gpio_port1_isr_handler+0x1e>
100098ae:	4b13      	ldr	r3, [pc, #76]	; (100098fc <gpio_port1_isr_handler+0x68>)
100098b0:	4798      	blx	r3
100098b2:	003b      	movs	r3, r7
100098b4:	40a3      	lsls	r3, r4
100098b6:	421e      	tst	r6, r3
100098b8:	d014      	beq.n	100098e4 <gpio_port1_isr_handler+0x50>
100098ba:	6caa      	ldr	r2, [r5, #72]	; 0x48
100098bc:	b29b      	uxth	r3, r3
100098be:	8713      	strh	r3, [r2, #56]	; 0x38
100098c0:	002b      	movs	r3, r5
100098c2:	338e      	adds	r3, #142	; 0x8e
100098c4:	881b      	ldrh	r3, [r3, #0]
100098c6:	4123      	asrs	r3, r4
100098c8:	423b      	tst	r3, r7
100098ca:	d00b      	beq.n	100098e4 <gpio_port1_isr_handler+0x50>
100098cc:	002b      	movs	r3, r5
100098ce:	338c      	adds	r3, #140	; 0x8c
100098d0:	881b      	ldrh	r3, [r3, #0]
100098d2:	4123      	asrs	r3, r4
100098d4:	423b      	tst	r3, r7
100098d6:	d005      	beq.n	100098e4 <gpio_port1_isr_handler+0x50>
100098d8:	3412      	adds	r4, #18
100098da:	00a4      	lsls	r4, r4, #2
100098dc:	192d      	adds	r5, r5, r4
100098de:	686b      	ldr	r3, [r5, #4]
100098e0:	4798      	blx	r3
100098e2:	e002      	b.n	100098ea <gpio_port1_isr_handler+0x56>
100098e4:	3401      	adds	r4, #1
100098e6:	2c10      	cmp	r4, #16
100098e8:	d1de      	bne.n	100098a8 <gpio_port1_isr_handler+0x14>
100098ea:	2180      	movs	r1, #128	; 0x80
100098ec:	23c0      	movs	r3, #192	; 0xc0
100098ee:	4a04      	ldr	r2, [pc, #16]	; (10009900 <gpio_port1_isr_handler+0x6c>)
100098f0:	0449      	lsls	r1, r1, #17
100098f2:	005b      	lsls	r3, r3, #1
100098f4:	50d1      	str	r1, [r2, r3]
100098f6:	bdf7      	pop	{r0, r1, r2, r4, r5, r6, r7, pc}
100098f8:	10013ae0 	.word	0x10013ae0
100098fc:	0001bc51 	.word	0x0001bc51
10009900:	e000e100 	.word	0xe000e100

10009904 <gpio_port2_isr_handler>:
10009904:	4a1c      	ldr	r2, [pc, #112]	; (10009978 <gpio_port2_isr_handler+0x74>)
10009906:	b510      	push	{r4, lr}
10009908:	0013      	movs	r3, r2
1000990a:	3390      	adds	r3, #144	; 0x90
1000990c:	681c      	ldr	r4, [r3, #0]
1000990e:	2380      	movs	r3, #128	; 0x80
10009910:	8f20      	ldrh	r0, [r4, #56]	; 0x38
10009912:	015b      	lsls	r3, r3, #5
10009914:	b280      	uxth	r0, r0
10009916:	0011      	movs	r1, r2
10009918:	4218      	tst	r0, r3
1000991a:	d10d      	bne.n	10009938 <gpio_port2_isr_handler+0x34>
1000991c:	2380      	movs	r3, #128	; 0x80
1000991e:	019b      	lsls	r3, r3, #6
10009920:	4218      	tst	r0, r3
10009922:	d10b      	bne.n	1000993c <gpio_port2_isr_handler+0x38>
10009924:	2380      	movs	r3, #128	; 0x80
10009926:	01db      	lsls	r3, r3, #7
10009928:	4218      	tst	r0, r3
1000992a:	d109      	bne.n	10009940 <gpio_port2_isr_handler+0x3c>
1000992c:	0bc0      	lsrs	r0, r0, #15
1000992e:	d01c      	beq.n	1000996a <gpio_port2_isr_handler+0x66>
10009930:	2380      	movs	r3, #128	; 0x80
10009932:	220f      	movs	r2, #15
10009934:	021b      	lsls	r3, r3, #8
10009936:	e004      	b.n	10009942 <gpio_port2_isr_handler+0x3e>
10009938:	220c      	movs	r2, #12
1000993a:	e002      	b.n	10009942 <gpio_port2_isr_handler+0x3e>
1000993c:	220d      	movs	r2, #13
1000993e:	e000      	b.n	10009942 <gpio_port2_isr_handler+0x3e>
10009940:	220e      	movs	r2, #14
10009942:	b29b      	uxth	r3, r3
10009944:	8723      	strh	r3, [r4, #56]	; 0x38
10009946:	000b      	movs	r3, r1
10009948:	33d6      	adds	r3, #214	; 0xd6
1000994a:	881b      	ldrh	r3, [r3, #0]
1000994c:	2001      	movs	r0, #1
1000994e:	4113      	asrs	r3, r2
10009950:	4203      	tst	r3, r0
10009952:	d00a      	beq.n	1000996a <gpio_port2_isr_handler+0x66>
10009954:	000b      	movs	r3, r1
10009956:	33d4      	adds	r3, #212	; 0xd4
10009958:	881b      	ldrh	r3, [r3, #0]
1000995a:	4113      	asrs	r3, r2
1000995c:	4203      	tst	r3, r0
1000995e:	d004      	beq.n	1000996a <gpio_port2_isr_handler+0x66>
10009960:	3224      	adds	r2, #36	; 0x24
10009962:	0092      	lsls	r2, r2, #2
10009964:	188a      	adds	r2, r1, r2
10009966:	6853      	ldr	r3, [r2, #4]
10009968:	4798      	blx	r3
1000996a:	2180      	movs	r1, #128	; 0x80
1000996c:	23c0      	movs	r3, #192	; 0xc0
1000996e:	4a03      	ldr	r2, [pc, #12]	; (1000997c <gpio_port2_isr_handler+0x78>)
10009970:	0489      	lsls	r1, r1, #18
10009972:	005b      	lsls	r3, r3, #1
10009974:	50d1      	str	r1, [r2, r3]
10009976:	bd10      	pop	{r4, pc}
10009978:	10013ae0 	.word	0x10013ae0
1000997c:	e000e100 	.word	0xe000e100

10009980 <gpio_get_config_defaults>:
10009980:	2300      	movs	r3, #0
10009982:	2201      	movs	r2, #1
10009984:	7003      	strb	r3, [r0, #0]
10009986:	7042      	strb	r2, [r0, #1]
10009988:	7083      	strb	r3, [r0, #2]
1000998a:	70c3      	strb	r3, [r0, #3]
1000998c:	4770      	bx	lr
	...

10009990 <gpio_pin_set_config>:
10009990:	b570      	push	{r4, r5, r6, lr}
10009992:	2317      	movs	r3, #23
10009994:	2801      	cmp	r0, #1
10009996:	d800      	bhi.n	1000999a <gpio_pin_set_config+0xa>
10009998:	e0ae      	b.n	10009af8 <gpio_pin_set_config+0x168>
1000999a:	2807      	cmp	r0, #7
1000999c:	d807      	bhi.n	100099ae <gpio_pin_set_config+0x1e>
1000999e:	2207      	movs	r2, #7
100099a0:	0085      	lsls	r5, r0, #2
100099a2:	40aa      	lsls	r2, r5
100099a4:	4c55      	ldr	r4, [pc, #340]	; (10009afc <gpio_pin_set_config+0x16c>)
100099a6:	6c63      	ldr	r3, [r4, #68]	; 0x44
100099a8:	4393      	bics	r3, r2
100099aa:	6463      	str	r3, [r4, #68]	; 0x44
100099ac:	e02a      	b.n	10009a04 <gpio_pin_set_config+0x74>
100099ae:	280f      	cmp	r0, #15
100099b0:	d809      	bhi.n	100099c6 <gpio_pin_set_config+0x36>
100099b2:	2307      	movs	r3, #7
100099b4:	0004      	movs	r4, r0
100099b6:	401c      	ands	r4, r3
100099b8:	00a4      	lsls	r4, r4, #2
100099ba:	40a3      	lsls	r3, r4
100099bc:	4d4f      	ldr	r5, [pc, #316]	; (10009afc <gpio_pin_set_config+0x16c>)
100099be:	6caa      	ldr	r2, [r5, #72]	; 0x48
100099c0:	439a      	bics	r2, r3
100099c2:	64aa      	str	r2, [r5, #72]	; 0x48
100099c4:	e01e      	b.n	10009a04 <gpio_pin_set_config+0x74>
100099c6:	2817      	cmp	r0, #23
100099c8:	d809      	bhi.n	100099de <gpio_pin_set_config+0x4e>
100099ca:	2307      	movs	r3, #7
100099cc:	0004      	movs	r4, r0
100099ce:	401c      	ands	r4, r3
100099d0:	00a4      	lsls	r4, r4, #2
100099d2:	40a3      	lsls	r3, r4
100099d4:	4d49      	ldr	r5, [pc, #292]	; (10009afc <gpio_pin_set_config+0x16c>)
100099d6:	6cea      	ldr	r2, [r5, #76]	; 0x4c
100099d8:	439a      	bics	r2, r3
100099da:	64ea      	str	r2, [r5, #76]	; 0x4c
100099dc:	e012      	b.n	10009a04 <gpio_pin_set_config+0x74>
100099de:	0003      	movs	r3, r0
100099e0:	3b2c      	subs	r3, #44	; 0x2c
100099e2:	b2da      	uxtb	r2, r3
100099e4:	2a03      	cmp	r2, #3
100099e6:	d80d      	bhi.n	10009a04 <gpio_pin_set_config+0x74>
100099e8:	2601      	movs	r6, #1
100099ea:	2482      	movs	r4, #130	; 0x82
100099ec:	409e      	lsls	r6, r3
100099ee:	4d44      	ldr	r5, [pc, #272]	; (10009b00 <gpio_pin_set_config+0x170>)
100099f0:	00e4      	lsls	r4, r4, #3
100099f2:	5d2a      	ldrb	r2, [r5, r4]
100099f4:	5d2b      	ldrb	r3, [r5, r4]
100099f6:	0712      	lsls	r2, r2, #28
100099f8:	0f12      	lsrs	r2, r2, #28
100099fa:	43b2      	bics	r2, r6
100099fc:	260f      	movs	r6, #15
100099fe:	43b3      	bics	r3, r6
10009a00:	4313      	orrs	r3, r2
10009a02:	552b      	strb	r3, [r5, r4]
10009a04:	0003      	movs	r3, r0
10009a06:	3b1d      	subs	r3, #29
10009a08:	2b02      	cmp	r3, #2
10009a0a:	d824      	bhi.n	10009a56 <gpio_pin_set_config+0xc6>
10009a0c:	784c      	ldrb	r4, [r1, #1]
10009a0e:	4b3c      	ldr	r3, [pc, #240]	; (10009b00 <gpio_pin_set_config+0x170>)
10009a10:	221f      	movs	r2, #31
10009a12:	2c01      	cmp	r4, #1
10009a14:	d105      	bne.n	10009a22 <gpio_pin_set_config+0x92>
10009a16:	7d1d      	ldrb	r5, [r3, #20]
10009a18:	1a12      	subs	r2, r2, r0
10009a1a:	4094      	lsls	r4, r2
10009a1c:	002a      	movs	r2, r5
10009a1e:	43a2      	bics	r2, r4
10009a20:	e006      	b.n	10009a30 <gpio_pin_set_config+0xa0>
10009a22:	2501      	movs	r5, #1
10009a24:	1a12      	subs	r2, r2, r0
10009a26:	4095      	lsls	r5, r2
10009a28:	002a      	movs	r2, r5
10009a2a:	7d1c      	ldrb	r4, [r3, #20]
10009a2c:	4322      	orrs	r2, r4
10009a2e:	b2d2      	uxtb	r2, r2
10009a30:	751a      	strb	r2, [r3, #20]
10009a32:	78ca      	ldrb	r2, [r1, #3]
10009a34:	2a00      	cmp	r2, #0
10009a36:	d05c      	beq.n	10009af2 <gpio_pin_set_config+0x162>
10009a38:	221f      	movs	r2, #31
10009a3a:	1a10      	subs	r0, r2, r0
10009a3c:	0080      	lsls	r0, r0, #2
10009a3e:	3a1e      	subs	r2, #30
10009a40:	4082      	lsls	r2, r0
10009a42:	8819      	ldrh	r1, [r3, #0]
10009a44:	430a      	orrs	r2, r1
10009a46:	2102      	movs	r1, #2
10009a48:	b292      	uxth	r2, r2
10009a4a:	801a      	strh	r2, [r3, #0]
10009a4c:	4a2d      	ldr	r2, [pc, #180]	; (10009b04 <gpio_pin_set_config+0x174>)
10009a4e:	7813      	ldrb	r3, [r2, #0]
10009a50:	430b      	orrs	r3, r1
10009a52:	7013      	strb	r3, [r2, #0]
10009a54:	e04d      	b.n	10009af2 <gpio_pin_set_config+0x162>
10009a56:	780b      	ldrb	r3, [r1, #0]
10009a58:	2b00      	cmp	r3, #0
10009a5a:	d135      	bne.n	10009ac8 <gpio_pin_set_config+0x138>
10009a5c:	280f      	cmp	r0, #15
10009a5e:	d805      	bhi.n	10009a6c <gpio_pin_set_config+0xdc>
10009a60:	3301      	adds	r3, #1
10009a62:	4083      	lsls	r3, r0
10009a64:	4a28      	ldr	r2, [pc, #160]	; (10009b08 <gpio_pin_set_config+0x178>)
10009a66:	b29b      	uxth	r3, r3
10009a68:	8293      	strh	r3, [r2, #20]
10009a6a:	e00f      	b.n	10009a8c <gpio_pin_set_config+0xfc>
10009a6c:	2201      	movs	r2, #1
10009a6e:	240f      	movs	r4, #15
10009a70:	281f      	cmp	r0, #31
10009a72:	d805      	bhi.n	10009a80 <gpio_pin_set_config+0xf0>
10009a74:	4004      	ands	r4, r0
10009a76:	40a2      	lsls	r2, r4
10009a78:	4b24      	ldr	r3, [pc, #144]	; (10009b0c <gpio_pin_set_config+0x17c>)
10009a7a:	b292      	uxth	r2, r2
10009a7c:	829a      	strh	r2, [r3, #20]
10009a7e:	e005      	b.n	10009a8c <gpio_pin_set_config+0xfc>
10009a80:	4020      	ands	r0, r4
10009a82:	4082      	lsls	r2, r0
10009a84:	4922      	ldr	r1, [pc, #136]	; (10009b10 <gpio_pin_set_config+0x180>)
10009a86:	b292      	uxth	r2, r2
10009a88:	828a      	strh	r2, [r1, #20]
10009a8a:	e035      	b.n	10009af8 <gpio_pin_set_config+0x168>
10009a8c:	784b      	ldrb	r3, [r1, #1]
10009a8e:	2b01      	cmp	r3, #1
10009a90:	d014      	beq.n	10009abc <gpio_pin_set_config+0x12c>
10009a92:	2b00      	cmp	r3, #0
10009a94:	d00b      	beq.n	10009aae <gpio_pin_set_config+0x11e>
10009a96:	2b02      	cmp	r3, #2
10009a98:	d12d      	bne.n	10009af6 <gpio_pin_set_config+0x166>
10009a9a:	2201      	movs	r2, #1
10009a9c:	4082      	lsls	r2, r0
10009a9e:	4b17      	ldr	r3, [pc, #92]	; (10009afc <gpio_pin_set_config+0x16c>)
10009aa0:	6d59      	ldr	r1, [r3, #84]	; 0x54
10009aa2:	4311      	orrs	r1, r2
10009aa4:	6559      	str	r1, [r3, #84]	; 0x54
10009aa6:	6d19      	ldr	r1, [r3, #80]	; 0x50
10009aa8:	4391      	bics	r1, r2
10009aaa:	6519      	str	r1, [r3, #80]	; 0x50
10009aac:	e021      	b.n	10009af2 <gpio_pin_set_config+0x162>
10009aae:	2201      	movs	r2, #1
10009ab0:	4082      	lsls	r2, r0
10009ab2:	4c12      	ldr	r4, [pc, #72]	; (10009afc <gpio_pin_set_config+0x16c>)
10009ab4:	6d21      	ldr	r1, [r4, #80]	; 0x50
10009ab6:	430a      	orrs	r2, r1
10009ab8:	6522      	str	r2, [r4, #80]	; 0x50
10009aba:	e01d      	b.n	10009af8 <gpio_pin_set_config+0x168>
10009abc:	4083      	lsls	r3, r0
10009abe:	490f      	ldr	r1, [pc, #60]	; (10009afc <gpio_pin_set_config+0x16c>)
10009ac0:	6d0a      	ldr	r2, [r1, #80]	; 0x50
10009ac2:	439a      	bics	r2, r3
10009ac4:	650a      	str	r2, [r1, #80]	; 0x50
10009ac6:	e014      	b.n	10009af2 <gpio_pin_set_config+0x162>
10009ac8:	2b01      	cmp	r3, #1
10009aca:	d112      	bne.n	10009af2 <gpio_pin_set_config+0x162>
10009acc:	280f      	cmp	r0, #15
10009ace:	d803      	bhi.n	10009ad8 <gpio_pin_set_config+0x148>
10009ad0:	4083      	lsls	r3, r0
10009ad2:	4a0d      	ldr	r2, [pc, #52]	; (10009b08 <gpio_pin_set_config+0x178>)
10009ad4:	b29b      	uxth	r3, r3
10009ad6:	e00b      	b.n	10009af0 <gpio_pin_set_config+0x160>
10009ad8:	220f      	movs	r2, #15
10009ada:	281f      	cmp	r0, #31
10009adc:	d804      	bhi.n	10009ae8 <gpio_pin_set_config+0x158>
10009ade:	4010      	ands	r0, r2
10009ae0:	4083      	lsls	r3, r0
10009ae2:	4a0a      	ldr	r2, [pc, #40]	; (10009b0c <gpio_pin_set_config+0x17c>)
10009ae4:	b29b      	uxth	r3, r3
10009ae6:	e003      	b.n	10009af0 <gpio_pin_set_config+0x160>
10009ae8:	4010      	ands	r0, r2
10009aea:	4083      	lsls	r3, r0
10009aec:	4a08      	ldr	r2, [pc, #32]	; (10009b10 <gpio_pin_set_config+0x180>)
10009aee:	b29b      	uxth	r3, r3
10009af0:	8213      	strh	r3, [r2, #16]
10009af2:	2300      	movs	r3, #0
10009af4:	e000      	b.n	10009af8 <gpio_pin_set_config+0x168>
10009af6:	2317      	movs	r3, #23
10009af8:	0018      	movs	r0, r3
10009afa:	bd70      	pop	{r4, r5, r6, pc}
10009afc:	4000b000 	.word	0x4000b000
10009b00:	4000f000 	.word	0x4000f000
10009b04:	4000e000 	.word	0x4000e000
10009b08:	40010000 	.word	0x40010000
10009b0c:	40011000 	.word	0x40011000
10009b10:	40013000 	.word	0x40013000

10009b14 <gpio_pin_get_input_level>:
10009b14:	280f      	cmp	r0, #15
10009b16:	d805      	bhi.n	10009b24 <gpio_pin_get_input_level+0x10>
10009b18:	4b0a      	ldr	r3, [pc, #40]	; (10009b44 <gpio_pin_get_input_level+0x30>)
10009b1a:	8819      	ldrh	r1, [r3, #0]
10009b1c:	2301      	movs	r3, #1
10009b1e:	4083      	lsls	r3, r0
10009b20:	0018      	movs	r0, r3
10009b22:	e009      	b.n	10009b38 <gpio_pin_get_input_level+0x24>
10009b24:	230f      	movs	r3, #15
10009b26:	281f      	cmp	r0, #31
10009b28:	d801      	bhi.n	10009b2e <gpio_pin_get_input_level+0x1a>
10009b2a:	4907      	ldr	r1, [pc, #28]	; (10009b48 <gpio_pin_get_input_level+0x34>)
10009b2c:	e000      	b.n	10009b30 <gpio_pin_get_input_level+0x1c>
10009b2e:	4907      	ldr	r1, [pc, #28]	; (10009b4c <gpio_pin_get_input_level+0x38>)
10009b30:	4003      	ands	r3, r0
10009b32:	2001      	movs	r0, #1
10009b34:	4098      	lsls	r0, r3
10009b36:	8809      	ldrh	r1, [r1, #0]
10009b38:	4008      	ands	r0, r1
10009b3a:	1e43      	subs	r3, r0, #1
10009b3c:	4198      	sbcs	r0, r3
10009b3e:	b2c0      	uxtb	r0, r0
10009b40:	4770      	bx	lr
10009b42:	46c0      	nop			; (mov r8, r8)
10009b44:	40010000 	.word	0x40010000
10009b48:	40011000 	.word	0x40011000
10009b4c:	40013000 	.word	0x40013000

10009b50 <gpio_pin_get_output_level>:
10009b50:	280f      	cmp	r0, #15
10009b52:	d805      	bhi.n	10009b60 <gpio_pin_get_output_level+0x10>
10009b54:	4b0a      	ldr	r3, [pc, #40]	; (10009b80 <gpio_pin_get_output_level+0x30>)
10009b56:	8899      	ldrh	r1, [r3, #4]
10009b58:	2301      	movs	r3, #1
10009b5a:	4083      	lsls	r3, r0
10009b5c:	0018      	movs	r0, r3
10009b5e:	e009      	b.n	10009b74 <gpio_pin_get_output_level+0x24>
10009b60:	230f      	movs	r3, #15
10009b62:	281f      	cmp	r0, #31
10009b64:	d801      	bhi.n	10009b6a <gpio_pin_get_output_level+0x1a>
10009b66:	4907      	ldr	r1, [pc, #28]	; (10009b84 <gpio_pin_get_output_level+0x34>)
10009b68:	e000      	b.n	10009b6c <gpio_pin_get_output_level+0x1c>
10009b6a:	4907      	ldr	r1, [pc, #28]	; (10009b88 <gpio_pin_get_output_level+0x38>)
10009b6c:	4003      	ands	r3, r0
10009b6e:	2001      	movs	r0, #1
10009b70:	4098      	lsls	r0, r3
10009b72:	8889      	ldrh	r1, [r1, #4]
10009b74:	4008      	ands	r0, r1
10009b76:	1e43      	subs	r3, r0, #1
10009b78:	4198      	sbcs	r0, r3
10009b7a:	b2c0      	uxtb	r0, r0
10009b7c:	4770      	bx	lr
10009b7e:	46c0      	nop			; (mov r8, r8)
10009b80:	40010000 	.word	0x40010000
10009b84:	40011000 	.word	0x40011000
10009b88:	40013000 	.word	0x40013000

10009b8c <gpio_pin_set_output_level>:
10009b8c:	b510      	push	{r4, lr}
10009b8e:	280f      	cmp	r0, #15
10009b90:	d806      	bhi.n	10009ba0 <gpio_pin_set_output_level+0x14>
10009b92:	2301      	movs	r3, #1
10009b94:	4c0d      	ldr	r4, [pc, #52]	; (10009bcc <gpio_pin_set_output_level+0x40>)
10009b96:	4083      	lsls	r3, r0
10009b98:	88a2      	ldrh	r2, [r4, #4]
10009b9a:	2900      	cmp	r1, #0
10009b9c:	d012      	beq.n	10009bc4 <gpio_pin_set_output_level+0x38>
10009b9e:	e00c      	b.n	10009bba <gpio_pin_set_output_level+0x2e>
10009ba0:	281f      	cmp	r0, #31
10009ba2:	d802      	bhi.n	10009baa <gpio_pin_set_output_level+0x1e>
10009ba4:	4c0a      	ldr	r4, [pc, #40]	; (10009bd0 <gpio_pin_set_output_level+0x44>)
10009ba6:	230f      	movs	r3, #15
10009ba8:	e001      	b.n	10009bae <gpio_pin_set_output_level+0x22>
10009baa:	230f      	movs	r3, #15
10009bac:	4c09      	ldr	r4, [pc, #36]	; (10009bd4 <gpio_pin_set_output_level+0x48>)
10009bae:	88a2      	ldrh	r2, [r4, #4]
10009bb0:	4018      	ands	r0, r3
10009bb2:	2900      	cmp	r1, #0
10009bb4:	d004      	beq.n	10009bc0 <gpio_pin_set_output_level+0x34>
10009bb6:	3b0e      	subs	r3, #14
10009bb8:	4083      	lsls	r3, r0
10009bba:	4313      	orrs	r3, r2
10009bbc:	b29b      	uxth	r3, r3
10009bbe:	e003      	b.n	10009bc8 <gpio_pin_set_output_level+0x3c>
10009bc0:	2301      	movs	r3, #1
10009bc2:	4083      	lsls	r3, r0
10009bc4:	439a      	bics	r2, r3
10009bc6:	0013      	movs	r3, r2
10009bc8:	80a3      	strh	r3, [r4, #4]
10009bca:	bd10      	pop	{r4, pc}
10009bcc:	40010000 	.word	0x40010000
10009bd0:	40011000 	.word	0x40011000
10009bd4:	40013000 	.word	0x40013000

10009bd8 <gpio_pinmux_cofiguration>:
10009bd8:	0a0b      	lsrs	r3, r1, #8
10009bda:	b570      	push	{r4, r5, r6, lr}
10009bdc:	b2c9      	uxtb	r1, r1
10009bde:	2807      	cmp	r0, #7
10009be0:	d821      	bhi.n	10009c26 <gpio_pinmux_cofiguration+0x4e>
10009be2:	2507      	movs	r5, #7
10009be4:	0086      	lsls	r6, r0, #2
10009be6:	40b5      	lsls	r5, r6
10009be8:	4a30      	ldr	r2, [pc, #192]	; (10009cac <gpio_pinmux_cofiguration+0xd4>)
10009bea:	6c54      	ldr	r4, [r2, #68]	; 0x44
10009bec:	43ac      	bics	r4, r5
10009bee:	000d      	movs	r5, r1
10009bf0:	40b5      	lsls	r5, r6
10009bf2:	6454      	str	r4, [r2, #68]	; 0x44
10009bf4:	6c54      	ldr	r4, [r2, #68]	; 0x44
10009bf6:	432c      	orrs	r4, r5
10009bf8:	6454      	str	r4, [r2, #68]	; 0x44
10009bfa:	2901      	cmp	r1, #1
10009bfc:	d155      	bne.n	10009caa <gpio_pinmux_cofiguration+0xd2>
10009bfe:	2803      	cmp	r0, #3
10009c00:	d80c      	bhi.n	10009c1c <gpio_pinmux_cofiguration+0x44>
10009c02:	253f      	movs	r5, #63	; 0x3f
10009c04:	00c0      	lsls	r0, r0, #3
10009c06:	4085      	lsls	r5, r0
10009c08:	4083      	lsls	r3, r0
10009c0a:	31a0      	adds	r1, #160	; 0xa0
10009c0c:	31ff      	adds	r1, #255	; 0xff
10009c0e:	5854      	ldr	r4, [r2, r1]
10009c10:	43ac      	bics	r4, r5
10009c12:	5054      	str	r4, [r2, r1]
10009c14:	5854      	ldr	r4, [r2, r1]
10009c16:	4323      	orrs	r3, r4
10009c18:	5053      	str	r3, [r2, r1]
10009c1a:	e046      	b.n	10009caa <gpio_pinmux_cofiguration+0xd2>
10009c1c:	24d2      	movs	r4, #210	; 0xd2
10009c1e:	0064      	lsls	r4, r4, #1
10009c20:	5915      	ldr	r5, [r2, r4]
10009c22:	2103      	movs	r1, #3
10009c24:	e032      	b.n	10009c8c <gpio_pinmux_cofiguration+0xb4>
10009c26:	280f      	cmp	r0, #15
10009c28:	d816      	bhi.n	10009c58 <gpio_pinmux_cofiguration+0x80>
10009c2a:	2507      	movs	r5, #7
10009c2c:	0004      	movs	r4, r0
10009c2e:	402c      	ands	r4, r5
10009c30:	00a4      	lsls	r4, r4, #2
10009c32:	40a5      	lsls	r5, r4
10009c34:	4a1d      	ldr	r2, [pc, #116]	; (10009cac <gpio_pinmux_cofiguration+0xd4>)
10009c36:	6c96      	ldr	r6, [r2, #72]	; 0x48
10009c38:	43ae      	bics	r6, r5
10009c3a:	6496      	str	r6, [r2, #72]	; 0x48
10009c3c:	000e      	movs	r6, r1
10009c3e:	40a6      	lsls	r6, r4
10009c40:	0034      	movs	r4, r6
10009c42:	6c95      	ldr	r5, [r2, #72]	; 0x48
10009c44:	432c      	orrs	r4, r5
10009c46:	6494      	str	r4, [r2, #72]	; 0x48
10009c48:	2901      	cmp	r1, #1
10009c4a:	d12e      	bne.n	10009caa <gpio_pinmux_cofiguration+0xd2>
10009c4c:	3102      	adds	r1, #2
10009c4e:	24d4      	movs	r4, #212	; 0xd4
10009c50:	280b      	cmp	r0, #11
10009c52:	d919      	bls.n	10009c88 <gpio_pinmux_cofiguration+0xb0>
10009c54:	24d6      	movs	r4, #214	; 0xd6
10009c56:	e01c      	b.n	10009c92 <gpio_pinmux_cofiguration+0xba>
10009c58:	2817      	cmp	r0, #23
10009c5a:	d826      	bhi.n	10009caa <gpio_pinmux_cofiguration+0xd2>
10009c5c:	2507      	movs	r5, #7
10009c5e:	0004      	movs	r4, r0
10009c60:	402c      	ands	r4, r5
10009c62:	00a4      	lsls	r4, r4, #2
10009c64:	40a5      	lsls	r5, r4
10009c66:	4a11      	ldr	r2, [pc, #68]	; (10009cac <gpio_pinmux_cofiguration+0xd4>)
10009c68:	6cd6      	ldr	r6, [r2, #76]	; 0x4c
10009c6a:	43ae      	bics	r6, r5
10009c6c:	64d6      	str	r6, [r2, #76]	; 0x4c
10009c6e:	000e      	movs	r6, r1
10009c70:	40a6      	lsls	r6, r4
10009c72:	0034      	movs	r4, r6
10009c74:	6cd5      	ldr	r5, [r2, #76]	; 0x4c
10009c76:	432c      	orrs	r4, r5
10009c78:	64d4      	str	r4, [r2, #76]	; 0x4c
10009c7a:	2901      	cmp	r1, #1
10009c7c:	d115      	bne.n	10009caa <gpio_pinmux_cofiguration+0xd2>
10009c7e:	3102      	adds	r1, #2
10009c80:	24da      	movs	r4, #218	; 0xda
10009c82:	2813      	cmp	r0, #19
10009c84:	d805      	bhi.n	10009c92 <gpio_pinmux_cofiguration+0xba>
10009c86:	24d8      	movs	r4, #216	; 0xd8
10009c88:	0064      	lsls	r4, r4, #1
10009c8a:	5915      	ldr	r5, [r2, r4]
10009c8c:	4008      	ands	r0, r1
10009c8e:	4088      	lsls	r0, r1
10009c90:	e003      	b.n	10009c9a <gpio_pinmux_cofiguration+0xc2>
10009c92:	0064      	lsls	r4, r4, #1
10009c94:	4008      	ands	r0, r1
10009c96:	5915      	ldr	r5, [r2, r4]
10009c98:	00c0      	lsls	r0, r0, #3
10009c9a:	213f      	movs	r1, #63	; 0x3f
10009c9c:	4081      	lsls	r1, r0
10009c9e:	4083      	lsls	r3, r0
10009ca0:	438d      	bics	r5, r1
10009ca2:	5115      	str	r5, [r2, r4]
10009ca4:	5911      	ldr	r1, [r2, r4]
10009ca6:	430b      	orrs	r3, r1
10009ca8:	5113      	str	r3, [r2, r4]
10009caa:	bd70      	pop	{r4, r5, r6, pc}
10009cac:	4000b000 	.word	0x4000b000

10009cb0 <gpio_register_callback>:
10009cb0:	b570      	push	{r4, r5, r6, lr}
10009cb2:	0005      	movs	r5, r0
10009cb4:	2400      	movs	r4, #0
10009cb6:	280f      	cmp	r0, #15
10009cb8:	d904      	bls.n	10009cc4 <gpio_register_callback+0x14>
10009cba:	231f      	movs	r3, #31
10009cbc:	4283      	cmp	r3, r0
10009cbe:	4164      	adcs	r4, r4
10009cc0:	3b1d      	subs	r3, #29
10009cc2:	1b1c      	subs	r4, r3, r4
10009cc4:	4e1f      	ldr	r6, [pc, #124]	; (10009d44 <gpio_register_callback+0x94>)
10009cc6:	2a03      	cmp	r2, #3
10009cc8:	d829      	bhi.n	10009d1e <gpio_register_callback+0x6e>
10009cca:	2348      	movs	r3, #72	; 0x48
10009ccc:	0010      	movs	r0, r2
10009cce:	4363      	muls	r3, r4
10009cd0:	f005 fe58 	bl	1000f984 <__gnu_thumb1_case_uqi>
10009cd4:	1c120a02 	.word	0x1c120a02
10009cd8:	200f      	movs	r0, #15
10009cda:	2201      	movs	r2, #1
10009cdc:	4028      	ands	r0, r5
10009cde:	4082      	lsls	r2, r0
10009ce0:	58f0      	ldr	r0, [r6, r3]
10009ce2:	b292      	uxth	r2, r2
10009ce4:	8582      	strh	r2, [r0, #44]	; 0x2c
10009ce6:	e018      	b.n	10009d1a <gpio_register_callback+0x6a>
10009ce8:	200f      	movs	r0, #15
10009cea:	2201      	movs	r2, #1
10009cec:	4028      	ands	r0, r5
10009cee:	4082      	lsls	r2, r0
10009cf0:	58f0      	ldr	r0, [r6, r3]
10009cf2:	b292      	uxth	r2, r2
10009cf4:	8582      	strh	r2, [r0, #44]	; 0x2c
10009cf6:	e006      	b.n	10009d06 <gpio_register_callback+0x56>
10009cf8:	200f      	movs	r0, #15
10009cfa:	2201      	movs	r2, #1
10009cfc:	4028      	ands	r0, r5
10009cfe:	4082      	lsls	r2, r0
10009d00:	58f0      	ldr	r0, [r6, r3]
10009d02:	b292      	uxth	r2, r2
10009d04:	8502      	strh	r2, [r0, #40]	; 0x28
10009d06:	58f3      	ldr	r3, [r6, r3]
10009d08:	861a      	strh	r2, [r3, #48]	; 0x30
10009d0a:	e008      	b.n	10009d1e <gpio_register_callback+0x6e>
10009d0c:	200f      	movs	r0, #15
10009d0e:	2201      	movs	r2, #1
10009d10:	4028      	ands	r0, r5
10009d12:	4082      	lsls	r2, r0
10009d14:	58f0      	ldr	r0, [r6, r3]
10009d16:	b292      	uxth	r2, r2
10009d18:	8502      	strh	r2, [r0, #40]	; 0x28
10009d1a:	58f3      	ldr	r3, [r6, r3]
10009d1c:	869a      	strh	r2, [r3, #52]	; 0x34
10009d1e:	230f      	movs	r3, #15
10009d20:	401d      	ands	r5, r3
10009d22:	3303      	adds	r3, #3
10009d24:	4363      	muls	r3, r4
10009d26:	195b      	adds	r3, r3, r5
10009d28:	009b      	lsls	r3, r3, #2
10009d2a:	18f3      	adds	r3, r6, r3
10009d2c:	6059      	str	r1, [r3, #4]
10009d2e:	2348      	movs	r3, #72	; 0x48
10009d30:	435c      	muls	r4, r3
10009d32:	3b47      	subs	r3, #71	; 0x47
10009d34:	40ab      	lsls	r3, r5
10009d36:	1936      	adds	r6, r6, r4
10009d38:	3606      	adds	r6, #6
10009d3a:	8ff2      	ldrh	r2, [r6, #62]	; 0x3e
10009d3c:	4313      	orrs	r3, r2
10009d3e:	87f3      	strh	r3, [r6, #62]	; 0x3e
10009d40:	bd70      	pop	{r4, r5, r6, pc}
10009d42:	46c0      	nop			; (mov r8, r8)
10009d44:	10013ae0 	.word	0x10013ae0

10009d48 <gpio_enable_callback>:
10009d48:	b510      	push	{r4, lr}
10009d4a:	4b10      	ldr	r3, [pc, #64]	; (10009d8c <gpio_enable_callback+0x44>)
10009d4c:	2280      	movs	r2, #128	; 0x80
10009d4e:	280f      	cmp	r0, #15
10009d50:	d803      	bhi.n	10009d5a <gpio_enable_callback+0x12>
10009d52:	0412      	lsls	r2, r2, #16
10009d54:	601a      	str	r2, [r3, #0]
10009d56:	2100      	movs	r1, #0
10009d58:	e008      	b.n	10009d6c <gpio_enable_callback+0x24>
10009d5a:	281f      	cmp	r0, #31
10009d5c:	d803      	bhi.n	10009d66 <gpio_enable_callback+0x1e>
10009d5e:	0452      	lsls	r2, r2, #17
10009d60:	601a      	str	r2, [r3, #0]
10009d62:	2101      	movs	r1, #1
10009d64:	e002      	b.n	10009d6c <gpio_enable_callback+0x24>
10009d66:	2102      	movs	r1, #2
10009d68:	0492      	lsls	r2, r2, #18
10009d6a:	601a      	str	r2, [r3, #0]
10009d6c:	230f      	movs	r3, #15
10009d6e:	2248      	movs	r2, #72	; 0x48
10009d70:	4018      	ands	r0, r3
10009d72:	3b0e      	subs	r3, #14
10009d74:	4083      	lsls	r3, r0
10009d76:	434a      	muls	r2, r1
10009d78:	4c05      	ldr	r4, [pc, #20]	; (10009d90 <gpio_enable_callback+0x48>)
10009d7a:	18a1      	adds	r1, r4, r2
10009d7c:	3108      	adds	r1, #8
10009d7e:	8fc8      	ldrh	r0, [r1, #62]	; 0x3e
10009d80:	5912      	ldr	r2, [r2, r4]
10009d82:	4318      	orrs	r0, r3
10009d84:	b29b      	uxth	r3, r3
10009d86:	87c8      	strh	r0, [r1, #62]	; 0x3e
10009d88:	8413      	strh	r3, [r2, #32]
10009d8a:	bd10      	pop	{r4, pc}
10009d8c:	e000e100 	.word	0xe000e100
10009d90:	10013ae0 	.word	0x10013ae0

10009d94 <gpio_disable_callback>:
10009d94:	b510      	push	{r4, lr}
10009d96:	2200      	movs	r2, #0
10009d98:	280f      	cmp	r0, #15
10009d9a:	d904      	bls.n	10009da6 <gpio_disable_callback+0x12>
10009d9c:	231f      	movs	r3, #31
10009d9e:	4283      	cmp	r3, r0
10009da0:	4152      	adcs	r2, r2
10009da2:	3b1d      	subs	r3, #29
10009da4:	1a9a      	subs	r2, r3, r2
10009da6:	230f      	movs	r3, #15
10009da8:	2148      	movs	r1, #72	; 0x48
10009daa:	4018      	ands	r0, r3
10009dac:	3b0e      	subs	r3, #14
10009dae:	4083      	lsls	r3, r0
10009db0:	434a      	muls	r2, r1
10009db2:	4c05      	ldr	r4, [pc, #20]	; (10009dc8 <gpio_disable_callback+0x34>)
10009db4:	18a1      	adds	r1, r4, r2
10009db6:	3108      	adds	r1, #8
10009db8:	8fc8      	ldrh	r0, [r1, #62]	; 0x3e
10009dba:	5912      	ldr	r2, [r2, r4]
10009dbc:	4398      	bics	r0, r3
10009dbe:	b29b      	uxth	r3, r3
10009dc0:	87c8      	strh	r0, [r1, #62]	; 0x3e
10009dc2:	8493      	strh	r3, [r2, #36]	; 0x24
10009dc4:	bd10      	pop	{r4, pc}
10009dc6:	46c0      	nop			; (mov r8, r8)
10009dc8:	10013ae0 	.word	0x10013ae0

10009dcc <gpio_init>:
10009dcc:	2200      	movs	r2, #0
10009dce:	b570      	push	{r4, r5, r6, lr}
10009dd0:	0015      	movs	r5, r2
10009dd2:	0014      	movs	r4, r2
10009dd4:	4b10      	ldr	r3, [pc, #64]	; (10009e18 <gpio_init+0x4c>)
10009dd6:	2000      	movs	r0, #0
10009dd8:	18d1      	adds	r1, r2, r3
10009dda:	180e      	adds	r6, r1, r0
10009ddc:	3004      	adds	r0, #4
10009dde:	6075      	str	r5, [r6, #4]
10009de0:	2840      	cmp	r0, #64	; 0x40
10009de2:	d1fa      	bne.n	10009dda <gpio_init+0xe>
10009de4:	0008      	movs	r0, r1
10009de6:	3248      	adds	r2, #72	; 0x48
10009de8:	3046      	adds	r0, #70	; 0x46
10009dea:	3144      	adds	r1, #68	; 0x44
10009dec:	8004      	strh	r4, [r0, #0]
10009dee:	800c      	strh	r4, [r1, #0]
10009df0:	2ad8      	cmp	r2, #216	; 0xd8
10009df2:	d1f0      	bne.n	10009dd6 <gpio_init+0xa>
10009df4:	4a09      	ldr	r2, [pc, #36]	; (10009e1c <gpio_init+0x50>)
10009df6:	4c0a      	ldr	r4, [pc, #40]	; (10009e20 <gpio_init+0x54>)
10009df8:	601a      	str	r2, [r3, #0]
10009dfa:	4a0a      	ldr	r2, [pc, #40]	; (10009e24 <gpio_init+0x58>)
10009dfc:	490a      	ldr	r1, [pc, #40]	; (10009e28 <gpio_init+0x5c>)
10009dfe:	649a      	str	r2, [r3, #72]	; 0x48
10009e00:	4a0a      	ldr	r2, [pc, #40]	; (10009e2c <gpio_init+0x60>)
10009e02:	3390      	adds	r3, #144	; 0x90
10009e04:	601a      	str	r2, [r3, #0]
10009e06:	2027      	movs	r0, #39	; 0x27
10009e08:	47a0      	blx	r4
10009e0a:	4909      	ldr	r1, [pc, #36]	; (10009e30 <gpio_init+0x64>)
10009e0c:	2028      	movs	r0, #40	; 0x28
10009e0e:	47a0      	blx	r4
10009e10:	4908      	ldr	r1, [pc, #32]	; (10009e34 <gpio_init+0x68>)
10009e12:	2029      	movs	r0, #41	; 0x29
10009e14:	47a0      	blx	r4
10009e16:	bd70      	pop	{r4, r5, r6, pc}
10009e18:	10013ae0 	.word	0x10013ae0
10009e1c:	40010000 	.word	0x40010000
10009e20:	1000a62d 	.word	0x1000a62d
10009e24:	40011000 	.word	0x40011000
10009e28:	1000983d 	.word	0x1000983d
10009e2c:	40013000 	.word	0x40013000
10009e30:	10009895 	.word	0x10009895
10009e34:	10009905 	.word	0x10009905

10009e38 <system_clock_config>:
10009e38:	2801      	cmp	r0, #1
10009e3a:	d00d      	beq.n	10009e58 <system_clock_config+0x20>
10009e3c:	2800      	cmp	r0, #0
10009e3e:	d006      	beq.n	10009e4e <system_clock_config+0x16>
10009e40:	2802      	cmp	r0, #2
10009e42:	d129      	bne.n	10009e98 <system_clock_config+0x60>
10009e44:	200c      	movs	r0, #12
10009e46:	4a15      	ldr	r2, [pc, #84]	; (10009e9c <system_clock_config+0x64>)
10009e48:	6993      	ldr	r3, [r2, #24]
10009e4a:	4383      	bics	r3, r0
10009e4c:	e015      	b.n	10009e7a <system_clock_config+0x42>
10009e4e:	200c      	movs	r0, #12
10009e50:	4a12      	ldr	r2, [pc, #72]	; (10009e9c <system_clock_config+0x64>)
10009e52:	6993      	ldr	r3, [r2, #24]
10009e54:	4303      	orrs	r3, r0
10009e56:	e010      	b.n	10009e7a <system_clock_config+0x42>
10009e58:	2008      	movs	r0, #8
10009e5a:	4b10      	ldr	r3, [pc, #64]	; (10009e9c <system_clock_config+0x64>)
10009e5c:	699a      	ldr	r2, [r3, #24]
10009e5e:	4302      	orrs	r2, r0
10009e60:	619a      	str	r2, [r3, #24]
10009e62:	699a      	ldr	r2, [r3, #24]
10009e64:	3804      	subs	r0, #4
10009e66:	4382      	bics	r2, r0
10009e68:	2080      	movs	r0, #128	; 0x80
10009e6a:	619a      	str	r2, [r3, #24]
10009e6c:	4a0c      	ldr	r2, [pc, #48]	; (10009ea0 <system_clock_config+0x68>)
10009e6e:	0300      	lsls	r0, r0, #12
10009e70:	6853      	ldr	r3, [r2, #4]
10009e72:	4303      	orrs	r3, r0
10009e74:	6053      	str	r3, [r2, #4]
10009e76:	4a0b      	ldr	r2, [pc, #44]	; (10009ea4 <system_clock_config+0x6c>)
10009e78:	e001      	b.n	10009e7e <system_clock_config+0x46>
10009e7a:	6193      	str	r3, [r2, #24]
10009e7c:	4a0a      	ldr	r2, [pc, #40]	; (10009ea8 <system_clock_config+0x70>)
10009e7e:	4b0b      	ldr	r3, [pc, #44]	; (10009eac <system_clock_config+0x74>)
10009e80:	601a      	str	r2, [r3, #0]
10009e82:	2203      	movs	r2, #3
10009e84:	4b05      	ldr	r3, [pc, #20]	; (10009e9c <system_clock_config+0x64>)
10009e86:	6998      	ldr	r0, [r3, #24]
10009e88:	4390      	bics	r0, r2
10009e8a:	6198      	str	r0, [r3, #24]
10009e8c:	6998      	ldr	r0, [r3, #24]
10009e8e:	400a      	ands	r2, r1
10009e90:	4302      	orrs	r2, r0
10009e92:	619a      	str	r2, [r3, #24]
10009e94:	2000      	movs	r0, #0
10009e96:	e000      	b.n	10009e9a <system_clock_config+0x62>
10009e98:	2017      	movs	r0, #23
10009e9a:	4770      	bx	lr
10009e9c:	4000b000 	.word	0x4000b000
10009ea0:	4000f000 	.word	0x4000f000
10009ea4:	001e8480 	.word	0x001e8480
10009ea8:	018cba80 	.word	0x018cba80
10009eac:	10013bb8 	.word	0x10013bb8

10009eb0 <system_clock_get_value>:
10009eb0:	4b01      	ldr	r3, [pc, #4]	; (10009eb8 <system_clock_get_value+0x8>)
10009eb2:	6818      	ldr	r0, [r3, #0]
10009eb4:	4770      	bx	lr
10009eb6:	46c0      	nop			; (mov r8, r8)
10009eb8:	10013bb8 	.word	0x10013bb8

10009ebc <system_clock_peripheral_enable>:
10009ebc:	b500      	push	{lr}
10009ebe:	2317      	movs	r3, #23
10009ec0:	2835      	cmp	r0, #53	; 0x35
10009ec2:	d900      	bls.n	10009ec6 <system_clock_peripheral_enable+0xa>
10009ec4:	e0ea      	b.n	1000a09c <system_clock_peripheral_enable+0x1e0>
10009ec6:	4b76      	ldr	r3, [pc, #472]	; (1000a0a0 <system_clock_peripheral_enable+0x1e4>)
10009ec8:	f005 fd5c 	bl	1000f984 <__gnu_thumb1_case_uqi>
10009ecc:	26211e1b 	.word	0x26211e1b
10009ed0:	332f2c29 	.word	0x332f2c29
10009ed4:	433f3b37 	.word	0x433f3b37
10009ed8:	534f4b47 	.word	0x534f4b47
10009edc:	635f5b57 	.word	0x635f5b57
10009ee0:	736f6b67 	.word	0x736f6b67
10009ee4:	837f7b77 	.word	0x837f7b77
10009ee8:	8f8c8986 	.word	0x8f8c8986
10009eec:	9b989592 	.word	0x9b989592
10009ef0:	aba7a39f 	.word	0xaba7a39f
10009ef4:	bbb7b3af 	.word	0xbbb7b3af
10009ef8:	cbc7c3bf 	.word	0xcbc7c3bf
10009efc:	ddd7d3cf 	.word	0xddd7d3cf
10009f00:	e3e0      	.short	0xe3e0
10009f02:	68da      	ldr	r2, [r3, #12]
10009f04:	2102      	movs	r1, #2
10009f06:	e004      	b.n	10009f12 <system_clock_peripheral_enable+0x56>
10009f08:	68da      	ldr	r2, [r3, #12]
10009f0a:	2104      	movs	r1, #4
10009f0c:	e001      	b.n	10009f12 <system_clock_peripheral_enable+0x56>
10009f0e:	2108      	movs	r1, #8
10009f10:	68da      	ldr	r2, [r3, #12]
10009f12:	430a      	orrs	r2, r1
10009f14:	60da      	str	r2, [r3, #12]
10009f16:	e0c0      	b.n	1000a09a <system_clock_peripheral_enable+0x1de>
10009f18:	68da      	ldr	r2, [r3, #12]
10009f1a:	2110      	movs	r1, #16
10009f1c:	e7f9      	b.n	10009f12 <system_clock_peripheral_enable+0x56>
10009f1e:	68da      	ldr	r2, [r3, #12]
10009f20:	2120      	movs	r1, #32
10009f22:	e7f6      	b.n	10009f12 <system_clock_peripheral_enable+0x56>
10009f24:	68da      	ldr	r2, [r3, #12]
10009f26:	2180      	movs	r1, #128	; 0x80
10009f28:	e7f3      	b.n	10009f12 <system_clock_peripheral_enable+0x56>
10009f2a:	2180      	movs	r1, #128	; 0x80
10009f2c:	68da      	ldr	r2, [r3, #12]
10009f2e:	0049      	lsls	r1, r1, #1
10009f30:	e7ef      	b.n	10009f12 <system_clock_peripheral_enable+0x56>
10009f32:	2180      	movs	r1, #128	; 0x80
10009f34:	68da      	ldr	r2, [r3, #12]
10009f36:	0109      	lsls	r1, r1, #4
10009f38:	e7eb      	b.n	10009f12 <system_clock_peripheral_enable+0x56>
10009f3a:	2180      	movs	r1, #128	; 0x80
10009f3c:	68da      	ldr	r2, [r3, #12]
10009f3e:	0149      	lsls	r1, r1, #5
10009f40:	e7e7      	b.n	10009f12 <system_clock_peripheral_enable+0x56>
10009f42:	2180      	movs	r1, #128	; 0x80
10009f44:	68da      	ldr	r2, [r3, #12]
10009f46:	0189      	lsls	r1, r1, #6
10009f48:	e7e3      	b.n	10009f12 <system_clock_peripheral_enable+0x56>
10009f4a:	2180      	movs	r1, #128	; 0x80
10009f4c:	68da      	ldr	r2, [r3, #12]
10009f4e:	01c9      	lsls	r1, r1, #7
10009f50:	e7df      	b.n	10009f12 <system_clock_peripheral_enable+0x56>
10009f52:	2180      	movs	r1, #128	; 0x80
10009f54:	68da      	ldr	r2, [r3, #12]
10009f56:	0209      	lsls	r1, r1, #8
10009f58:	e7db      	b.n	10009f12 <system_clock_peripheral_enable+0x56>
10009f5a:	2180      	movs	r1, #128	; 0x80
10009f5c:	68da      	ldr	r2, [r3, #12]
10009f5e:	0249      	lsls	r1, r1, #9
10009f60:	e7d7      	b.n	10009f12 <system_clock_peripheral_enable+0x56>
10009f62:	2180      	movs	r1, #128	; 0x80
10009f64:	68da      	ldr	r2, [r3, #12]
10009f66:	0289      	lsls	r1, r1, #10
10009f68:	e7d3      	b.n	10009f12 <system_clock_peripheral_enable+0x56>
10009f6a:	2180      	movs	r1, #128	; 0x80
10009f6c:	68da      	ldr	r2, [r3, #12]
10009f6e:	02c9      	lsls	r1, r1, #11
10009f70:	e7cf      	b.n	10009f12 <system_clock_peripheral_enable+0x56>
10009f72:	2180      	movs	r1, #128	; 0x80
10009f74:	68da      	ldr	r2, [r3, #12]
10009f76:	0309      	lsls	r1, r1, #12
10009f78:	e7cb      	b.n	10009f12 <system_clock_peripheral_enable+0x56>
10009f7a:	2180      	movs	r1, #128	; 0x80
10009f7c:	68da      	ldr	r2, [r3, #12]
10009f7e:	0349      	lsls	r1, r1, #13
10009f80:	e7c7      	b.n	10009f12 <system_clock_peripheral_enable+0x56>
10009f82:	2180      	movs	r1, #128	; 0x80
10009f84:	68da      	ldr	r2, [r3, #12]
10009f86:	0389      	lsls	r1, r1, #14
10009f88:	e7c3      	b.n	10009f12 <system_clock_peripheral_enable+0x56>
10009f8a:	2180      	movs	r1, #128	; 0x80
10009f8c:	68da      	ldr	r2, [r3, #12]
10009f8e:	03c9      	lsls	r1, r1, #15
10009f90:	e7bf      	b.n	10009f12 <system_clock_peripheral_enable+0x56>
10009f92:	2180      	movs	r1, #128	; 0x80
10009f94:	68da      	ldr	r2, [r3, #12]
10009f96:	0409      	lsls	r1, r1, #16
10009f98:	e7bb      	b.n	10009f12 <system_clock_peripheral_enable+0x56>
10009f9a:	2180      	movs	r1, #128	; 0x80
10009f9c:	68da      	ldr	r2, [r3, #12]
10009f9e:	0449      	lsls	r1, r1, #17
10009fa0:	e7b7      	b.n	10009f12 <system_clock_peripheral_enable+0x56>
10009fa2:	2180      	movs	r1, #128	; 0x80
10009fa4:	68da      	ldr	r2, [r3, #12]
10009fa6:	0489      	lsls	r1, r1, #18
10009fa8:	e7b3      	b.n	10009f12 <system_clock_peripheral_enable+0x56>
10009faa:	2180      	movs	r1, #128	; 0x80
10009fac:	68da      	ldr	r2, [r3, #12]
10009fae:	04c9      	lsls	r1, r1, #19
10009fb0:	e7af      	b.n	10009f12 <system_clock_peripheral_enable+0x56>
10009fb2:	2180      	movs	r1, #128	; 0x80
10009fb4:	68da      	ldr	r2, [r3, #12]
10009fb6:	0509      	lsls	r1, r1, #20
10009fb8:	e7ab      	b.n	10009f12 <system_clock_peripheral_enable+0x56>
10009fba:	2180      	movs	r1, #128	; 0x80
10009fbc:	68da      	ldr	r2, [r3, #12]
10009fbe:	0549      	lsls	r1, r1, #21
10009fc0:	e7a7      	b.n	10009f12 <system_clock_peripheral_enable+0x56>
10009fc2:	2180      	movs	r1, #128	; 0x80
10009fc4:	68da      	ldr	r2, [r3, #12]
10009fc6:	0589      	lsls	r1, r1, #22
10009fc8:	e7a3      	b.n	10009f12 <system_clock_peripheral_enable+0x56>
10009fca:	2180      	movs	r1, #128	; 0x80
10009fcc:	68da      	ldr	r2, [r3, #12]
10009fce:	05c9      	lsls	r1, r1, #23
10009fd0:	e79f      	b.n	10009f12 <system_clock_peripheral_enable+0x56>
10009fd2:	691a      	ldr	r2, [r3, #16]
10009fd4:	2101      	movs	r1, #1
10009fd6:	e053      	b.n	1000a080 <system_clock_peripheral_enable+0x1c4>
10009fd8:	691a      	ldr	r2, [r3, #16]
10009fda:	2102      	movs	r1, #2
10009fdc:	e050      	b.n	1000a080 <system_clock_peripheral_enable+0x1c4>
10009fde:	691a      	ldr	r2, [r3, #16]
10009fe0:	2104      	movs	r1, #4
10009fe2:	e04d      	b.n	1000a080 <system_clock_peripheral_enable+0x1c4>
10009fe4:	691a      	ldr	r2, [r3, #16]
10009fe6:	2108      	movs	r1, #8
10009fe8:	e04a      	b.n	1000a080 <system_clock_peripheral_enable+0x1c4>
10009fea:	691a      	ldr	r2, [r3, #16]
10009fec:	2110      	movs	r1, #16
10009fee:	e047      	b.n	1000a080 <system_clock_peripheral_enable+0x1c4>
10009ff0:	691a      	ldr	r2, [r3, #16]
10009ff2:	2120      	movs	r1, #32
10009ff4:	e044      	b.n	1000a080 <system_clock_peripheral_enable+0x1c4>
10009ff6:	691a      	ldr	r2, [r3, #16]
10009ff8:	2140      	movs	r1, #64	; 0x40
10009ffa:	e041      	b.n	1000a080 <system_clock_peripheral_enable+0x1c4>
10009ffc:	691a      	ldr	r2, [r3, #16]
10009ffe:	2180      	movs	r1, #128	; 0x80
1000a000:	e03e      	b.n	1000a080 <system_clock_peripheral_enable+0x1c4>
1000a002:	2180      	movs	r1, #128	; 0x80
1000a004:	691a      	ldr	r2, [r3, #16]
1000a006:	0049      	lsls	r1, r1, #1
1000a008:	e03a      	b.n	1000a080 <system_clock_peripheral_enable+0x1c4>
1000a00a:	2180      	movs	r1, #128	; 0x80
1000a00c:	691a      	ldr	r2, [r3, #16]
1000a00e:	0089      	lsls	r1, r1, #2
1000a010:	e036      	b.n	1000a080 <system_clock_peripheral_enable+0x1c4>
1000a012:	2180      	movs	r1, #128	; 0x80
1000a014:	691a      	ldr	r2, [r3, #16]
1000a016:	00c9      	lsls	r1, r1, #3
1000a018:	e032      	b.n	1000a080 <system_clock_peripheral_enable+0x1c4>
1000a01a:	2180      	movs	r1, #128	; 0x80
1000a01c:	691a      	ldr	r2, [r3, #16]
1000a01e:	0109      	lsls	r1, r1, #4
1000a020:	e02e      	b.n	1000a080 <system_clock_peripheral_enable+0x1c4>
1000a022:	2180      	movs	r1, #128	; 0x80
1000a024:	691a      	ldr	r2, [r3, #16]
1000a026:	0149      	lsls	r1, r1, #5
1000a028:	e02a      	b.n	1000a080 <system_clock_peripheral_enable+0x1c4>
1000a02a:	2180      	movs	r1, #128	; 0x80
1000a02c:	691a      	ldr	r2, [r3, #16]
1000a02e:	0189      	lsls	r1, r1, #6
1000a030:	e026      	b.n	1000a080 <system_clock_peripheral_enable+0x1c4>
1000a032:	2180      	movs	r1, #128	; 0x80
1000a034:	691a      	ldr	r2, [r3, #16]
1000a036:	01c9      	lsls	r1, r1, #7
1000a038:	e022      	b.n	1000a080 <system_clock_peripheral_enable+0x1c4>
1000a03a:	2180      	movs	r1, #128	; 0x80
1000a03c:	691a      	ldr	r2, [r3, #16]
1000a03e:	0209      	lsls	r1, r1, #8
1000a040:	e01e      	b.n	1000a080 <system_clock_peripheral_enable+0x1c4>
1000a042:	2180      	movs	r1, #128	; 0x80
1000a044:	691a      	ldr	r2, [r3, #16]
1000a046:	0249      	lsls	r1, r1, #9
1000a048:	e01a      	b.n	1000a080 <system_clock_peripheral_enable+0x1c4>
1000a04a:	2180      	movs	r1, #128	; 0x80
1000a04c:	691a      	ldr	r2, [r3, #16]
1000a04e:	0289      	lsls	r1, r1, #10
1000a050:	e016      	b.n	1000a080 <system_clock_peripheral_enable+0x1c4>
1000a052:	2180      	movs	r1, #128	; 0x80
1000a054:	691a      	ldr	r2, [r3, #16]
1000a056:	02c9      	lsls	r1, r1, #11
1000a058:	e012      	b.n	1000a080 <system_clock_peripheral_enable+0x1c4>
1000a05a:	2180      	movs	r1, #128	; 0x80
1000a05c:	691a      	ldr	r2, [r3, #16]
1000a05e:	0309      	lsls	r1, r1, #12
1000a060:	e00e      	b.n	1000a080 <system_clock_peripheral_enable+0x1c4>
1000a062:	2180      	movs	r1, #128	; 0x80
1000a064:	691a      	ldr	r2, [r3, #16]
1000a066:	0349      	lsls	r1, r1, #13
1000a068:	e00a      	b.n	1000a080 <system_clock_peripheral_enable+0x1c4>
1000a06a:	2180      	movs	r1, #128	; 0x80
1000a06c:	691a      	ldr	r2, [r3, #16]
1000a06e:	0389      	lsls	r1, r1, #14
1000a070:	e006      	b.n	1000a080 <system_clock_peripheral_enable+0x1c4>
1000a072:	2180      	movs	r1, #128	; 0x80
1000a074:	691a      	ldr	r2, [r3, #16]
1000a076:	03c9      	lsls	r1, r1, #15
1000a078:	e002      	b.n	1000a080 <system_clock_peripheral_enable+0x1c4>
1000a07a:	2180      	movs	r1, #128	; 0x80
1000a07c:	691a      	ldr	r2, [r3, #16]
1000a07e:	0409      	lsls	r1, r1, #16
1000a080:	430a      	orrs	r2, r1
1000a082:	611a      	str	r2, [r3, #16]
1000a084:	e009      	b.n	1000a09a <system_clock_peripheral_enable+0x1de>
1000a086:	7d1a      	ldrb	r2, [r3, #20]
1000a088:	2101      	movs	r1, #1
1000a08a:	e004      	b.n	1000a096 <system_clock_peripheral_enable+0x1da>
1000a08c:	7d1a      	ldrb	r2, [r3, #20]
1000a08e:	2102      	movs	r1, #2
1000a090:	e001      	b.n	1000a096 <system_clock_peripheral_enable+0x1da>
1000a092:	2104      	movs	r1, #4
1000a094:	7d1a      	ldrb	r2, [r3, #20]
1000a096:	430a      	orrs	r2, r1
1000a098:	751a      	strb	r2, [r3, #20]
1000a09a:	2300      	movs	r3, #0
1000a09c:	0018      	movs	r0, r3
1000a09e:	bd00      	pop	{pc}
1000a0a0:	4000b000 	.word	0x4000b000

1000a0a4 <system_clock_peripheral_disable>:
1000a0a4:	b500      	push	{lr}
1000a0a6:	2317      	movs	r3, #23
1000a0a8:	2835      	cmp	r0, #53	; 0x35
1000a0aa:	d900      	bls.n	1000a0ae <system_clock_peripheral_disable+0xa>
1000a0ac:	e0c7      	b.n	1000a23e <system_clock_peripheral_disable+0x19a>
1000a0ae:	4b65      	ldr	r3, [pc, #404]	; (1000a244 <system_clock_peripheral_disable+0x1a0>)
1000a0b0:	f005 fc68 	bl	1000f984 <__gnu_thumb1_case_uqi>
1000a0b4:	26211e1b 	.word	0x26211e1b
1000a0b8:	322f2c29 	.word	0x322f2c29
1000a0bc:	3e3b3835 	.word	0x3e3b3835
1000a0c0:	4a474441 	.word	0x4a474441
1000a0c4:	5653504d 	.word	0x5653504d
1000a0c8:	625f5c59 	.word	0x625f5c59
1000a0cc:	6f6b6865 	.word	0x6f6b6865
1000a0d0:	7b787572 	.word	0x7b787572
1000a0d4:	8884817e 	.word	0x8884817e
1000a0d8:	94918e8b 	.word	0x94918e8b
1000a0dc:	a09d9a97 	.word	0xa09d9a97
1000a0e0:	aca9a6a3 	.word	0xaca9a6a3
1000a0e4:	bab5b2af 	.word	0xbab5b2af
1000a0e8:	c0bd      	.short	0xc0bd
1000a0ea:	68da      	ldr	r2, [r3, #12]
1000a0ec:	2102      	movs	r1, #2
1000a0ee:	e004      	b.n	1000a0fa <system_clock_peripheral_disable+0x56>
1000a0f0:	68da      	ldr	r2, [r3, #12]
1000a0f2:	2104      	movs	r1, #4
1000a0f4:	e001      	b.n	1000a0fa <system_clock_peripheral_disable+0x56>
1000a0f6:	2108      	movs	r1, #8
1000a0f8:	68da      	ldr	r2, [r3, #12]
1000a0fa:	438a      	bics	r2, r1
1000a0fc:	60da      	str	r2, [r3, #12]
1000a0fe:	e09d      	b.n	1000a23c <system_clock_peripheral_disable+0x198>
1000a100:	68da      	ldr	r2, [r3, #12]
1000a102:	2110      	movs	r1, #16
1000a104:	e7f9      	b.n	1000a0fa <system_clock_peripheral_disable+0x56>
1000a106:	68da      	ldr	r2, [r3, #12]
1000a108:	2120      	movs	r1, #32
1000a10a:	e7f6      	b.n	1000a0fa <system_clock_peripheral_disable+0x56>
1000a10c:	68da      	ldr	r2, [r3, #12]
1000a10e:	2180      	movs	r1, #128	; 0x80
1000a110:	e7f3      	b.n	1000a0fa <system_clock_peripheral_disable+0x56>
1000a112:	68d9      	ldr	r1, [r3, #12]
1000a114:	4a4c      	ldr	r2, [pc, #304]	; (1000a248 <system_clock_peripheral_disable+0x1a4>)
1000a116:	e03a      	b.n	1000a18e <system_clock_peripheral_disable+0xea>
1000a118:	68d9      	ldr	r1, [r3, #12]
1000a11a:	4a4c      	ldr	r2, [pc, #304]	; (1000a24c <system_clock_peripheral_disable+0x1a8>)
1000a11c:	e037      	b.n	1000a18e <system_clock_peripheral_disable+0xea>
1000a11e:	68d9      	ldr	r1, [r3, #12]
1000a120:	4a4b      	ldr	r2, [pc, #300]	; (1000a250 <system_clock_peripheral_disable+0x1ac>)
1000a122:	e034      	b.n	1000a18e <system_clock_peripheral_disable+0xea>
1000a124:	68d9      	ldr	r1, [r3, #12]
1000a126:	4a4b      	ldr	r2, [pc, #300]	; (1000a254 <system_clock_peripheral_disable+0x1b0>)
1000a128:	e031      	b.n	1000a18e <system_clock_peripheral_disable+0xea>
1000a12a:	68d9      	ldr	r1, [r3, #12]
1000a12c:	4a4a      	ldr	r2, [pc, #296]	; (1000a258 <system_clock_peripheral_disable+0x1b4>)
1000a12e:	e02e      	b.n	1000a18e <system_clock_peripheral_disable+0xea>
1000a130:	68d9      	ldr	r1, [r3, #12]
1000a132:	4a4a      	ldr	r2, [pc, #296]	; (1000a25c <system_clock_peripheral_disable+0x1b8>)
1000a134:	e02b      	b.n	1000a18e <system_clock_peripheral_disable+0xea>
1000a136:	68d9      	ldr	r1, [r3, #12]
1000a138:	4a49      	ldr	r2, [pc, #292]	; (1000a260 <system_clock_peripheral_disable+0x1bc>)
1000a13a:	e028      	b.n	1000a18e <system_clock_peripheral_disable+0xea>
1000a13c:	68d9      	ldr	r1, [r3, #12]
1000a13e:	4a49      	ldr	r2, [pc, #292]	; (1000a264 <system_clock_peripheral_disable+0x1c0>)
1000a140:	e025      	b.n	1000a18e <system_clock_peripheral_disable+0xea>
1000a142:	68d9      	ldr	r1, [r3, #12]
1000a144:	4a48      	ldr	r2, [pc, #288]	; (1000a268 <system_clock_peripheral_disable+0x1c4>)
1000a146:	e022      	b.n	1000a18e <system_clock_peripheral_disable+0xea>
1000a148:	68d9      	ldr	r1, [r3, #12]
1000a14a:	4a48      	ldr	r2, [pc, #288]	; (1000a26c <system_clock_peripheral_disable+0x1c8>)
1000a14c:	e01f      	b.n	1000a18e <system_clock_peripheral_disable+0xea>
1000a14e:	68d9      	ldr	r1, [r3, #12]
1000a150:	4a47      	ldr	r2, [pc, #284]	; (1000a270 <system_clock_peripheral_disable+0x1cc>)
1000a152:	e01c      	b.n	1000a18e <system_clock_peripheral_disable+0xea>
1000a154:	68d9      	ldr	r1, [r3, #12]
1000a156:	4a47      	ldr	r2, [pc, #284]	; (1000a274 <system_clock_peripheral_disable+0x1d0>)
1000a158:	e019      	b.n	1000a18e <system_clock_peripheral_disable+0xea>
1000a15a:	68d9      	ldr	r1, [r3, #12]
1000a15c:	4a46      	ldr	r2, [pc, #280]	; (1000a278 <system_clock_peripheral_disable+0x1d4>)
1000a15e:	e016      	b.n	1000a18e <system_clock_peripheral_disable+0xea>
1000a160:	68d9      	ldr	r1, [r3, #12]
1000a162:	4a46      	ldr	r2, [pc, #280]	; (1000a27c <system_clock_peripheral_disable+0x1d8>)
1000a164:	e013      	b.n	1000a18e <system_clock_peripheral_disable+0xea>
1000a166:	68d9      	ldr	r1, [r3, #12]
1000a168:	4a45      	ldr	r2, [pc, #276]	; (1000a280 <system_clock_peripheral_disable+0x1dc>)
1000a16a:	e010      	b.n	1000a18e <system_clock_peripheral_disable+0xea>
1000a16c:	68d9      	ldr	r1, [r3, #12]
1000a16e:	4a45      	ldr	r2, [pc, #276]	; (1000a284 <system_clock_peripheral_disable+0x1e0>)
1000a170:	e00d      	b.n	1000a18e <system_clock_peripheral_disable+0xea>
1000a172:	68d9      	ldr	r1, [r3, #12]
1000a174:	4a44      	ldr	r2, [pc, #272]	; (1000a288 <system_clock_peripheral_disable+0x1e4>)
1000a176:	e00a      	b.n	1000a18e <system_clock_peripheral_disable+0xea>
1000a178:	68d9      	ldr	r1, [r3, #12]
1000a17a:	4a44      	ldr	r2, [pc, #272]	; (1000a28c <system_clock_peripheral_disable+0x1e8>)
1000a17c:	e007      	b.n	1000a18e <system_clock_peripheral_disable+0xea>
1000a17e:	68d9      	ldr	r1, [r3, #12]
1000a180:	4a43      	ldr	r2, [pc, #268]	; (1000a290 <system_clock_peripheral_disable+0x1ec>)
1000a182:	e004      	b.n	1000a18e <system_clock_peripheral_disable+0xea>
1000a184:	68d9      	ldr	r1, [r3, #12]
1000a186:	4a43      	ldr	r2, [pc, #268]	; (1000a294 <system_clock_peripheral_disable+0x1f0>)
1000a188:	e001      	b.n	1000a18e <system_clock_peripheral_disable+0xea>
1000a18a:	68d9      	ldr	r1, [r3, #12]
1000a18c:	4a42      	ldr	r2, [pc, #264]	; (1000a298 <system_clock_peripheral_disable+0x1f4>)
1000a18e:	400a      	ands	r2, r1
1000a190:	e7b4      	b.n	1000a0fc <system_clock_peripheral_disable+0x58>
1000a192:	691a      	ldr	r2, [r3, #16]
1000a194:	2101      	movs	r1, #1
1000a196:	e013      	b.n	1000a1c0 <system_clock_peripheral_disable+0x11c>
1000a198:	691a      	ldr	r2, [r3, #16]
1000a19a:	2102      	movs	r1, #2
1000a19c:	e010      	b.n	1000a1c0 <system_clock_peripheral_disable+0x11c>
1000a19e:	691a      	ldr	r2, [r3, #16]
1000a1a0:	2104      	movs	r1, #4
1000a1a2:	e00d      	b.n	1000a1c0 <system_clock_peripheral_disable+0x11c>
1000a1a4:	691a      	ldr	r2, [r3, #16]
1000a1a6:	2108      	movs	r1, #8
1000a1a8:	e00a      	b.n	1000a1c0 <system_clock_peripheral_disable+0x11c>
1000a1aa:	691a      	ldr	r2, [r3, #16]
1000a1ac:	2110      	movs	r1, #16
1000a1ae:	e007      	b.n	1000a1c0 <system_clock_peripheral_disable+0x11c>
1000a1b0:	691a      	ldr	r2, [r3, #16]
1000a1b2:	2120      	movs	r1, #32
1000a1b4:	e004      	b.n	1000a1c0 <system_clock_peripheral_disable+0x11c>
1000a1b6:	691a      	ldr	r2, [r3, #16]
1000a1b8:	2140      	movs	r1, #64	; 0x40
1000a1ba:	e001      	b.n	1000a1c0 <system_clock_peripheral_disable+0x11c>
1000a1bc:	2180      	movs	r1, #128	; 0x80
1000a1be:	691a      	ldr	r2, [r3, #16]
1000a1c0:	438a      	bics	r2, r1
1000a1c2:	e02f      	b.n	1000a224 <system_clock_peripheral_disable+0x180>
1000a1c4:	6919      	ldr	r1, [r3, #16]
1000a1c6:	4a20      	ldr	r2, [pc, #128]	; (1000a248 <system_clock_peripheral_disable+0x1a4>)
1000a1c8:	e02b      	b.n	1000a222 <system_clock_peripheral_disable+0x17e>
1000a1ca:	6919      	ldr	r1, [r3, #16]
1000a1cc:	4a33      	ldr	r2, [pc, #204]	; (1000a29c <system_clock_peripheral_disable+0x1f8>)
1000a1ce:	e028      	b.n	1000a222 <system_clock_peripheral_disable+0x17e>
1000a1d0:	6919      	ldr	r1, [r3, #16]
1000a1d2:	4a33      	ldr	r2, [pc, #204]	; (1000a2a0 <system_clock_peripheral_disable+0x1fc>)
1000a1d4:	e025      	b.n	1000a222 <system_clock_peripheral_disable+0x17e>
1000a1d6:	6919      	ldr	r1, [r3, #16]
1000a1d8:	4a1c      	ldr	r2, [pc, #112]	; (1000a24c <system_clock_peripheral_disable+0x1a8>)
1000a1da:	e022      	b.n	1000a222 <system_clock_peripheral_disable+0x17e>
1000a1dc:	6919      	ldr	r1, [r3, #16]
1000a1de:	4a1c      	ldr	r2, [pc, #112]	; (1000a250 <system_clock_peripheral_disable+0x1ac>)
1000a1e0:	e01f      	b.n	1000a222 <system_clock_peripheral_disable+0x17e>
1000a1e2:	6919      	ldr	r1, [r3, #16]
1000a1e4:	4a1b      	ldr	r2, [pc, #108]	; (1000a254 <system_clock_peripheral_disable+0x1b0>)
1000a1e6:	e01c      	b.n	1000a222 <system_clock_peripheral_disable+0x17e>
1000a1e8:	6919      	ldr	r1, [r3, #16]
1000a1ea:	4a1b      	ldr	r2, [pc, #108]	; (1000a258 <system_clock_peripheral_disable+0x1b4>)
1000a1ec:	e019      	b.n	1000a222 <system_clock_peripheral_disable+0x17e>
1000a1ee:	6919      	ldr	r1, [r3, #16]
1000a1f0:	4a1a      	ldr	r2, [pc, #104]	; (1000a25c <system_clock_peripheral_disable+0x1b8>)
1000a1f2:	e016      	b.n	1000a222 <system_clock_peripheral_disable+0x17e>
1000a1f4:	6919      	ldr	r1, [r3, #16]
1000a1f6:	4a1a      	ldr	r2, [pc, #104]	; (1000a260 <system_clock_peripheral_disable+0x1bc>)
1000a1f8:	e013      	b.n	1000a222 <system_clock_peripheral_disable+0x17e>
1000a1fa:	6919      	ldr	r1, [r3, #16]
1000a1fc:	4a19      	ldr	r2, [pc, #100]	; (1000a264 <system_clock_peripheral_disable+0x1c0>)
1000a1fe:	e010      	b.n	1000a222 <system_clock_peripheral_disable+0x17e>
1000a200:	6919      	ldr	r1, [r3, #16]
1000a202:	4a19      	ldr	r2, [pc, #100]	; (1000a268 <system_clock_peripheral_disable+0x1c4>)
1000a204:	e00d      	b.n	1000a222 <system_clock_peripheral_disable+0x17e>
1000a206:	6919      	ldr	r1, [r3, #16]
1000a208:	4a18      	ldr	r2, [pc, #96]	; (1000a26c <system_clock_peripheral_disable+0x1c8>)
1000a20a:	e00a      	b.n	1000a222 <system_clock_peripheral_disable+0x17e>
1000a20c:	6919      	ldr	r1, [r3, #16]
1000a20e:	4a18      	ldr	r2, [pc, #96]	; (1000a270 <system_clock_peripheral_disable+0x1cc>)
1000a210:	e007      	b.n	1000a222 <system_clock_peripheral_disable+0x17e>
1000a212:	6919      	ldr	r1, [r3, #16]
1000a214:	4a17      	ldr	r2, [pc, #92]	; (1000a274 <system_clock_peripheral_disable+0x1d0>)
1000a216:	e004      	b.n	1000a222 <system_clock_peripheral_disable+0x17e>
1000a218:	6919      	ldr	r1, [r3, #16]
1000a21a:	4a17      	ldr	r2, [pc, #92]	; (1000a278 <system_clock_peripheral_disable+0x1d4>)
1000a21c:	e001      	b.n	1000a222 <system_clock_peripheral_disable+0x17e>
1000a21e:	6919      	ldr	r1, [r3, #16]
1000a220:	4a16      	ldr	r2, [pc, #88]	; (1000a27c <system_clock_peripheral_disable+0x1d8>)
1000a222:	400a      	ands	r2, r1
1000a224:	611a      	str	r2, [r3, #16]
1000a226:	e009      	b.n	1000a23c <system_clock_peripheral_disable+0x198>
1000a228:	7d1a      	ldrb	r2, [r3, #20]
1000a22a:	2101      	movs	r1, #1
1000a22c:	e004      	b.n	1000a238 <system_clock_peripheral_disable+0x194>
1000a22e:	7d1a      	ldrb	r2, [r3, #20]
1000a230:	2102      	movs	r1, #2
1000a232:	e001      	b.n	1000a238 <system_clock_peripheral_disable+0x194>
1000a234:	2104      	movs	r1, #4
1000a236:	7d1a      	ldrb	r2, [r3, #20]
1000a238:	438a      	bics	r2, r1
1000a23a:	751a      	strb	r2, [r3, #20]
1000a23c:	2300      	movs	r3, #0
1000a23e:	0018      	movs	r0, r3
1000a240:	bd00      	pop	{pc}
1000a242:	46c0      	nop			; (mov r8, r8)
1000a244:	4000b000 	.word	0x4000b000
1000a248:	fffffeff 	.word	0xfffffeff
1000a24c:	fffff7ff 	.word	0xfffff7ff
1000a250:	ffffefff 	.word	0xffffefff
1000a254:	ffffdfff 	.word	0xffffdfff
1000a258:	ffffbfff 	.word	0xffffbfff
1000a25c:	ffff7fff 	.word	0xffff7fff
1000a260:	fffeffff 	.word	0xfffeffff
1000a264:	fffdffff 	.word	0xfffdffff
1000a268:	fffbffff 	.word	0xfffbffff
1000a26c:	fff7ffff 	.word	0xfff7ffff
1000a270:	ffefffff 	.word	0xffefffff
1000a274:	ffdfffff 	.word	0xffdfffff
1000a278:	ffbfffff 	.word	0xffbfffff
1000a27c:	ff7fffff 	.word	0xff7fffff
1000a280:	feffffff 	.word	0xfeffffff
1000a284:	fdffffff 	.word	0xfdffffff
1000a288:	fbffffff 	.word	0xfbffffff
1000a28c:	f7ffffff 	.word	0xf7ffffff
1000a290:	efffffff 	.word	0xefffffff
1000a294:	dfffffff 	.word	0xdfffffff
1000a298:	bfffffff 	.word	0xbfffffff
1000a29c:	fffffdff 	.word	0xfffffdff
1000a2a0:	fffffbff 	.word	0xfffffbff

1000a2a4 <system_peripheral_reset>:
1000a2a4:	b500      	push	{lr}
1000a2a6:	2843      	cmp	r0, #67	; 0x43
1000a2a8:	d900      	bls.n	1000a2ac <system_peripheral_reset+0x8>
1000a2aa:	e18c      	b.n	1000a5c6 <system_peripheral_reset+0x322>
1000a2ac:	f005 fb74 	bl	1000f998 <__gnu_thumb1_case_uhi>
1000a2b0:	00550048 	.word	0x00550048
1000a2b4:	0065005d 	.word	0x0065005d
1000a2b8:	00770140 	.word	0x00770140
1000a2bc:	00ad0080 	.word	0x00ad0080
1000a2c0:	008900b6 	.word	0x008900b6
1000a2c4:	009b0092 	.word	0x009b0092
1000a2c8:	00bf00a4 	.word	0x00bf00a4
1000a2cc:	018b018b 	.word	0x018b018b
1000a2d0:	018b018b 	.word	0x018b018b
1000a2d4:	018b018b 	.word	0x018b018b
1000a2d8:	018b018b 	.word	0x018b018b
1000a2dc:	010700fe 	.word	0x010700fe
1000a2e0:	01440110 	.word	0x01440110
1000a2e4:	018b00d1 	.word	0x018b00d1
1000a2e8:	018b018b 	.word	0x018b018b
1000a2ec:	018b018b 	.word	0x018b018b
1000a2f0:	0119018b 	.word	0x0119018b
1000a2f4:	012b0122 	.word	0x012b0122
1000a2f8:	018b0135 	.word	0x018b0135
1000a2fc:	0176016d 	.word	0x0176016d
1000a300:	018b018b 	.word	0x018b018b
1000a304:	01540150 	.word	0x01540150
1000a308:	015c0158 	.word	0x015c0158
1000a30c:	018b018b 	.word	0x018b018b
1000a310:	018b018b 	.word	0x018b018b
1000a314:	018b018b 	.word	0x018b018b
1000a318:	018b018b 	.word	0x018b018b
1000a31c:	004c0044 	.word	0x004c0044
1000a320:	00610059 	.word	0x00610059
1000a324:	00c8006e 	.word	0x00c8006e
1000a328:	00e300da 	.word	0x00e300da
1000a32c:	00f500ec 	.word	0x00f500ec
1000a330:	0160014c 	.word	0x0160014c
1000a334:	01820164 	.word	0x01820164
1000a338:	4ba4      	ldr	r3, [pc, #656]	; (1000a5cc <system_peripheral_reset+0x328>)
1000a33a:	2002      	movs	r0, #2
1000a33c:	6859      	ldr	r1, [r3, #4]
1000a33e:	e006      	b.n	1000a34e <system_peripheral_reset+0xaa>
1000a340:	4ba2      	ldr	r3, [pc, #648]	; (1000a5cc <system_peripheral_reset+0x328>)
1000a342:	2004      	movs	r0, #4
1000a344:	6859      	ldr	r1, [r3, #4]
1000a346:	e002      	b.n	1000a34e <system_peripheral_reset+0xaa>
1000a348:	2008      	movs	r0, #8
1000a34a:	4ba0      	ldr	r3, [pc, #640]	; (1000a5cc <system_peripheral_reset+0x328>)
1000a34c:	6859      	ldr	r1, [r3, #4]
1000a34e:	4381      	bics	r1, r0
1000a350:	6059      	str	r1, [r3, #4]
1000a352:	685a      	ldr	r2, [r3, #4]
1000a354:	4302      	orrs	r2, r0
1000a356:	605a      	str	r2, [r3, #4]
1000a358:	e12a      	b.n	1000a5b0 <system_peripheral_reset+0x30c>
1000a35a:	4b9c      	ldr	r3, [pc, #624]	; (1000a5cc <system_peripheral_reset+0x328>)
1000a35c:	2010      	movs	r0, #16
1000a35e:	6859      	ldr	r1, [r3, #4]
1000a360:	e7f5      	b.n	1000a34e <system_peripheral_reset+0xaa>
1000a362:	4b9a      	ldr	r3, [pc, #616]	; (1000a5cc <system_peripheral_reset+0x328>)
1000a364:	2020      	movs	r0, #32
1000a366:	6859      	ldr	r1, [r3, #4]
1000a368:	e7f1      	b.n	1000a34e <system_peripheral_reset+0xaa>
1000a36a:	4b98      	ldr	r3, [pc, #608]	; (1000a5cc <system_peripheral_reset+0x328>)
1000a36c:	2040      	movs	r0, #64	; 0x40
1000a36e:	6859      	ldr	r1, [r3, #4]
1000a370:	e7ed      	b.n	1000a34e <system_peripheral_reset+0xaa>
1000a372:	4b96      	ldr	r3, [pc, #600]	; (1000a5cc <system_peripheral_reset+0x328>)
1000a374:	2080      	movs	r0, #128	; 0x80
1000a376:	6859      	ldr	r1, [r3, #4]
1000a378:	e7e9      	b.n	1000a34e <system_peripheral_reset+0xaa>
1000a37a:	4b94      	ldr	r3, [pc, #592]	; (1000a5cc <system_peripheral_reset+0x328>)
1000a37c:	4a94      	ldr	r2, [pc, #592]	; (1000a5d0 <system_peripheral_reset+0x32c>)
1000a37e:	6859      	ldr	r1, [r3, #4]
1000a380:	400a      	ands	r2, r1
1000a382:	2180      	movs	r1, #128	; 0x80
1000a384:	605a      	str	r2, [r3, #4]
1000a386:	685a      	ldr	r2, [r3, #4]
1000a388:	0049      	lsls	r1, r1, #1
1000a38a:	e0c4      	b.n	1000a516 <system_peripheral_reset+0x272>
1000a38c:	4b8f      	ldr	r3, [pc, #572]	; (1000a5cc <system_peripheral_reset+0x328>)
1000a38e:	4a91      	ldr	r2, [pc, #580]	; (1000a5d4 <system_peripheral_reset+0x330>)
1000a390:	6859      	ldr	r1, [r3, #4]
1000a392:	400a      	ands	r2, r1
1000a394:	2180      	movs	r1, #128	; 0x80
1000a396:	605a      	str	r2, [r3, #4]
1000a398:	685a      	ldr	r2, [r3, #4]
1000a39a:	0089      	lsls	r1, r1, #2
1000a39c:	e0bb      	b.n	1000a516 <system_peripheral_reset+0x272>
1000a39e:	4b8b      	ldr	r3, [pc, #556]	; (1000a5cc <system_peripheral_reset+0x328>)
1000a3a0:	4a8d      	ldr	r2, [pc, #564]	; (1000a5d8 <system_peripheral_reset+0x334>)
1000a3a2:	6859      	ldr	r1, [r3, #4]
1000a3a4:	400a      	ands	r2, r1
1000a3a6:	2180      	movs	r1, #128	; 0x80
1000a3a8:	605a      	str	r2, [r3, #4]
1000a3aa:	685a      	ldr	r2, [r3, #4]
1000a3ac:	00c9      	lsls	r1, r1, #3
1000a3ae:	e0b2      	b.n	1000a516 <system_peripheral_reset+0x272>
1000a3b0:	4b86      	ldr	r3, [pc, #536]	; (1000a5cc <system_peripheral_reset+0x328>)
1000a3b2:	4a8a      	ldr	r2, [pc, #552]	; (1000a5dc <system_peripheral_reset+0x338>)
1000a3b4:	6859      	ldr	r1, [r3, #4]
1000a3b6:	400a      	ands	r2, r1
1000a3b8:	2180      	movs	r1, #128	; 0x80
1000a3ba:	605a      	str	r2, [r3, #4]
1000a3bc:	685a      	ldr	r2, [r3, #4]
1000a3be:	0109      	lsls	r1, r1, #4
1000a3c0:	e0a9      	b.n	1000a516 <system_peripheral_reset+0x272>
1000a3c2:	4b82      	ldr	r3, [pc, #520]	; (1000a5cc <system_peripheral_reset+0x328>)
1000a3c4:	4a86      	ldr	r2, [pc, #536]	; (1000a5e0 <system_peripheral_reset+0x33c>)
1000a3c6:	6859      	ldr	r1, [r3, #4]
1000a3c8:	400a      	ands	r2, r1
1000a3ca:	2180      	movs	r1, #128	; 0x80
1000a3cc:	605a      	str	r2, [r3, #4]
1000a3ce:	685a      	ldr	r2, [r3, #4]
1000a3d0:	0149      	lsls	r1, r1, #5
1000a3d2:	e0a0      	b.n	1000a516 <system_peripheral_reset+0x272>
1000a3d4:	4b7d      	ldr	r3, [pc, #500]	; (1000a5cc <system_peripheral_reset+0x328>)
1000a3d6:	4a83      	ldr	r2, [pc, #524]	; (1000a5e4 <system_peripheral_reset+0x340>)
1000a3d8:	6859      	ldr	r1, [r3, #4]
1000a3da:	400a      	ands	r2, r1
1000a3dc:	2180      	movs	r1, #128	; 0x80
1000a3de:	605a      	str	r2, [r3, #4]
1000a3e0:	685a      	ldr	r2, [r3, #4]
1000a3e2:	0189      	lsls	r1, r1, #6
1000a3e4:	e097      	b.n	1000a516 <system_peripheral_reset+0x272>
1000a3e6:	4b79      	ldr	r3, [pc, #484]	; (1000a5cc <system_peripheral_reset+0x328>)
1000a3e8:	4a7f      	ldr	r2, [pc, #508]	; (1000a5e8 <system_peripheral_reset+0x344>)
1000a3ea:	6859      	ldr	r1, [r3, #4]
1000a3ec:	400a      	ands	r2, r1
1000a3ee:	2180      	movs	r1, #128	; 0x80
1000a3f0:	605a      	str	r2, [r3, #4]
1000a3f2:	685a      	ldr	r2, [r3, #4]
1000a3f4:	01c9      	lsls	r1, r1, #7
1000a3f6:	e08e      	b.n	1000a516 <system_peripheral_reset+0x272>
1000a3f8:	4b74      	ldr	r3, [pc, #464]	; (1000a5cc <system_peripheral_reset+0x328>)
1000a3fa:	4a7c      	ldr	r2, [pc, #496]	; (1000a5ec <system_peripheral_reset+0x348>)
1000a3fc:	6859      	ldr	r1, [r3, #4]
1000a3fe:	400a      	ands	r2, r1
1000a400:	2180      	movs	r1, #128	; 0x80
1000a402:	605a      	str	r2, [r3, #4]
1000a404:	685a      	ldr	r2, [r3, #4]
1000a406:	0209      	lsls	r1, r1, #8
1000a408:	e085      	b.n	1000a516 <system_peripheral_reset+0x272>
1000a40a:	4b70      	ldr	r3, [pc, #448]	; (1000a5cc <system_peripheral_reset+0x328>)
1000a40c:	4a78      	ldr	r2, [pc, #480]	; (1000a5f0 <system_peripheral_reset+0x34c>)
1000a40e:	6859      	ldr	r1, [r3, #4]
1000a410:	400a      	ands	r2, r1
1000a412:	2180      	movs	r1, #128	; 0x80
1000a414:	605a      	str	r2, [r3, #4]
1000a416:	685a      	ldr	r2, [r3, #4]
1000a418:	0249      	lsls	r1, r1, #9
1000a41a:	e07c      	b.n	1000a516 <system_peripheral_reset+0x272>
1000a41c:	4b6b      	ldr	r3, [pc, #428]	; (1000a5cc <system_peripheral_reset+0x328>)
1000a41e:	4a75      	ldr	r2, [pc, #468]	; (1000a5f4 <system_peripheral_reset+0x350>)
1000a420:	6859      	ldr	r1, [r3, #4]
1000a422:	400a      	ands	r2, r1
1000a424:	2180      	movs	r1, #128	; 0x80
1000a426:	605a      	str	r2, [r3, #4]
1000a428:	685a      	ldr	r2, [r3, #4]
1000a42a:	0289      	lsls	r1, r1, #10
1000a42c:	e073      	b.n	1000a516 <system_peripheral_reset+0x272>
1000a42e:	4b67      	ldr	r3, [pc, #412]	; (1000a5cc <system_peripheral_reset+0x328>)
1000a430:	4a71      	ldr	r2, [pc, #452]	; (1000a5f8 <system_peripheral_reset+0x354>)
1000a432:	6859      	ldr	r1, [r3, #4]
1000a434:	400a      	ands	r2, r1
1000a436:	2180      	movs	r1, #128	; 0x80
1000a438:	605a      	str	r2, [r3, #4]
1000a43a:	685a      	ldr	r2, [r3, #4]
1000a43c:	02c9      	lsls	r1, r1, #11
1000a43e:	e06a      	b.n	1000a516 <system_peripheral_reset+0x272>
1000a440:	4b62      	ldr	r3, [pc, #392]	; (1000a5cc <system_peripheral_reset+0x328>)
1000a442:	4a6e      	ldr	r2, [pc, #440]	; (1000a5fc <system_peripheral_reset+0x358>)
1000a444:	6859      	ldr	r1, [r3, #4]
1000a446:	400a      	ands	r2, r1
1000a448:	2180      	movs	r1, #128	; 0x80
1000a44a:	605a      	str	r2, [r3, #4]
1000a44c:	685a      	ldr	r2, [r3, #4]
1000a44e:	0309      	lsls	r1, r1, #12
1000a450:	e061      	b.n	1000a516 <system_peripheral_reset+0x272>
1000a452:	4b5e      	ldr	r3, [pc, #376]	; (1000a5cc <system_peripheral_reset+0x328>)
1000a454:	4a6a      	ldr	r2, [pc, #424]	; (1000a600 <system_peripheral_reset+0x35c>)
1000a456:	6859      	ldr	r1, [r3, #4]
1000a458:	400a      	ands	r2, r1
1000a45a:	2180      	movs	r1, #128	; 0x80
1000a45c:	605a      	str	r2, [r3, #4]
1000a45e:	685a      	ldr	r2, [r3, #4]
1000a460:	0349      	lsls	r1, r1, #13
1000a462:	e058      	b.n	1000a516 <system_peripheral_reset+0x272>
1000a464:	4b59      	ldr	r3, [pc, #356]	; (1000a5cc <system_peripheral_reset+0x328>)
1000a466:	4a67      	ldr	r2, [pc, #412]	; (1000a604 <system_peripheral_reset+0x360>)
1000a468:	6859      	ldr	r1, [r3, #4]
1000a46a:	400a      	ands	r2, r1
1000a46c:	2180      	movs	r1, #128	; 0x80
1000a46e:	605a      	str	r2, [r3, #4]
1000a470:	685a      	ldr	r2, [r3, #4]
1000a472:	0389      	lsls	r1, r1, #14
1000a474:	e04f      	b.n	1000a516 <system_peripheral_reset+0x272>
1000a476:	4b55      	ldr	r3, [pc, #340]	; (1000a5cc <system_peripheral_reset+0x328>)
1000a478:	4a63      	ldr	r2, [pc, #396]	; (1000a608 <system_peripheral_reset+0x364>)
1000a47a:	6859      	ldr	r1, [r3, #4]
1000a47c:	400a      	ands	r2, r1
1000a47e:	2180      	movs	r1, #128	; 0x80
1000a480:	605a      	str	r2, [r3, #4]
1000a482:	685a      	ldr	r2, [r3, #4]
1000a484:	03c9      	lsls	r1, r1, #15
1000a486:	e046      	b.n	1000a516 <system_peripheral_reset+0x272>
1000a488:	4b50      	ldr	r3, [pc, #320]	; (1000a5cc <system_peripheral_reset+0x328>)
1000a48a:	4a60      	ldr	r2, [pc, #384]	; (1000a60c <system_peripheral_reset+0x368>)
1000a48c:	6859      	ldr	r1, [r3, #4]
1000a48e:	400a      	ands	r2, r1
1000a490:	2180      	movs	r1, #128	; 0x80
1000a492:	605a      	str	r2, [r3, #4]
1000a494:	685a      	ldr	r2, [r3, #4]
1000a496:	0409      	lsls	r1, r1, #16
1000a498:	e03d      	b.n	1000a516 <system_peripheral_reset+0x272>
1000a49a:	4b4c      	ldr	r3, [pc, #304]	; (1000a5cc <system_peripheral_reset+0x328>)
1000a49c:	4a5c      	ldr	r2, [pc, #368]	; (1000a610 <system_peripheral_reset+0x36c>)
1000a49e:	6859      	ldr	r1, [r3, #4]
1000a4a0:	400a      	ands	r2, r1
1000a4a2:	2180      	movs	r1, #128	; 0x80
1000a4a4:	605a      	str	r2, [r3, #4]
1000a4a6:	685a      	ldr	r2, [r3, #4]
1000a4a8:	0449      	lsls	r1, r1, #17
1000a4aa:	e034      	b.n	1000a516 <system_peripheral_reset+0x272>
1000a4ac:	4b47      	ldr	r3, [pc, #284]	; (1000a5cc <system_peripheral_reset+0x328>)
1000a4ae:	4a59      	ldr	r2, [pc, #356]	; (1000a614 <system_peripheral_reset+0x370>)
1000a4b0:	6859      	ldr	r1, [r3, #4]
1000a4b2:	400a      	ands	r2, r1
1000a4b4:	2180      	movs	r1, #128	; 0x80
1000a4b6:	605a      	str	r2, [r3, #4]
1000a4b8:	685a      	ldr	r2, [r3, #4]
1000a4ba:	0489      	lsls	r1, r1, #18
1000a4bc:	e02b      	b.n	1000a516 <system_peripheral_reset+0x272>
1000a4be:	4b43      	ldr	r3, [pc, #268]	; (1000a5cc <system_peripheral_reset+0x328>)
1000a4c0:	4a55      	ldr	r2, [pc, #340]	; (1000a618 <system_peripheral_reset+0x374>)
1000a4c2:	6859      	ldr	r1, [r3, #4]
1000a4c4:	400a      	ands	r2, r1
1000a4c6:	2180      	movs	r1, #128	; 0x80
1000a4c8:	605a      	str	r2, [r3, #4]
1000a4ca:	685a      	ldr	r2, [r3, #4]
1000a4cc:	04c9      	lsls	r1, r1, #19
1000a4ce:	e022      	b.n	1000a516 <system_peripheral_reset+0x272>
1000a4d0:	4b3e      	ldr	r3, [pc, #248]	; (1000a5cc <system_peripheral_reset+0x328>)
1000a4d2:	4a52      	ldr	r2, [pc, #328]	; (1000a61c <system_peripheral_reset+0x378>)
1000a4d4:	6859      	ldr	r1, [r3, #4]
1000a4d6:	400a      	ands	r2, r1
1000a4d8:	2180      	movs	r1, #128	; 0x80
1000a4da:	605a      	str	r2, [r3, #4]
1000a4dc:	685a      	ldr	r2, [r3, #4]
1000a4de:	0509      	lsls	r1, r1, #20
1000a4e0:	e019      	b.n	1000a516 <system_peripheral_reset+0x272>
1000a4e2:	4b3a      	ldr	r3, [pc, #232]	; (1000a5cc <system_peripheral_reset+0x328>)
1000a4e4:	4a4e      	ldr	r2, [pc, #312]	; (1000a620 <system_peripheral_reset+0x37c>)
1000a4e6:	6859      	ldr	r1, [r3, #4]
1000a4e8:	400a      	ands	r2, r1
1000a4ea:	2180      	movs	r1, #128	; 0x80
1000a4ec:	605a      	str	r2, [r3, #4]
1000a4ee:	685a      	ldr	r2, [r3, #4]
1000a4f0:	0549      	lsls	r1, r1, #21
1000a4f2:	e010      	b.n	1000a516 <system_peripheral_reset+0x272>
1000a4f4:	4b35      	ldr	r3, [pc, #212]	; (1000a5cc <system_peripheral_reset+0x328>)
1000a4f6:	4a4b      	ldr	r2, [pc, #300]	; (1000a624 <system_peripheral_reset+0x380>)
1000a4f8:	6859      	ldr	r1, [r3, #4]
1000a4fa:	400a      	ands	r2, r1
1000a4fc:	2180      	movs	r1, #128	; 0x80
1000a4fe:	605a      	str	r2, [r3, #4]
1000a500:	685a      	ldr	r2, [r3, #4]
1000a502:	0589      	lsls	r1, r1, #22
1000a504:	e007      	b.n	1000a516 <system_peripheral_reset+0x272>
1000a506:	4b31      	ldr	r3, [pc, #196]	; (1000a5cc <system_peripheral_reset+0x328>)
1000a508:	4a47      	ldr	r2, [pc, #284]	; (1000a628 <system_peripheral_reset+0x384>)
1000a50a:	6859      	ldr	r1, [r3, #4]
1000a50c:	400a      	ands	r2, r1
1000a50e:	2180      	movs	r1, #128	; 0x80
1000a510:	605a      	str	r2, [r3, #4]
1000a512:	685a      	ldr	r2, [r3, #4]
1000a514:	05c9      	lsls	r1, r1, #23
1000a516:	430a      	orrs	r2, r1
1000a518:	e71d      	b.n	1000a356 <system_peripheral_reset+0xb2>
1000a51a:	2180      	movs	r1, #128	; 0x80
1000a51c:	4a2b      	ldr	r2, [pc, #172]	; (1000a5cc <system_peripheral_reset+0x328>)
1000a51e:	0609      	lsls	r1, r1, #24
1000a520:	6853      	ldr	r3, [r2, #4]
1000a522:	005b      	lsls	r3, r3, #1
1000a524:	085b      	lsrs	r3, r3, #1
1000a526:	6053      	str	r3, [r2, #4]
1000a528:	6853      	ldr	r3, [r2, #4]
1000a52a:	430b      	orrs	r3, r1
1000a52c:	6053      	str	r3, [r2, #4]
1000a52e:	e03f      	b.n	1000a5b0 <system_peripheral_reset+0x30c>
1000a530:	4b26      	ldr	r3, [pc, #152]	; (1000a5cc <system_peripheral_reset+0x328>)
1000a532:	2001      	movs	r0, #1
1000a534:	8919      	ldrh	r1, [r3, #8]
1000a536:	e002      	b.n	1000a53e <system_peripheral_reset+0x29a>
1000a538:	2002      	movs	r0, #2
1000a53a:	4b24      	ldr	r3, [pc, #144]	; (1000a5cc <system_peripheral_reset+0x328>)
1000a53c:	8919      	ldrh	r1, [r3, #8]
1000a53e:	4381      	bics	r1, r0
1000a540:	8119      	strh	r1, [r3, #8]
1000a542:	891a      	ldrh	r2, [r3, #8]
1000a544:	4302      	orrs	r2, r0
1000a546:	e032      	b.n	1000a5ae <system_peripheral_reset+0x30a>
1000a548:	4b20      	ldr	r3, [pc, #128]	; (1000a5cc <system_peripheral_reset+0x328>)
1000a54a:	2004      	movs	r0, #4
1000a54c:	8919      	ldrh	r1, [r3, #8]
1000a54e:	e7f6      	b.n	1000a53e <system_peripheral_reset+0x29a>
1000a550:	4b1e      	ldr	r3, [pc, #120]	; (1000a5cc <system_peripheral_reset+0x328>)
1000a552:	2008      	movs	r0, #8
1000a554:	8919      	ldrh	r1, [r3, #8]
1000a556:	e7f2      	b.n	1000a53e <system_peripheral_reset+0x29a>
1000a558:	4b1c      	ldr	r3, [pc, #112]	; (1000a5cc <system_peripheral_reset+0x328>)
1000a55a:	2010      	movs	r0, #16
1000a55c:	8919      	ldrh	r1, [r3, #8]
1000a55e:	e7ee      	b.n	1000a53e <system_peripheral_reset+0x29a>
1000a560:	4b1a      	ldr	r3, [pc, #104]	; (1000a5cc <system_peripheral_reset+0x328>)
1000a562:	2020      	movs	r0, #32
1000a564:	8919      	ldrh	r1, [r3, #8]
1000a566:	e7ea      	b.n	1000a53e <system_peripheral_reset+0x29a>
1000a568:	4b18      	ldr	r3, [pc, #96]	; (1000a5cc <system_peripheral_reset+0x328>)
1000a56a:	2040      	movs	r0, #64	; 0x40
1000a56c:	8919      	ldrh	r1, [r3, #8]
1000a56e:	e7e6      	b.n	1000a53e <system_peripheral_reset+0x29a>
1000a570:	4b16      	ldr	r3, [pc, #88]	; (1000a5cc <system_peripheral_reset+0x328>)
1000a572:	2080      	movs	r0, #128	; 0x80
1000a574:	8919      	ldrh	r1, [r3, #8]
1000a576:	e7e2      	b.n	1000a53e <system_peripheral_reset+0x29a>
1000a578:	4b14      	ldr	r3, [pc, #80]	; (1000a5cc <system_peripheral_reset+0x328>)
1000a57a:	4a15      	ldr	r2, [pc, #84]	; (1000a5d0 <system_peripheral_reset+0x32c>)
1000a57c:	8919      	ldrh	r1, [r3, #8]
1000a57e:	400a      	ands	r2, r1
1000a580:	2180      	movs	r1, #128	; 0x80
1000a582:	811a      	strh	r2, [r3, #8]
1000a584:	891a      	ldrh	r2, [r3, #8]
1000a586:	0049      	lsls	r1, r1, #1
1000a588:	e010      	b.n	1000a5ac <system_peripheral_reset+0x308>
1000a58a:	4b10      	ldr	r3, [pc, #64]	; (1000a5cc <system_peripheral_reset+0x328>)
1000a58c:	4a11      	ldr	r2, [pc, #68]	; (1000a5d4 <system_peripheral_reset+0x330>)
1000a58e:	8919      	ldrh	r1, [r3, #8]
1000a590:	400a      	ands	r2, r1
1000a592:	2180      	movs	r1, #128	; 0x80
1000a594:	811a      	strh	r2, [r3, #8]
1000a596:	891a      	ldrh	r2, [r3, #8]
1000a598:	0089      	lsls	r1, r1, #2
1000a59a:	e007      	b.n	1000a5ac <system_peripheral_reset+0x308>
1000a59c:	4b0b      	ldr	r3, [pc, #44]	; (1000a5cc <system_peripheral_reset+0x328>)
1000a59e:	4a0e      	ldr	r2, [pc, #56]	; (1000a5d8 <system_peripheral_reset+0x334>)
1000a5a0:	8919      	ldrh	r1, [r3, #8]
1000a5a2:	400a      	ands	r2, r1
1000a5a4:	2180      	movs	r1, #128	; 0x80
1000a5a6:	811a      	strh	r2, [r3, #8]
1000a5a8:	891a      	ldrh	r2, [r3, #8]
1000a5aa:	00c9      	lsls	r1, r1, #3
1000a5ac:	430a      	orrs	r2, r1
1000a5ae:	811a      	strh	r2, [r3, #8]
1000a5b0:	2000      	movs	r0, #0
1000a5b2:	e009      	b.n	1000a5c8 <system_peripheral_reset+0x324>
1000a5b4:	4b05      	ldr	r3, [pc, #20]	; (1000a5cc <system_peripheral_reset+0x328>)
1000a5b6:	4a09      	ldr	r2, [pc, #36]	; (1000a5dc <system_peripheral_reset+0x338>)
1000a5b8:	8919      	ldrh	r1, [r3, #8]
1000a5ba:	400a      	ands	r2, r1
1000a5bc:	2180      	movs	r1, #128	; 0x80
1000a5be:	811a      	strh	r2, [r3, #8]
1000a5c0:	891a      	ldrh	r2, [r3, #8]
1000a5c2:	0109      	lsls	r1, r1, #4
1000a5c4:	e7f2      	b.n	1000a5ac <system_peripheral_reset+0x308>
1000a5c6:	2017      	movs	r0, #23
1000a5c8:	bd00      	pop	{pc}
1000a5ca:	46c0      	nop			; (mov r8, r8)
1000a5cc:	4000b000 	.word	0x4000b000
1000a5d0:	fffffeff 	.word	0xfffffeff
1000a5d4:	fffffdff 	.word	0xfffffdff
1000a5d8:	fffffbff 	.word	0xfffffbff
1000a5dc:	fffff7ff 	.word	0xfffff7ff
1000a5e0:	ffffefff 	.word	0xffffefff
1000a5e4:	ffffdfff 	.word	0xffffdfff
1000a5e8:	ffffbfff 	.word	0xffffbfff
1000a5ec:	ffff7fff 	.word	0xffff7fff
1000a5f0:	fffeffff 	.word	0xfffeffff
1000a5f4:	fffdffff 	.word	0xfffdffff
1000a5f8:	fffbffff 	.word	0xfffbffff
1000a5fc:	fff7ffff 	.word	0xfff7ffff
1000a600:	ffefffff 	.word	0xffefffff
1000a604:	ffdfffff 	.word	0xffdfffff
1000a608:	ffbfffff 	.word	0xffbfffff
1000a60c:	ff7fffff 	.word	0xff7fffff
1000a610:	feffffff 	.word	0xfeffffff
1000a614:	fdffffff 	.word	0xfdffffff
1000a618:	fbffffff 	.word	0xfbffffff
1000a61c:	f7ffffff 	.word	0xf7ffffff
1000a620:	efffffff 	.word	0xefffffff
1000a624:	dfffffff 	.word	0xdfffffff
1000a628:	bfffffff 	.word	0xbfffffff

1000a62c <system_register_isr>:
1000a62c:	2380      	movs	r3, #128	; 0x80
1000a62e:	04db      	lsls	r3, r3, #19
1000a630:	18c0      	adds	r0, r0, r3
1000a632:	0080      	lsls	r0, r0, #2
1000a634:	6001      	str	r1, [r0, #0]
1000a636:	4770      	bx	lr

1000a638 <uart_rx0_isr_handler>:
1000a638:	b570      	push	{r4, r5, r6, lr}
1000a63a:	4b21      	ldr	r3, [pc, #132]	; (1000a6c0 <uart_rx0_isr_handler+0x88>)
1000a63c:	681c      	ldr	r4, [r3, #0]
1000a63e:	6823      	ldr	r3, [r4, #0]
1000a640:	7d1d      	ldrb	r5, [r3, #20]
1000a642:	b2ed      	uxtb	r5, r5
1000a644:	066a      	lsls	r2, r5, #25
1000a646:	d514      	bpl.n	1000a672 <uart_rx0_isr_handler+0x3a>
1000a648:	211e      	movs	r1, #30
1000a64a:	1ce2      	adds	r2, r4, #3
1000a64c:	77d1      	strb	r1, [r2, #31]
1000a64e:	7e1a      	ldrb	r2, [r3, #24]
1000a650:	3123      	adds	r1, #35	; 0x23
1000a652:	438a      	bics	r2, r1
1000a654:	761a      	strb	r2, [r3, #24]
1000a656:	1ca3      	adds	r3, r4, #2
1000a658:	7fda      	ldrb	r2, [r3, #31]
1000a65a:	2308      	movs	r3, #8
1000a65c:	421a      	tst	r2, r3
1000a65e:	d006      	beq.n	1000a66e <uart_rx0_isr_handler+0x36>
1000a660:	1c62      	adds	r2, r4, #1
1000a662:	7fd2      	ldrb	r2, [r2, #31]
1000a664:	421a      	tst	r2, r3
1000a666:	d002      	beq.n	1000a66e <uart_rx0_isr_handler+0x36>
1000a668:	0020      	movs	r0, r4
1000a66a:	6923      	ldr	r3, [r4, #16]
1000a66c:	4798      	blx	r3
1000a66e:	6823      	ldr	r3, [r4, #0]
1000a670:	7c1b      	ldrb	r3, [r3, #16]
1000a672:	2201      	movs	r2, #1
1000a674:	4215      	tst	r5, r2
1000a676:	d021      	beq.n	1000a6bc <uart_rx0_isr_handler+0x84>
1000a678:	6823      	ldr	r3, [r4, #0]
1000a67a:	6961      	ldr	r1, [r4, #20]
1000a67c:	7c1b      	ldrb	r3, [r3, #16]
1000a67e:	b2db      	uxtb	r3, r3
1000a680:	700b      	strb	r3, [r1, #0]
1000a682:	6963      	ldr	r3, [r4, #20]
1000a684:	189b      	adds	r3, r3, r2
1000a686:	6163      	str	r3, [r4, #20]
1000a688:	8ba3      	ldrh	r3, [r4, #28]
1000a68a:	3b01      	subs	r3, #1
1000a68c:	b29b      	uxth	r3, r3
1000a68e:	83a3      	strh	r3, [r4, #28]
1000a690:	8ba3      	ldrh	r3, [r4, #28]
1000a692:	b29b      	uxth	r3, r3
1000a694:	2b00      	cmp	r3, #0
1000a696:	d111      	bne.n	1000a6bc <uart_rx0_isr_handler+0x84>
1000a698:	1ca1      	adds	r1, r4, #2
1000a69a:	7fc8      	ldrb	r0, [r1, #31]
1000a69c:	2104      	movs	r1, #4
1000a69e:	4208      	tst	r0, r1
1000a6a0:	d00c      	beq.n	1000a6bc <uart_rx0_isr_handler+0x84>
1000a6a2:	18a0      	adds	r0, r4, r2
1000a6a4:	7fc0      	ldrb	r0, [r0, #31]
1000a6a6:	4208      	tst	r0, r1
1000a6a8:	d008      	beq.n	1000a6bc <uart_rx0_isr_handler+0x84>
1000a6aa:	1ce1      	adds	r1, r4, #3
1000a6ac:	77cb      	strb	r3, [r1, #31]
1000a6ae:	6821      	ldr	r1, [r4, #0]
1000a6b0:	0020      	movs	r0, r4
1000a6b2:	7e0b      	ldrb	r3, [r1, #24]
1000a6b4:	4393      	bics	r3, r2
1000a6b6:	760b      	strb	r3, [r1, #24]
1000a6b8:	68e3      	ldr	r3, [r4, #12]
1000a6ba:	4798      	blx	r3
1000a6bc:	bd70      	pop	{r4, r5, r6, pc}
1000a6be:	46c0      	nop			; (mov r8, r8)
1000a6c0:	10013bbc 	.word	0x10013bbc

1000a6c4 <uart_tx1_isr_handler>:
1000a6c4:	2201      	movs	r2, #1
1000a6c6:	b570      	push	{r4, r5, r6, lr}
1000a6c8:	4b20      	ldr	r3, [pc, #128]	; (1000a74c <uart_tx1_isr_handler+0x88>)
1000a6ca:	685c      	ldr	r4, [r3, #4]
1000a6cc:	6820      	ldr	r0, [r4, #0]
1000a6ce:	7905      	ldrb	r5, [r0, #4]
1000a6d0:	b2ed      	uxtb	r5, r5
1000a6d2:	4215      	tst	r5, r2
1000a6d4:	d015      	beq.n	1000a702 <uart_tx1_isr_handler+0x3e>
1000a6d6:	69a3      	ldr	r3, [r4, #24]
1000a6d8:	7819      	ldrb	r1, [r3, #0]
1000a6da:	189b      	adds	r3, r3, r2
1000a6dc:	b2c9      	uxtb	r1, r1
1000a6de:	61a3      	str	r3, [r4, #24]
1000a6e0:	7001      	strb	r1, [r0, #0]
1000a6e2:	8be3      	ldrh	r3, [r4, #30]
1000a6e4:	3b01      	subs	r3, #1
1000a6e6:	b29b      	uxth	r3, r3
1000a6e8:	83e3      	strh	r3, [r4, #30]
1000a6ea:	8be3      	ldrh	r3, [r4, #30]
1000a6ec:	2b00      	cmp	r3, #0
1000a6ee:	d108      	bne.n	1000a702 <uart_tx1_isr_handler+0x3e>
1000a6f0:	6821      	ldr	r1, [r4, #0]
1000a6f2:	7a0b      	ldrb	r3, [r1, #8]
1000a6f4:	4393      	bics	r3, r2
1000a6f6:	720b      	strb	r3, [r1, #8]
1000a6f8:	2110      	movs	r1, #16
1000a6fa:	6822      	ldr	r2, [r4, #0]
1000a6fc:	7a13      	ldrb	r3, [r2, #8]
1000a6fe:	430b      	orrs	r3, r1
1000a700:	7213      	strb	r3, [r2, #8]
1000a702:	2110      	movs	r1, #16
1000a704:	420d      	tst	r5, r1
1000a706:	d012      	beq.n	1000a72e <uart_tx1_isr_handler+0x6a>
1000a708:	1ca3      	adds	r3, r4, #2
1000a70a:	7fda      	ldrb	r2, [r3, #31]
1000a70c:	2301      	movs	r3, #1
1000a70e:	421a      	tst	r2, r3
1000a710:	d00d      	beq.n	1000a72e <uart_tx1_isr_handler+0x6a>
1000a712:	18e2      	adds	r2, r4, r3
1000a714:	7fd2      	ldrb	r2, [r2, #31]
1000a716:	421a      	tst	r2, r3
1000a718:	d009      	beq.n	1000a72e <uart_tx1_isr_handler+0x6a>
1000a71a:	2200      	movs	r2, #0
1000a71c:	1ce3      	adds	r3, r4, #3
1000a71e:	77da      	strb	r2, [r3, #31]
1000a720:	6822      	ldr	r2, [r4, #0]
1000a722:	0020      	movs	r0, r4
1000a724:	7a13      	ldrb	r3, [r2, #8]
1000a726:	438b      	bics	r3, r1
1000a728:	7213      	strb	r3, [r2, #8]
1000a72a:	6863      	ldr	r3, [r4, #4]
1000a72c:	4798      	blx	r3
1000a72e:	06ab      	lsls	r3, r5, #26
1000a730:	d50b      	bpl.n	1000a74a <uart_tx1_isr_handler+0x86>
1000a732:	1ca3      	adds	r3, r4, #2
1000a734:	7fda      	ldrb	r2, [r3, #31]
1000a736:	2302      	movs	r3, #2
1000a738:	421a      	tst	r2, r3
1000a73a:	d006      	beq.n	1000a74a <uart_tx1_isr_handler+0x86>
1000a73c:	1c62      	adds	r2, r4, #1
1000a73e:	7fd2      	ldrb	r2, [r2, #31]
1000a740:	421a      	tst	r2, r3
1000a742:	d002      	beq.n	1000a74a <uart_tx1_isr_handler+0x86>
1000a744:	68a3      	ldr	r3, [r4, #8]
1000a746:	0020      	movs	r0, r4
1000a748:	4798      	blx	r3
1000a74a:	bd70      	pop	{r4, r5, r6, pc}
1000a74c:	10013bbc 	.word	0x10013bbc

1000a750 <uart_rx1_isr_handler>:
1000a750:	b570      	push	{r4, r5, r6, lr}
1000a752:	4b21      	ldr	r3, [pc, #132]	; (1000a7d8 <uart_rx1_isr_handler+0x88>)
1000a754:	685c      	ldr	r4, [r3, #4]
1000a756:	6823      	ldr	r3, [r4, #0]
1000a758:	7d1d      	ldrb	r5, [r3, #20]
1000a75a:	b2ed      	uxtb	r5, r5
1000a75c:	066a      	lsls	r2, r5, #25
1000a75e:	d514      	bpl.n	1000a78a <uart_rx1_isr_handler+0x3a>
1000a760:	211e      	movs	r1, #30
1000a762:	1ce2      	adds	r2, r4, #3
1000a764:	77d1      	strb	r1, [r2, #31]
1000a766:	7e1a      	ldrb	r2, [r3, #24]
1000a768:	3123      	adds	r1, #35	; 0x23
1000a76a:	438a      	bics	r2, r1
1000a76c:	761a      	strb	r2, [r3, #24]
1000a76e:	1ca3      	adds	r3, r4, #2
1000a770:	7fda      	ldrb	r2, [r3, #31]
1000a772:	2308      	movs	r3, #8
1000a774:	421a      	tst	r2, r3
1000a776:	d006      	beq.n	1000a786 <uart_rx1_isr_handler+0x36>
1000a778:	1c62      	adds	r2, r4, #1
1000a77a:	7fd2      	ldrb	r2, [r2, #31]
1000a77c:	421a      	tst	r2, r3
1000a77e:	d002      	beq.n	1000a786 <uart_rx1_isr_handler+0x36>
1000a780:	0020      	movs	r0, r4
1000a782:	6923      	ldr	r3, [r4, #16]
1000a784:	4798      	blx	r3
1000a786:	6823      	ldr	r3, [r4, #0]
1000a788:	7c1b      	ldrb	r3, [r3, #16]
1000a78a:	2201      	movs	r2, #1
1000a78c:	4215      	tst	r5, r2
1000a78e:	d021      	beq.n	1000a7d4 <uart_rx1_isr_handler+0x84>
1000a790:	6823      	ldr	r3, [r4, #0]
1000a792:	6961      	ldr	r1, [r4, #20]
1000a794:	7c1b      	ldrb	r3, [r3, #16]
1000a796:	b2db      	uxtb	r3, r3
1000a798:	700b      	strb	r3, [r1, #0]
1000a79a:	6963      	ldr	r3, [r4, #20]
1000a79c:	189b      	adds	r3, r3, r2
1000a79e:	6163      	str	r3, [r4, #20]
1000a7a0:	8ba3      	ldrh	r3, [r4, #28]
1000a7a2:	3b01      	subs	r3, #1
1000a7a4:	b29b      	uxth	r3, r3
1000a7a6:	83a3      	strh	r3, [r4, #28]
1000a7a8:	8ba3      	ldrh	r3, [r4, #28]
1000a7aa:	b29b      	uxth	r3, r3
1000a7ac:	2b00      	cmp	r3, #0
1000a7ae:	d111      	bne.n	1000a7d4 <uart_rx1_isr_handler+0x84>
1000a7b0:	1ca1      	adds	r1, r4, #2
1000a7b2:	7fc8      	ldrb	r0, [r1, #31]
1000a7b4:	2104      	movs	r1, #4
1000a7b6:	4208      	tst	r0, r1
1000a7b8:	d00c      	beq.n	1000a7d4 <uart_rx1_isr_handler+0x84>
1000a7ba:	18a0      	adds	r0, r4, r2
1000a7bc:	7fc0      	ldrb	r0, [r0, #31]
1000a7be:	4208      	tst	r0, r1
1000a7c0:	d008      	beq.n	1000a7d4 <uart_rx1_isr_handler+0x84>
1000a7c2:	1ce1      	adds	r1, r4, #3
1000a7c4:	77cb      	strb	r3, [r1, #31]
1000a7c6:	6821      	ldr	r1, [r4, #0]
1000a7c8:	0020      	movs	r0, r4
1000a7ca:	7e0b      	ldrb	r3, [r1, #24]
1000a7cc:	4393      	bics	r3, r2
1000a7ce:	760b      	strb	r3, [r1, #24]
1000a7d0:	68e3      	ldr	r3, [r4, #12]
1000a7d2:	4798      	blx	r3
1000a7d4:	bd70      	pop	{r4, r5, r6, pc}
1000a7d6:	46c0      	nop			; (mov r8, r8)
1000a7d8:	10013bbc 	.word	0x10013bbc

1000a7dc <uart_tx0_isr_handler>:
1000a7dc:	2201      	movs	r2, #1
1000a7de:	b570      	push	{r4, r5, r6, lr}
1000a7e0:	4b20      	ldr	r3, [pc, #128]	; (1000a864 <uart_tx0_isr_handler+0x88>)
1000a7e2:	681c      	ldr	r4, [r3, #0]
1000a7e4:	6820      	ldr	r0, [r4, #0]
1000a7e6:	7905      	ldrb	r5, [r0, #4]
1000a7e8:	b2ed      	uxtb	r5, r5
1000a7ea:	4215      	tst	r5, r2
1000a7ec:	d015      	beq.n	1000a81a <uart_tx0_isr_handler+0x3e>
1000a7ee:	69a3      	ldr	r3, [r4, #24]
1000a7f0:	7819      	ldrb	r1, [r3, #0]
1000a7f2:	189b      	adds	r3, r3, r2
1000a7f4:	b2c9      	uxtb	r1, r1
1000a7f6:	61a3      	str	r3, [r4, #24]
1000a7f8:	7001      	strb	r1, [r0, #0]
1000a7fa:	8be3      	ldrh	r3, [r4, #30]
1000a7fc:	3b01      	subs	r3, #1
1000a7fe:	b29b      	uxth	r3, r3
1000a800:	83e3      	strh	r3, [r4, #30]
1000a802:	8be3      	ldrh	r3, [r4, #30]
1000a804:	2b00      	cmp	r3, #0
1000a806:	d108      	bne.n	1000a81a <uart_tx0_isr_handler+0x3e>
1000a808:	6821      	ldr	r1, [r4, #0]
1000a80a:	7a0b      	ldrb	r3, [r1, #8]
1000a80c:	4393      	bics	r3, r2
1000a80e:	720b      	strb	r3, [r1, #8]
1000a810:	2110      	movs	r1, #16
1000a812:	6822      	ldr	r2, [r4, #0]
1000a814:	7a13      	ldrb	r3, [r2, #8]
1000a816:	430b      	orrs	r3, r1
1000a818:	7213      	strb	r3, [r2, #8]
1000a81a:	2110      	movs	r1, #16
1000a81c:	420d      	tst	r5, r1
1000a81e:	d012      	beq.n	1000a846 <uart_tx0_isr_handler+0x6a>
1000a820:	1ca3      	adds	r3, r4, #2
1000a822:	7fda      	ldrb	r2, [r3, #31]
1000a824:	2301      	movs	r3, #1
1000a826:	421a      	tst	r2, r3
1000a828:	d00d      	beq.n	1000a846 <uart_tx0_isr_handler+0x6a>
1000a82a:	18e2      	adds	r2, r4, r3
1000a82c:	7fd2      	ldrb	r2, [r2, #31]
1000a82e:	421a      	tst	r2, r3
1000a830:	d009      	beq.n	1000a846 <uart_tx0_isr_handler+0x6a>
1000a832:	2200      	movs	r2, #0
1000a834:	1ce3      	adds	r3, r4, #3
1000a836:	77da      	strb	r2, [r3, #31]
1000a838:	6822      	ldr	r2, [r4, #0]
1000a83a:	0020      	movs	r0, r4
1000a83c:	7a13      	ldrb	r3, [r2, #8]
1000a83e:	438b      	bics	r3, r1
1000a840:	7213      	strb	r3, [r2, #8]
1000a842:	6863      	ldr	r3, [r4, #4]
1000a844:	4798      	blx	r3
1000a846:	06ab      	lsls	r3, r5, #26
1000a848:	d50b      	bpl.n	1000a862 <uart_tx0_isr_handler+0x86>
1000a84a:	1ca3      	adds	r3, r4, #2
1000a84c:	7fda      	ldrb	r2, [r3, #31]
1000a84e:	2302      	movs	r3, #2
1000a850:	421a      	tst	r2, r3
1000a852:	d006      	beq.n	1000a862 <uart_tx0_isr_handler+0x86>
1000a854:	1c62      	adds	r2, r4, #1
1000a856:	7fd2      	ldrb	r2, [r2, #31]
1000a858:	421a      	tst	r2, r3
1000a85a:	d002      	beq.n	1000a862 <uart_tx0_isr_handler+0x86>
1000a85c:	68a3      	ldr	r3, [r4, #8]
1000a85e:	0020      	movs	r0, r4
1000a860:	4798      	blx	r3
1000a862:	bd70      	pop	{r4, r5, r6, pc}
1000a864:	10013bbc 	.word	0x10013bbc

1000a868 <uart_get_config_defaults>:
1000a868:	23e1      	movs	r3, #225	; 0xe1
1000a86a:	2203      	movs	r2, #3
1000a86c:	025b      	lsls	r3, r3, #9
1000a86e:	6003      	str	r3, [r0, #0]
1000a870:	2300      	movs	r3, #0
1000a872:	60c2      	str	r2, [r0, #12]
1000a874:	3201      	adds	r2, #1
1000a876:	7103      	strb	r3, [r0, #4]
1000a878:	7143      	strb	r3, [r0, #5]
1000a87a:	7183      	strb	r3, [r0, #6]
1000a87c:	71c3      	strb	r3, [r0, #7]
1000a87e:	6102      	str	r2, [r0, #16]
1000a880:	3302      	adds	r3, #2
1000a882:	3201      	adds	r2, #1
1000a884:	6083      	str	r3, [r0, #8]
1000a886:	6142      	str	r2, [r0, #20]
1000a888:	6183      	str	r3, [r0, #24]
1000a88a:	61c3      	str	r3, [r0, #28]
1000a88c:	6203      	str	r3, [r0, #32]
1000a88e:	6243      	str	r3, [r0, #36]	; 0x24
1000a890:	4770      	bx	lr
	...

1000a894 <uart_init>:
1000a894:	b5f8      	push	{r3, r4, r5, r6, r7, lr}
1000a896:	2300      	movs	r3, #0
1000a898:	0015      	movs	r5, r2
1000a89a:	1c42      	adds	r2, r0, #1
1000a89c:	8383      	strh	r3, [r0, #28]
1000a89e:	6043      	str	r3, [r0, #4]
1000a8a0:	6083      	str	r3, [r0, #8]
1000a8a2:	60c3      	str	r3, [r0, #12]
1000a8a4:	6103      	str	r3, [r0, #16]
1000a8a6:	6143      	str	r3, [r0, #20]
1000a8a8:	6183      	str	r3, [r0, #24]
1000a8aa:	83c3      	strh	r3, [r0, #30]
1000a8ac:	6001      	str	r1, [r0, #0]
1000a8ae:	77d3      	strb	r3, [r2, #31]
1000a8b0:	1c82      	adds	r2, r0, #2
1000a8b2:	77d3      	strb	r3, [r2, #31]
1000a8b4:	1cc2      	adds	r2, r0, #3
1000a8b6:	77d3      	strb	r3, [r2, #31]
1000a8b8:	4b47      	ldr	r3, [pc, #284]	; (1000a9d8 <uart_init+0x144>)
1000a8ba:	0004      	movs	r4, r0
1000a8bc:	4299      	cmp	r1, r3
1000a8be:	d115      	bne.n	1000a8ec <uart_init+0x58>
1000a8c0:	4e46      	ldr	r6, [pc, #280]	; (1000a9dc <uart_init+0x148>)
1000a8c2:	2009      	movs	r0, #9
1000a8c4:	47b0      	blx	r6
1000a8c6:	200a      	movs	r0, #10
1000a8c8:	47b0      	blx	r6
1000a8ca:	4e45      	ldr	r6, [pc, #276]	; (1000a9e0 <uart_init+0x14c>)
1000a8cc:	2009      	movs	r0, #9
1000a8ce:	47b0      	blx	r6
1000a8d0:	200a      	movs	r0, #10
1000a8d2:	47b0      	blx	r6
1000a8d4:	4b43      	ldr	r3, [pc, #268]	; (1000a9e4 <uart_init+0x150>)
1000a8d6:	4944      	ldr	r1, [pc, #272]	; (1000a9e8 <uart_init+0x154>)
1000a8d8:	2010      	movs	r0, #16
1000a8da:	4e44      	ldr	r6, [pc, #272]	; (1000a9ec <uart_init+0x158>)
1000a8dc:	601c      	str	r4, [r3, #0]
1000a8de:	47b0      	blx	r6
1000a8e0:	4943      	ldr	r1, [pc, #268]	; (1000a9f0 <uart_init+0x15c>)
1000a8e2:	2011      	movs	r0, #17
1000a8e4:	47b0      	blx	r6
1000a8e6:	4b43      	ldr	r3, [pc, #268]	; (1000a9f4 <uart_init+0x160>)
1000a8e8:	2201      	movs	r2, #1
1000a8ea:	e017      	b.n	1000a91c <uart_init+0x88>
1000a8ec:	4b42      	ldr	r3, [pc, #264]	; (1000a9f8 <uart_init+0x164>)
1000a8ee:	4299      	cmp	r1, r3
1000a8f0:	d117      	bne.n	1000a922 <uart_init+0x8e>
1000a8f2:	4e3a      	ldr	r6, [pc, #232]	; (1000a9dc <uart_init+0x148>)
1000a8f4:	200b      	movs	r0, #11
1000a8f6:	47b0      	blx	r6
1000a8f8:	200c      	movs	r0, #12
1000a8fa:	47b0      	blx	r6
1000a8fc:	4e38      	ldr	r6, [pc, #224]	; (1000a9e0 <uart_init+0x14c>)
1000a8fe:	200b      	movs	r0, #11
1000a900:	47b0      	blx	r6
1000a902:	200c      	movs	r0, #12
1000a904:	47b0      	blx	r6
1000a906:	4b37      	ldr	r3, [pc, #220]	; (1000a9e4 <uart_init+0x150>)
1000a908:	493c      	ldr	r1, [pc, #240]	; (1000a9fc <uart_init+0x168>)
1000a90a:	2012      	movs	r0, #18
1000a90c:	4e37      	ldr	r6, [pc, #220]	; (1000a9ec <uart_init+0x158>)
1000a90e:	605c      	str	r4, [r3, #4]
1000a910:	47b0      	blx	r6
1000a912:	493b      	ldr	r1, [pc, #236]	; (1000aa00 <uart_init+0x16c>)
1000a914:	2013      	movs	r0, #19
1000a916:	47b0      	blx	r6
1000a918:	2204      	movs	r2, #4
1000a91a:	4b36      	ldr	r3, [pc, #216]	; (1000a9f4 <uart_init+0x160>)
1000a91c:	601a      	str	r2, [r3, #0]
1000a91e:	1892      	adds	r2, r2, r2
1000a920:	601a      	str	r2, [r3, #0]
1000a922:	79ea      	ldrb	r2, [r5, #7]
1000a924:	2304      	movs	r3, #4
1000a926:	2a00      	cmp	r2, #0
1000a928:	d100      	bne.n	1000a92c <uart_init+0x98>
1000a92a:	3b02      	subs	r3, #2
1000a92c:	002e      	movs	r6, r5
1000a92e:	3b01      	subs	r3, #1
1000a930:	b2db      	uxtb	r3, r3
1000a932:	3303      	adds	r3, #3
1000a934:	009b      	lsls	r3, r3, #2
1000a936:	3608      	adds	r6, #8
1000a938:	18ef      	adds	r7, r5, r3
1000a93a:	8a31      	ldrh	r1, [r6, #16]
1000a93c:	ce01      	ldmia	r6!, {r0}
1000a93e:	4b31      	ldr	r3, [pc, #196]	; (1000aa04 <uart_init+0x170>)
1000a940:	b2c0      	uxtb	r0, r0
1000a942:	4798      	blx	r3
1000a944:	42b7      	cmp	r7, r6
1000a946:	d1f8      	bne.n	1000a93a <uart_init+0xa6>
1000a948:	2101      	movs	r1, #1
1000a94a:	6823      	ldr	r3, [r4, #0]
1000a94c:	7d1a      	ldrb	r2, [r3, #20]
1000a94e:	400a      	ands	r2, r1
1000a950:	d001      	beq.n	1000a956 <uart_init+0xc2>
1000a952:	7c1a      	ldrb	r2, [r3, #16]
1000a954:	e7fa      	b.n	1000a94c <uart_init+0xb8>
1000a956:	3301      	adds	r3, #1
1000a958:	77da      	strb	r2, [r3, #31]
1000a95a:	79eb      	ldrb	r3, [r5, #7]
1000a95c:	7929      	ldrb	r1, [r5, #4]
1000a95e:	1e5a      	subs	r2, r3, #1
1000a960:	4193      	sbcs	r3, r2
1000a962:	79a8      	ldrb	r0, [r5, #6]
1000a964:	015a      	lsls	r2, r3, #5
1000a966:	796b      	ldrb	r3, [r5, #5]
1000a968:	3801      	subs	r0, #1
1000a96a:	430b      	orrs	r3, r1
1000a96c:	4313      	orrs	r3, r2
1000a96e:	2803      	cmp	r0, #3
1000a970:	d80b      	bhi.n	1000a98a <uart_init+0xf6>
1000a972:	f005 f807 	bl	1000f984 <__gnu_thumb1_case_uqi>
1000a976:	0402      	.short	0x0402
1000a978:	0806      	.short	0x0806
1000a97a:	2202      	movs	r2, #2
1000a97c:	e004      	b.n	1000a988 <uart_init+0xf4>
1000a97e:	2206      	movs	r2, #6
1000a980:	e002      	b.n	1000a988 <uart_init+0xf4>
1000a982:	220a      	movs	r2, #10
1000a984:	e000      	b.n	1000a988 <uart_init+0xf4>
1000a986:	220e      	movs	r2, #14
1000a988:	4313      	orrs	r3, r2
1000a98a:	6822      	ldr	r2, [r4, #0]
1000a98c:	3201      	adds	r2, #1
1000a98e:	77d3      	strb	r3, [r2, #31]
1000a990:	4b1d      	ldr	r3, [pc, #116]	; (1000aa08 <uart_init+0x174>)
1000a992:	682d      	ldr	r5, [r5, #0]
1000a994:	4798      	blx	r3
1000a996:	0029      	movs	r1, r5
1000a998:	4b1c      	ldr	r3, [pc, #112]	; (1000aa0c <uart_init+0x178>)
1000a99a:	0006      	movs	r6, r0
1000a99c:	4798      	blx	r3
1000a99e:	b282      	uxth	r2, r0
1000a9a0:	0010      	movs	r0, r2
1000a9a2:	2300      	movs	r3, #0
1000a9a4:	4368      	muls	r0, r5
1000a9a6:	092d      	lsrs	r5, r5, #4
1000a9a8:	1a30      	subs	r0, r6, r0
1000a9aa:	3301      	adds	r3, #1
1000a9ac:	42a8      	cmp	r0, r5
1000a9ae:	d902      	bls.n	1000a9b6 <uart_init+0x122>
1000a9b0:	b2db      	uxtb	r3, r3
1000a9b2:	1b40      	subs	r0, r0, r5
1000a9b4:	e7f9      	b.n	1000a9aa <uart_init+0x116>
1000a9b6:	2000      	movs	r0, #0
1000a9b8:	6821      	ldr	r1, [r4, #0]
1000a9ba:	071b      	lsls	r3, r3, #28
1000a9bc:	3128      	adds	r1, #40	; 0x28
1000a9be:	7008      	strb	r0, [r1, #0]
1000a9c0:	00d2      	lsls	r2, r2, #3
1000a9c2:	0f5b      	lsrs	r3, r3, #29
1000a9c4:	4313      	orrs	r3, r2
1000a9c6:	6822      	ldr	r2, [r4, #0]
1000a9c8:	b29b      	uxth	r3, r3
1000a9ca:	8493      	strh	r3, [r2, #36]	; 0x24
1000a9cc:	6823      	ldr	r3, [r4, #0]
1000a9ce:	7618      	strb	r0, [r3, #24]
1000a9d0:	6823      	ldr	r3, [r4, #0]
1000a9d2:	7218      	strb	r0, [r3, #8]
1000a9d4:	bdf8      	pop	{r3, r4, r5, r6, r7, pc}
1000a9d6:	46c0      	nop			; (mov r8, r8)
1000a9d8:	40004000 	.word	0x40004000
1000a9dc:	1000a2a5 	.word	0x1000a2a5
1000a9e0:	10009ebd 	.word	0x10009ebd
1000a9e4:	10013bbc 	.word	0x10013bbc
1000a9e8:	1000a639 	.word	0x1000a639
1000a9ec:	1000a62d 	.word	0x1000a62d
1000a9f0:	1000a7dd 	.word	0x1000a7dd
1000a9f4:	e000e100 	.word	0xe000e100
1000a9f8:	40005000 	.word	0x40005000
1000a9fc:	1000a751 	.word	0x1000a751
1000aa00:	1000a6c5 	.word	0x1000a6c5
1000aa04:	10009bd9 	.word	0x10009bd9
1000aa08:	10009eb1 	.word	0x10009eb1
1000aa0c:	1000f9ad 	.word	0x1000f9ad

1000aa10 <uart_write_wait>:
1000aa10:	2201      	movs	r2, #1
1000aa12:	6803      	ldr	r3, [r0, #0]
1000aa14:	7918      	ldrb	r0, [r3, #4]
1000aa16:	4210      	tst	r0, r2
1000aa18:	d0fc      	beq.n	1000aa14 <uart_write_wait+0x4>
1000aa1a:	2000      	movs	r0, #0
1000aa1c:	7019      	strb	r1, [r3, #0]
1000aa1e:	4770      	bx	lr

1000aa20 <uart_read_wait>:
1000aa20:	2201      	movs	r2, #1
1000aa22:	6803      	ldr	r3, [r0, #0]
1000aa24:	7d18      	ldrb	r0, [r3, #20]
1000aa26:	4210      	tst	r0, r2
1000aa28:	d0fc      	beq.n	1000aa24 <uart_read_wait+0x4>
1000aa2a:	7c1b      	ldrb	r3, [r3, #16]
1000aa2c:	2000      	movs	r0, #0
1000aa2e:	700b      	strb	r3, [r1, #0]
1000aa30:	4770      	bx	lr

1000aa32 <uart_read_buffer_job>:
1000aa32:	b530      	push	{r4, r5, lr}
1000aa34:	0004      	movs	r4, r0
1000aa36:	2017      	movs	r0, #23
1000aa38:	2a00      	cmp	r2, #0
1000aa3a:	d00c      	beq.n	1000aa56 <uart_read_buffer_job+0x24>
1000aa3c:	1ce5      	adds	r5, r4, #3
1000aa3e:	7feb      	ldrb	r3, [r5, #31]
1000aa40:	b2d8      	uxtb	r0, r3
1000aa42:	2805      	cmp	r0, #5
1000aa44:	d007      	beq.n	1000aa56 <uart_read_buffer_job+0x24>
1000aa46:	2305      	movs	r3, #5
1000aa48:	83a2      	strh	r2, [r4, #28]
1000aa4a:	2201      	movs	r2, #1
1000aa4c:	2000      	movs	r0, #0
1000aa4e:	6161      	str	r1, [r4, #20]
1000aa50:	77eb      	strb	r3, [r5, #31]
1000aa52:	6823      	ldr	r3, [r4, #0]
1000aa54:	761a      	strb	r2, [r3, #24]
1000aa56:	bd30      	pop	{r4, r5, pc}

1000aa58 <uart_register_callback>:
1000aa58:	0093      	lsls	r3, r2, #2
1000aa5a:	18c3      	adds	r3, r0, r3
1000aa5c:	6059      	str	r1, [r3, #4]
1000aa5e:	2301      	movs	r3, #1
1000aa60:	4093      	lsls	r3, r2
1000aa62:	3001      	adds	r0, #1
1000aa64:	7fc2      	ldrb	r2, [r0, #31]
1000aa66:	4313      	orrs	r3, r2
1000aa68:	77c3      	strb	r3, [r0, #31]
1000aa6a:	4770      	bx	lr

1000aa6c <uart_enable_callback>:
1000aa6c:	2301      	movs	r3, #1
1000aa6e:	408b      	lsls	r3, r1
1000aa70:	b510      	push	{r4, lr}
1000aa72:	1c82      	adds	r2, r0, #2
1000aa74:	7fd4      	ldrb	r4, [r2, #31]
1000aa76:	4323      	orrs	r3, r4
1000aa78:	77d3      	strb	r3, [r2, #31]
1000aa7a:	2901      	cmp	r1, #1
1000aa7c:	d104      	bne.n	1000aa88 <uart_enable_callback+0x1c>
1000aa7e:	6802      	ldr	r2, [r0, #0]
1000aa80:	311f      	adds	r1, #31
1000aa82:	7a13      	ldrb	r3, [r2, #8]
1000aa84:	430b      	orrs	r3, r1
1000aa86:	7213      	strb	r3, [r2, #8]
1000aa88:	bd10      	pop	{r4, pc}

1000aa8a <uart_disable_callback>:
1000aa8a:	2201      	movs	r2, #1
1000aa8c:	408a      	lsls	r2, r1
1000aa8e:	b510      	push	{r4, lr}
1000aa90:	1c84      	adds	r4, r0, #2
1000aa92:	7fe3      	ldrb	r3, [r4, #31]
1000aa94:	4393      	bics	r3, r2
1000aa96:	77e3      	strb	r3, [r4, #31]
1000aa98:	2901      	cmp	r1, #1
1000aa9a:	d104      	bne.n	1000aaa6 <uart_disable_callback+0x1c>
1000aa9c:	6802      	ldr	r2, [r0, #0]
1000aa9e:	311f      	adds	r1, #31
1000aaa0:	7a13      	ldrb	r3, [r2, #8]
1000aaa2:	438b      	bics	r3, r1
1000aaa4:	7213      	strb	r3, [r2, #8]
1000aaa6:	bd10      	pop	{r4, pc}

1000aaa8 <_read>:
1000aaa8:	b570      	push	{r4, r5, r6, lr}
1000aaaa:	000e      	movs	r6, r1
1000aaac:	0014      	movs	r4, r2
1000aaae:	0015      	movs	r5, r2
1000aab0:	2800      	cmp	r0, #0
1000aab2:	d10e      	bne.n	1000aad2 <_read+0x2a>
1000aab4:	1b61      	subs	r1, r4, r5
1000aab6:	1871      	adds	r1, r6, r1
1000aab8:	2d00      	cmp	r5, #0
1000aaba:	dd06      	ble.n	1000aaca <_read+0x22>
1000aabc:	4b06      	ldr	r3, [pc, #24]	; (1000aad8 <_read+0x30>)
1000aabe:	3d01      	subs	r5, #1
1000aac0:	6818      	ldr	r0, [r3, #0]
1000aac2:	4b06      	ldr	r3, [pc, #24]	; (1000aadc <_read+0x34>)
1000aac4:	681b      	ldr	r3, [r3, #0]
1000aac6:	4798      	blx	r3
1000aac8:	e7f4      	b.n	1000aab4 <_read+0xc>
1000aaca:	43e0      	mvns	r0, r4
1000aacc:	17c0      	asrs	r0, r0, #31
1000aace:	4020      	ands	r0, r4
1000aad0:	e001      	b.n	1000aad6 <_read+0x2e>
1000aad2:	2001      	movs	r0, #1
1000aad4:	4240      	negs	r0, r0
1000aad6:	bd70      	pop	{r4, r5, r6, pc}
1000aad8:	10013bcc 	.word	0x10013bcc
1000aadc:	10013bc4 	.word	0x10013bc4

1000aae0 <_write>:
1000aae0:	3801      	subs	r0, #1
1000aae2:	b570      	push	{r4, r5, r6, lr}
1000aae4:	000e      	movs	r6, r1
1000aae6:	2802      	cmp	r0, #2
1000aae8:	d80d      	bhi.n	1000ab06 <_write+0x26>
1000aaea:	000c      	movs	r4, r1
1000aaec:	188d      	adds	r5, r1, r2
1000aaee:	1ba0      	subs	r0, r4, r6
1000aaf0:	42ac      	cmp	r4, r5
1000aaf2:	d00a      	beq.n	1000ab0a <_write+0x2a>
1000aaf4:	4b05      	ldr	r3, [pc, #20]	; (1000ab0c <_write+0x2c>)
1000aaf6:	7821      	ldrb	r1, [r4, #0]
1000aaf8:	6818      	ldr	r0, [r3, #0]
1000aafa:	4b05      	ldr	r3, [pc, #20]	; (1000ab10 <_write+0x30>)
1000aafc:	3401      	adds	r4, #1
1000aafe:	681b      	ldr	r3, [r3, #0]
1000ab00:	4798      	blx	r3
1000ab02:	2800      	cmp	r0, #0
1000ab04:	daf3      	bge.n	1000aaee <_write+0xe>
1000ab06:	2001      	movs	r0, #1
1000ab08:	4240      	negs	r0, r0
1000ab0a:	bd70      	pop	{r4, r5, r6, pc}
1000ab0c:	10013bcc 	.word	0x10013bcc
1000ab10:	10013bc8 	.word	0x10013bc8

1000ab14 <_sbrk>:
1000ab14:	4b05      	ldr	r3, [pc, #20]	; (1000ab2c <_sbrk+0x18>)
1000ab16:	0002      	movs	r2, r0
1000ab18:	6819      	ldr	r1, [r3, #0]
1000ab1a:	2900      	cmp	r1, #0
1000ab1c:	d101      	bne.n	1000ab22 <_sbrk+0xe>
1000ab1e:	4904      	ldr	r1, [pc, #16]	; (1000ab30 <_sbrk+0x1c>)
1000ab20:	6019      	str	r1, [r3, #0]
1000ab22:	6818      	ldr	r0, [r3, #0]
1000ab24:	1882      	adds	r2, r0, r2
1000ab26:	601a      	str	r2, [r3, #0]
1000ab28:	4770      	bx	lr
1000ab2a:	46c0      	nop			; (mov r8, r8)
1000ab2c:	10011f2c 	.word	0x10011f2c
1000ab30:	100164d8 	.word	0x100164d8

1000ab34 <_close>:
1000ab34:	2001      	movs	r0, #1
1000ab36:	4240      	negs	r0, r0
1000ab38:	4770      	bx	lr

1000ab3a <_fstat>:
1000ab3a:	2380      	movs	r3, #128	; 0x80
1000ab3c:	019b      	lsls	r3, r3, #6
1000ab3e:	2000      	movs	r0, #0
1000ab40:	604b      	str	r3, [r1, #4]
1000ab42:	4770      	bx	lr

1000ab44 <_isatty>:
1000ab44:	2001      	movs	r0, #1
1000ab46:	4770      	bx	lr

1000ab48 <_lseek>:
1000ab48:	2000      	movs	r0, #0
1000ab4a:	4770      	bx	lr

1000ab4c <ble_scan_report_handler>:
1000ab4c:	7800      	ldrb	r0, [r0, #0]
1000ab4e:	2800      	cmp	r0, #0
1000ab50:	d000      	beq.n	1000ab54 <ble_scan_report_handler+0x8>
1000ab52:	20e2      	movs	r0, #226	; 0xe2
1000ab54:	4770      	bx	lr

1000ab56 <ble_adv_report_handler>:
1000ab56:	7800      	ldrb	r0, [r0, #0]
1000ab58:	2800      	cmp	r0, #0
1000ab5a:	d000      	beq.n	1000ab5e <ble_adv_report_handler+0x8>
1000ab5c:	20e2      	movs	r0, #226	; 0xe2
1000ab5e:	4770      	bx	lr

1000ab60 <ble_characteristic_write_cmd_complete_handler>:
1000ab60:	78c0      	ldrb	r0, [r0, #3]
1000ab62:	2800      	cmp	r0, #0
1000ab64:	d000      	beq.n	1000ab68 <ble_characteristic_write_cmd_complete_handler+0x8>
1000ab66:	20e2      	movs	r0, #226	; 0xe2
1000ab68:	4770      	bx	lr
	...

1000ab6c <ble_disconnected_state_handler>:
1000ab6c:	2202      	movs	r2, #2
1000ab6e:	b5f0      	push	{r4, r5, r6, r7, lr}
1000ab70:	4694      	mov	ip, r2
1000ab72:	2401      	movs	r4, #1
1000ab74:	2500      	movs	r5, #0
1000ab76:	27dc      	movs	r7, #220	; 0xdc
1000ab78:	4b14      	ldr	r3, [pc, #80]	; (1000abcc <ble_disconnected_state_handler+0x60>)
1000ab7a:	4e15      	ldr	r6, [pc, #84]	; (1000abd0 <ble_disconnected_state_handler+0x64>)
1000ab7c:	001a      	movs	r2, r3
1000ab7e:	3a56      	subs	r2, #86	; 0x56
1000ab80:	8811      	ldrh	r1, [r2, #0]
1000ab82:	8802      	ldrh	r2, [r0, #0]
1000ab84:	4291      	cmp	r1, r2
1000ab86:	d11c      	bne.n	1000abc2 <ble_disconnected_state_handler+0x56>
1000ab88:	781a      	ldrb	r2, [r3, #0]
1000ab8a:	2a05      	cmp	r2, #5
1000ab8c:	d001      	beq.n	1000ab92 <ble_disconnected_state_handler+0x26>
1000ab8e:	2a08      	cmp	r2, #8
1000ab90:	d101      	bne.n	1000ab96 <ble_disconnected_state_handler+0x2a>
1000ab92:	701c      	strb	r4, [r3, #0]
1000ab94:	e015      	b.n	1000abc2 <ble_disconnected_state_handler+0x56>
1000ab96:	2a07      	cmp	r2, #7
1000ab98:	d812      	bhi.n	1000abc0 <ble_disconnected_state_handler+0x54>
1000ab9a:	0021      	movs	r1, r4
1000ab9c:	4091      	lsls	r1, r2
1000ab9e:	000a      	movs	r2, r1
1000aba0:	4239      	tst	r1, r7
1000aba2:	d103      	bne.n	1000abac <ble_disconnected_state_handler+0x40>
1000aba4:	4661      	mov	r1, ip
1000aba6:	420a      	tst	r2, r1
1000aba8:	d10b      	bne.n	1000abc2 <ble_disconnected_state_handler+0x56>
1000abaa:	e009      	b.n	1000abc0 <ble_disconnected_state_handler+0x54>
1000abac:	4909      	ldr	r1, [pc, #36]	; (1000abd4 <ble_disconnected_state_handler+0x68>)
1000abae:	701d      	strb	r5, [r3, #0]
1000abb0:	780a      	ldrb	r2, [r1, #0]
1000abb2:	2a00      	cmp	r2, #0
1000abb4:	d005      	beq.n	1000abc2 <ble_disconnected_state_handler+0x56>
1000abb6:	780a      	ldrb	r2, [r1, #0]
1000abb8:	3a01      	subs	r2, #1
1000abba:	b2d2      	uxtb	r2, r2
1000abbc:	700a      	strb	r2, [r1, #0]
1000abbe:	e000      	b.n	1000abc2 <ble_disconnected_state_handler+0x56>
1000abc0:	701d      	strb	r5, [r3, #0]
1000abc2:	337c      	adds	r3, #124	; 0x7c
1000abc4:	42b3      	cmp	r3, r6
1000abc6:	d1d9      	bne.n	1000ab7c <ble_disconnected_state_handler+0x10>
1000abc8:	2000      	movs	r0, #0
1000abca:	bdf0      	pop	{r4, r5, r6, r7, pc}
1000abcc:	10013c46 	.word	0x10013c46
1000abd0:	10013eb2 	.word	0x10013eb2
1000abd4:	10013e54 	.word	0x10013e54

1000abd8 <ble_conn_param_update>:
1000abd8:	2000      	movs	r0, #0
1000abda:	4770      	bx	lr

1000abdc <ble_encryption_status_change_handler>:
1000abdc:	2300      	movs	r3, #0
1000abde:	b510      	push	{r4, lr}
1000abe0:	4a17      	ldr	r2, [pc, #92]	; (1000ac40 <ble_encryption_status_change_handler+0x64>)
1000abe2:	8801      	ldrh	r1, [r0, #0]
1000abe4:	0014      	movs	r4, r2
1000abe6:	3c56      	subs	r4, #86	; 0x56
1000abe8:	8824      	ldrh	r4, [r4, #0]
1000abea:	428c      	cmp	r4, r1
1000abec:	d102      	bne.n	1000abf4 <ble_encryption_status_change_handler+0x18>
1000abee:	7814      	ldrb	r4, [r2, #0]
1000abf0:	2c06      	cmp	r4, #6
1000abf2:	d006      	beq.n	1000ac02 <ble_encryption_status_change_handler+0x26>
1000abf4:	3301      	adds	r3, #1
1000abf6:	b2db      	uxtb	r3, r3
1000abf8:	327c      	adds	r2, #124	; 0x7c
1000abfa:	2b05      	cmp	r3, #5
1000abfc:	d1f2      	bne.n	1000abe4 <ble_encryption_status_change_handler+0x8>
1000abfe:	2200      	movs	r2, #0
1000ac00:	e000      	b.n	1000ac04 <ble_encryption_status_change_handler+0x28>
1000ac02:	2201      	movs	r2, #1
1000ac04:	7881      	ldrb	r1, [r0, #2]
1000ac06:	2900      	cmp	r1, #0
1000ac08:	d10e      	bne.n	1000ac28 <ble_encryption_status_change_handler+0x4c>
1000ac0a:	2a00      	cmp	r2, #0
1000ac0c:	d014      	beq.n	1000ac38 <ble_encryption_status_change_handler+0x5c>
1000ac0e:	227c      	movs	r2, #124	; 0x7c
1000ac10:	4353      	muls	r3, r2
1000ac12:	4a0c      	ldr	r2, [pc, #48]	; (1000ac44 <ble_encryption_status_change_handler+0x68>)
1000ac14:	2408      	movs	r4, #8
1000ac16:	18d3      	adds	r3, r2, r3
1000ac18:	001a      	movs	r2, r3
1000ac1a:	325e      	adds	r2, #94	; 0x5e
1000ac1c:	7014      	strb	r4, [r2, #0]
1000ac1e:	78c2      	ldrb	r2, [r0, #3]
1000ac20:	751a      	strb	r2, [r3, #20]
1000ac22:	7882      	ldrb	r2, [r0, #2]
1000ac24:	761a      	strb	r2, [r3, #24]
1000ac26:	e008      	b.n	1000ac3a <ble_encryption_status_change_handler+0x5e>
1000ac28:	227c      	movs	r2, #124	; 0x7c
1000ac2a:	4353      	muls	r3, r2
1000ac2c:	4a05      	ldr	r2, [pc, #20]	; (1000ac44 <ble_encryption_status_change_handler+0x68>)
1000ac2e:	18d3      	adds	r3, r2, r3
1000ac30:	2207      	movs	r2, #7
1000ac32:	7619      	strb	r1, [r3, #24]
1000ac34:	335e      	adds	r3, #94	; 0x5e
1000ac36:	701a      	strb	r2, [r3, #0]
1000ac38:	21e2      	movs	r1, #226	; 0xe2
1000ac3a:	0008      	movs	r0, r1
1000ac3c:	bd10      	pop	{r4, pc}
1000ac3e:	46c0      	nop			; (mov r8, r8)
1000ac40:	10013c46 	.word	0x10013c46
1000ac44:	10013be8 	.word	0x10013be8

1000ac48 <ble_conn_param_update_req>:
1000ac48:	2201      	movs	r2, #1
1000ac4a:	b510      	push	{r4, lr}
1000ac4c:	2378      	movs	r3, #120	; 0x78
1000ac4e:	0011      	movs	r1, r2
1000ac50:	4c02      	ldr	r4, [pc, #8]	; (1000ac5c <ble_conn_param_update_req+0x14>)
1000ac52:	8800      	ldrh	r0, [r0, #0]
1000ac54:	47a0      	blx	r4
1000ac56:	2000      	movs	r0, #0
1000ac58:	bd10      	pop	{r4, pc}
1000ac5a:	46c0      	nop			; (mov r8, r8)
1000ac5c:	1000d2ed 	.word	0x1000d2ed

1000ac60 <ble_slave_security_request_handler>:
1000ac60:	b5f0      	push	{r4, r5, r6, r7, lr}
1000ac62:	b089      	sub	sp, #36	; 0x24
1000ac64:	ac05      	add	r4, sp, #20
1000ac66:	9000      	str	r0, [sp, #0]
1000ac68:	2100      	movs	r1, #0
1000ac6a:	4b52      	ldr	r3, [pc, #328]	; (1000adb4 <ble_slave_security_request_handler+0x154>)
1000ac6c:	2209      	movs	r2, #9
1000ac6e:	0020      	movs	r0, r4
1000ac70:	4798      	blx	r3
1000ac72:	9b00      	ldr	r3, [sp, #0]
1000ac74:	2500      	movs	r5, #0
1000ac76:	881b      	ldrh	r3, [r3, #0]
1000ac78:	494f      	ldr	r1, [pc, #316]	; (1000adb8 <ble_slave_security_request_handler+0x158>)
1000ac7a:	9301      	str	r3, [sp, #4]
1000ac7c:	237c      	movs	r3, #124	; 0x7c
1000ac7e:	469c      	mov	ip, r3
1000ac80:	4660      	mov	r0, ip
1000ac82:	4368      	muls	r0, r5
1000ac84:	1842      	adds	r2, r0, r1
1000ac86:	8916      	ldrh	r6, [r2, #8]
1000ac88:	9f01      	ldr	r7, [sp, #4]
1000ac8a:	000b      	movs	r3, r1
1000ac8c:	42be      	cmp	r6, r7
1000ac8e:	d10a      	bne.n	1000aca6 <ble_slave_security_request_handler+0x46>
1000ac90:	0016      	movs	r6, r2
1000ac92:	365e      	adds	r6, #94	; 0x5e
1000ac94:	7837      	ldrb	r7, [r6, #0]
1000ac96:	2f02      	cmp	r7, #2
1000ac98:	d105      	bne.n	1000aca6 <ble_slave_security_request_handler+0x46>
1000ac9a:	3704      	adds	r7, #4
1000ac9c:	7037      	strb	r7, [r6, #0]
1000ac9e:	7d12      	ldrb	r2, [r2, #20]
1000aca0:	07d6      	lsls	r6, r2, #31
1000aca2:	d404      	bmi.n	1000acae <ble_slave_security_request_handler+0x4e>
1000aca4:	e013      	b.n	1000acce <ble_slave_security_request_handler+0x6e>
1000aca6:	3501      	adds	r5, #1
1000aca8:	2d05      	cmp	r5, #5
1000acaa:	d1e9      	bne.n	1000ac80 <ble_slave_security_request_handler+0x20>
1000acac:	e015      	b.n	1000acda <ble_slave_security_request_handler+0x7a>
1000acae:	9e00      	ldr	r6, [sp, #0]
1000acb0:	78f6      	ldrb	r6, [r6, #3]
1000acb2:	2e00      	cmp	r6, #0
1000acb4:	d00b      	beq.n	1000acce <ble_slave_security_request_handler+0x6e>
1000acb6:	9b00      	ldr	r3, [sp, #0]
1000acb8:	1809      	adds	r1, r1, r0
1000acba:	311a      	adds	r1, #26
1000acbc:	8818      	ldrh	r0, [r3, #0]
1000acbe:	4b3f      	ldr	r3, [pc, #252]	; (1000adbc <ble_slave_security_request_handler+0x15c>)
1000acc0:	4798      	blx	r3
1000acc2:	2800      	cmp	r0, #0
1000acc4:	d101      	bne.n	1000acca <ble_slave_security_request_handler+0x6a>
1000acc6:	2000      	movs	r0, #0
1000acc8:	e071      	b.n	1000adae <ble_slave_security_request_handler+0x14e>
1000acca:	20e2      	movs	r0, #226	; 0xe2
1000accc:	e06f      	b.n	1000adae <ble_slave_security_request_handler+0x14e>
1000acce:	227c      	movs	r2, #124	; 0x7c
1000acd0:	4355      	muls	r5, r2
1000acd2:	195d      	adds	r5, r3, r5
1000acd4:	355e      	adds	r5, #94	; 0x5e
1000acd6:	3a7a      	subs	r2, #122	; 0x7a
1000acd8:	702a      	strb	r2, [r5, #0]
1000acda:	2100      	movs	r1, #0
1000acdc:	257c      	movs	r5, #124	; 0x7c
1000acde:	9a00      	ldr	r2, [sp, #0]
1000ace0:	8810      	ldrh	r0, [r2, #0]
1000ace2:	b2ca      	uxtb	r2, r1
1000ace4:	9201      	str	r2, [sp, #4]
1000ace6:	002a      	movs	r2, r5
1000ace8:	434a      	muls	r2, r1
1000acea:	189a      	adds	r2, r3, r2
1000acec:	8916      	ldrh	r6, [r2, #8]
1000acee:	4286      	cmp	r6, r0
1000acf0:	d106      	bne.n	1000ad00 <ble_slave_security_request_handler+0xa0>
1000acf2:	325e      	adds	r2, #94	; 0x5e
1000acf4:	7816      	ldrb	r6, [r2, #0]
1000acf6:	2e02      	cmp	r6, #2
1000acf8:	d102      	bne.n	1000ad00 <ble_slave_security_request_handler+0xa0>
1000acfa:	2103      	movs	r1, #3
1000acfc:	7011      	strb	r1, [r2, #0]
1000acfe:	e003      	b.n	1000ad08 <ble_slave_security_request_handler+0xa8>
1000ad00:	3101      	adds	r1, #1
1000ad02:	2905      	cmp	r1, #5
1000ad04:	d1ed      	bne.n	1000ace2 <ble_slave_security_request_handler+0x82>
1000ad06:	9101      	str	r1, [sp, #4]
1000ad08:	2104      	movs	r1, #4
1000ad0a:	9a00      	ldr	r2, [sp, #0]
1000ad0c:	9801      	ldr	r0, [sp, #4]
1000ad0e:	78d2      	ldrb	r2, [r2, #3]
1000ad10:	7021      	strb	r1, [r4, #0]
1000ad12:	70a2      	strb	r2, [r4, #2]
1000ad14:	2201      	movs	r2, #1
1000ad16:	3178      	adds	r1, #120	; 0x78
1000ad18:	4341      	muls	r1, r0
1000ad1a:	5c59      	ldrb	r1, [r3, r1]
1000ad1c:	7062      	strb	r2, [r4, #1]
1000ad1e:	2902      	cmp	r1, #2
1000ad20:	d100      	bne.n	1000ad24 <ble_slave_security_request_handler+0xc4>
1000ad22:	3202      	adds	r2, #2
1000ad24:	71a2      	strb	r2, [r4, #6]
1000ad26:	71e2      	strb	r2, [r4, #7]
1000ad28:	2210      	movs	r2, #16
1000ad2a:	9901      	ldr	r1, [sp, #4]
1000ad2c:	7162      	strb	r2, [r4, #5]
1000ad2e:	7122      	strb	r2, [r4, #4]
1000ad30:	326c      	adds	r2, #108	; 0x6c
1000ad32:	4351      	muls	r1, r2
1000ad34:	185a      	adds	r2, r3, r1
1000ad36:	7e12      	ldrb	r2, [r2, #24]
1000ad38:	9102      	str	r1, [sp, #8]
1000ad3a:	2a40      	cmp	r2, #64	; 0x40
1000ad3c:	d12a      	bne.n	1000ad94 <ble_slave_security_request_handler+0x134>
1000ad3e:	000d      	movs	r5, r1
1000ad40:	000a      	movs	r2, r1
1000ad42:	260f      	movs	r6, #15
1000ad44:	3560      	adds	r5, #96	; 0x60
1000ad46:	3268      	adds	r2, #104	; 0x68
1000ad48:	195d      	adds	r5, r3, r5
1000ad4a:	189b      	adds	r3, r3, r2
1000ad4c:	9303      	str	r3, [sp, #12]
1000ad4e:	4f1c      	ldr	r7, [pc, #112]	; (1000adc0 <ble_slave_security_request_handler+0x160>)
1000ad50:	47b8      	blx	r7
1000ad52:	4030      	ands	r0, r6
1000ad54:	7028      	strb	r0, [r5, #0]
1000ad56:	47b8      	blx	r7
1000ad58:	9b03      	ldr	r3, [sp, #12]
1000ad5a:	4030      	ands	r0, r6
1000ad5c:	74a8      	strb	r0, [r5, #18]
1000ad5e:	3501      	adds	r5, #1
1000ad60:	42ab      	cmp	r3, r5
1000ad62:	d1f4      	bne.n	1000ad4e <ble_slave_security_request_handler+0xee>
1000ad64:	2500      	movs	r5, #0
1000ad66:	4e16      	ldr	r6, [pc, #88]	; (1000adc0 <ble_slave_security_request_handler+0x160>)
1000ad68:	47b0      	blx	r6
1000ad6a:	220f      	movs	r2, #15
1000ad6c:	9b02      	ldr	r3, [sp, #8]
1000ad6e:	4f12      	ldr	r7, [pc, #72]	; (1000adb8 <ble_slave_security_request_handler+0x158>)
1000ad70:	195b      	adds	r3, r3, r5
1000ad72:	3368      	adds	r3, #104	; 0x68
1000ad74:	4010      	ands	r0, r2
1000ad76:	3501      	adds	r5, #1
1000ad78:	54f8      	strb	r0, [r7, r3]
1000ad7a:	2d08      	cmp	r5, #8
1000ad7c:	d1f3      	bne.n	1000ad66 <ble_slave_security_request_handler+0x106>
1000ad7e:	47b0      	blx	r6
1000ad80:	237c      	movs	r3, #124	; 0x7c
1000ad82:	9a01      	ldr	r2, [sp, #4]
1000ad84:	4353      	muls	r3, r2
1000ad86:	18ff      	adds	r7, r7, r3
1000ad88:	003b      	movs	r3, r7
1000ad8a:	3370      	adds	r3, #112	; 0x70
1000ad8c:	8018      	strh	r0, [r3, #0]
1000ad8e:	2310      	movs	r3, #16
1000ad90:	377a      	adds	r7, #122	; 0x7a
1000ad92:	703b      	strb	r3, [r7, #0]
1000ad94:	227c      	movs	r2, #124	; 0x7c
1000ad96:	9b01      	ldr	r3, [sp, #4]
1000ad98:	0021      	movs	r1, r4
1000ad9a:	435a      	muls	r2, r3
1000ad9c:	4b06      	ldr	r3, [pc, #24]	; (1000adb8 <ble_slave_security_request_handler+0x158>)
1000ad9e:	3260      	adds	r2, #96	; 0x60
1000ada0:	18d2      	adds	r2, r2, r3
1000ada2:	9b00      	ldr	r3, [sp, #0]
1000ada4:	4c07      	ldr	r4, [pc, #28]	; (1000adc4 <ble_slave_security_request_handler+0x164>)
1000ada6:	8818      	ldrh	r0, [r3, #0]
1000ada8:	2300      	movs	r3, #0
1000adaa:	47a0      	blx	r4
1000adac:	e789      	b.n	1000acc2 <ble_slave_security_request_handler+0x62>
1000adae:	b009      	add	sp, #36	; 0x24
1000adb0:	bdf0      	pop	{r4, r5, r6, r7, pc}
1000adb2:	46c0      	nop			; (mov r8, r8)
1000adb4:	10010b49 	.word	0x10010b49
1000adb8:	10013be8 	.word	0x10013be8
1000adbc:	1000deb1 	.word	0x1000deb1
1000adc0:	10010cc5 	.word	0x10010cc5
1000adc4:	1000dcc5 	.word	0x1000dcc5

1000adc8 <ble_pair_request_handler>:
1000adc8:	b5f0      	push	{r4, r5, r6, r7, lr}
1000adca:	2200      	movs	r2, #0
1000adcc:	247c      	movs	r4, #124	; 0x7c
1000adce:	b089      	sub	sp, #36	; 0x24
1000add0:	9002      	str	r0, [sp, #8]
1000add2:	4938      	ldr	r1, [pc, #224]	; (1000aeb4 <ble_pair_request_handler+0xec>)
1000add4:	8800      	ldrh	r0, [r0, #0]
1000add6:	0023      	movs	r3, r4
1000add8:	4353      	muls	r3, r2
1000adda:	185b      	adds	r3, r3, r1
1000addc:	891e      	ldrh	r6, [r3, #8]
1000adde:	b2d5      	uxtb	r5, r2
1000ade0:	4286      	cmp	r6, r0
1000ade2:	d106      	bne.n	1000adf2 <ble_pair_request_handler+0x2a>
1000ade4:	335e      	adds	r3, #94	; 0x5e
1000ade6:	781e      	ldrb	r6, [r3, #0]
1000ade8:	2e02      	cmp	r6, #2
1000adea:	d102      	bne.n	1000adf2 <ble_pair_request_handler+0x2a>
1000adec:	2203      	movs	r2, #3
1000adee:	701a      	strb	r2, [r3, #0]
1000adf0:	e003      	b.n	1000adfa <ble_pair_request_handler+0x32>
1000adf2:	3201      	adds	r2, #1
1000adf4:	2a05      	cmp	r2, #5
1000adf6:	d1ee      	bne.n	1000add6 <ble_pair_request_handler+0xe>
1000adf8:	0015      	movs	r5, r2
1000adfa:	2200      	movs	r2, #0
1000adfc:	2103      	movs	r1, #3
1000adfe:	ab05      	add	r3, sp, #20
1000ae00:	721a      	strb	r2, [r3, #8]
1000ae02:	709a      	strb	r2, [r3, #2]
1000ae04:	705a      	strb	r2, [r3, #1]
1000ae06:	70da      	strb	r2, [r3, #3]
1000ae08:	327c      	adds	r2, #124	; 0x7c
1000ae0a:	436a      	muls	r2, r5
1000ae0c:	4829      	ldr	r0, [pc, #164]	; (1000aeb4 <ble_pair_request_handler+0xec>)
1000ae0e:	7019      	strb	r1, [r3, #0]
1000ae10:	5c82      	ldrb	r2, [r0, r2]
1000ae12:	2a02      	cmp	r2, #2
1000ae14:	d102      	bne.n	1000ae1c <ble_pair_request_handler+0x54>
1000ae16:	7199      	strb	r1, [r3, #6]
1000ae18:	71d9      	strb	r1, [r3, #7]
1000ae1a:	e002      	b.n	1000ae22 <ble_pair_request_handler+0x5a>
1000ae1c:	2201      	movs	r2, #1
1000ae1e:	719a      	strb	r2, [r3, #6]
1000ae20:	71da      	strb	r2, [r3, #7]
1000ae22:	2210      	movs	r2, #16
1000ae24:	715a      	strb	r2, [r3, #5]
1000ae26:	711a      	strb	r2, [r3, #4]
1000ae28:	237c      	movs	r3, #124	; 0x7c
1000ae2a:	436b      	muls	r3, r5
1000ae2c:	9301      	str	r3, [sp, #4]
1000ae2e:	9a01      	ldr	r2, [sp, #4]
1000ae30:	4b20      	ldr	r3, [pc, #128]	; (1000aeb4 <ble_pair_request_handler+0xec>)
1000ae32:	189b      	adds	r3, r3, r2
1000ae34:	7e1b      	ldrb	r3, [r3, #24]
1000ae36:	2b40      	cmp	r3, #64	; 0x40
1000ae38:	d12b      	bne.n	1000ae92 <ble_pair_request_handler+0xca>
1000ae3a:	0014      	movs	r4, r2
1000ae3c:	4b1d      	ldr	r3, [pc, #116]	; (1000aeb4 <ble_pair_request_handler+0xec>)
1000ae3e:	3460      	adds	r4, #96	; 0x60
1000ae40:	191c      	adds	r4, r3, r4
1000ae42:	0013      	movs	r3, r2
1000ae44:	260f      	movs	r6, #15
1000ae46:	4a1b      	ldr	r2, [pc, #108]	; (1000aeb4 <ble_pair_request_handler+0xec>)
1000ae48:	3368      	adds	r3, #104	; 0x68
1000ae4a:	18d3      	adds	r3, r2, r3
1000ae4c:	9303      	str	r3, [sp, #12]
1000ae4e:	4f1a      	ldr	r7, [pc, #104]	; (1000aeb8 <ble_pair_request_handler+0xf0>)
1000ae50:	47b8      	blx	r7
1000ae52:	4030      	ands	r0, r6
1000ae54:	7020      	strb	r0, [r4, #0]
1000ae56:	47b8      	blx	r7
1000ae58:	9b03      	ldr	r3, [sp, #12]
1000ae5a:	4030      	ands	r0, r6
1000ae5c:	74a0      	strb	r0, [r4, #18]
1000ae5e:	3401      	adds	r4, #1
1000ae60:	429c      	cmp	r4, r3
1000ae62:	d1f4      	bne.n	1000ae4e <ble_pair_request_handler+0x86>
1000ae64:	2400      	movs	r4, #0
1000ae66:	4e14      	ldr	r6, [pc, #80]	; (1000aeb8 <ble_pair_request_handler+0xf0>)
1000ae68:	47b0      	blx	r6
1000ae6a:	220f      	movs	r2, #15
1000ae6c:	9b01      	ldr	r3, [sp, #4]
1000ae6e:	4f11      	ldr	r7, [pc, #68]	; (1000aeb4 <ble_pair_request_handler+0xec>)
1000ae70:	191b      	adds	r3, r3, r4
1000ae72:	3368      	adds	r3, #104	; 0x68
1000ae74:	4010      	ands	r0, r2
1000ae76:	3401      	adds	r4, #1
1000ae78:	54f8      	strb	r0, [r7, r3]
1000ae7a:	2c08      	cmp	r4, #8
1000ae7c:	d1f3      	bne.n	1000ae66 <ble_pair_request_handler+0x9e>
1000ae7e:	47b0      	blx	r6
1000ae80:	237c      	movs	r3, #124	; 0x7c
1000ae82:	436b      	muls	r3, r5
1000ae84:	18ff      	adds	r7, r7, r3
1000ae86:	003b      	movs	r3, r7
1000ae88:	3370      	adds	r3, #112	; 0x70
1000ae8a:	8018      	strh	r0, [r3, #0]
1000ae8c:	2310      	movs	r3, #16
1000ae8e:	377a      	adds	r7, #122	; 0x7a
1000ae90:	703b      	strb	r3, [r7, #0]
1000ae92:	227c      	movs	r2, #124	; 0x7c
1000ae94:	4355      	muls	r5, r2
1000ae96:	002a      	movs	r2, r5
1000ae98:	4b06      	ldr	r3, [pc, #24]	; (1000aeb4 <ble_pair_request_handler+0xec>)
1000ae9a:	3260      	adds	r2, #96	; 0x60
1000ae9c:	189a      	adds	r2, r3, r2
1000ae9e:	9b02      	ldr	r3, [sp, #8]
1000aea0:	a905      	add	r1, sp, #20
1000aea2:	8818      	ldrh	r0, [r3, #0]
1000aea4:	4c05      	ldr	r4, [pc, #20]	; (1000aebc <ble_pair_request_handler+0xf4>)
1000aea6:	2300      	movs	r3, #0
1000aea8:	47a0      	blx	r4
1000aeaa:	2800      	cmp	r0, #0
1000aeac:	d000      	beq.n	1000aeb0 <ble_pair_request_handler+0xe8>
1000aeae:	20e2      	movs	r0, #226	; 0xe2
1000aeb0:	b009      	add	sp, #36	; 0x24
1000aeb2:	bdf0      	pop	{r4, r5, r6, r7, pc}
1000aeb4:	10013be8 	.word	0x10013be8
1000aeb8:	10010cc5 	.word	0x10010cc5
1000aebc:	1000dcc5 	.word	0x1000dcc5

1000aec0 <ble_encryption_request_handler>:
1000aec0:	b5f7      	push	{r0, r1, r2, r4, r5, r6, r7, lr}
1000aec2:	2300      	movs	r3, #0
1000aec4:	0006      	movs	r6, r0
1000aec6:	8801      	ldrh	r1, [r0, #0]
1000aec8:	207c      	movs	r0, #124	; 0x7c
1000aeca:	4c1d      	ldr	r4, [pc, #116]	; (1000af40 <ble_encryption_request_handler+0x80>)
1000aecc:	b2da      	uxtb	r2, r3
1000aece:	9201      	str	r2, [sp, #4]
1000aed0:	0002      	movs	r2, r0
1000aed2:	435a      	muls	r2, r3
1000aed4:	1917      	adds	r7, r2, r4
1000aed6:	9200      	str	r2, [sp, #0]
1000aed8:	893a      	ldrh	r2, [r7, #8]
1000aeda:	428a      	cmp	r2, r1
1000aedc:	d10d      	bne.n	1000aefa <ble_encryption_request_handler+0x3a>
1000aede:	003a      	movs	r2, r7
1000aee0:	325e      	adds	r2, #94	; 0x5e
1000aee2:	7815      	ldrb	r5, [r2, #0]
1000aee4:	2d01      	cmp	r5, #1
1000aee6:	d908      	bls.n	1000aefa <ble_encryption_request_handler+0x3a>
1000aee8:	2306      	movs	r3, #6
1000aeea:	7013      	strb	r3, [r2, #0]
1000aeec:	003b      	movs	r3, r7
1000aeee:	3370      	adds	r3, #112	; 0x70
1000aef0:	881a      	ldrh	r2, [r3, #0]
1000aef2:	8873      	ldrh	r3, [r6, #2]
1000aef4:	429a      	cmp	r2, r3
1000aef6:	d10e      	bne.n	1000af16 <ble_encryption_request_handler+0x56>
1000aef8:	e004      	b.n	1000af04 <ble_encryption_request_handler+0x44>
1000aefa:	3301      	adds	r3, #1
1000aefc:	2b05      	cmp	r3, #5
1000aefe:	d1e5      	bne.n	1000aecc <ble_encryption_request_handler+0xc>
1000af00:	9301      	str	r3, [sp, #4]
1000af02:	e008      	b.n	1000af16 <ble_encryption_request_handler+0x56>
1000af04:	9b00      	ldr	r3, [sp, #0]
1000af06:	1d30      	adds	r0, r6, #4
1000af08:	18e1      	adds	r1, r4, r3
1000af0a:	3172      	adds	r1, #114	; 0x72
1000af0c:	2208      	movs	r2, #8
1000af0e:	4b0d      	ldr	r3, [pc, #52]	; (1000af44 <ble_encryption_request_handler+0x84>)
1000af10:	4798      	blx	r3
1000af12:	1e05      	subs	r5, r0, #0
1000af14:	d00a      	beq.n	1000af2c <ble_encryption_request_handler+0x6c>
1000af16:	237c      	movs	r3, #124	; 0x7c
1000af18:	9a01      	ldr	r2, [sp, #4]
1000af1a:	2105      	movs	r1, #5
1000af1c:	4353      	muls	r3, r2
1000af1e:	4a08      	ldr	r2, [pc, #32]	; (1000af40 <ble_encryption_request_handler+0x80>)
1000af20:	18d3      	adds	r3, r2, r3
1000af22:	8918      	ldrh	r0, [r3, #8]
1000af24:	4b08      	ldr	r3, [pc, #32]	; (1000af48 <ble_encryption_request_handler+0x88>)
1000af26:	4798      	blx	r3
1000af28:	20e2      	movs	r0, #226	; 0xe2
1000af2a:	e008      	b.n	1000af3e <ble_encryption_request_handler+0x7e>
1000af2c:	9b00      	ldr	r3, [sp, #0]
1000af2e:	7d39      	ldrb	r1, [r7, #20]
1000af30:	3360      	adds	r3, #96	; 0x60
1000af32:	191b      	adds	r3, r3, r4
1000af34:	8830      	ldrh	r0, [r6, #0]
1000af36:	2201      	movs	r2, #1
1000af38:	4c04      	ldr	r4, [pc, #16]	; (1000af4c <ble_encryption_request_handler+0x8c>)
1000af3a:	47a0      	blx	r4
1000af3c:	0028      	movs	r0, r5
1000af3e:	bdfe      	pop	{r1, r2, r3, r4, r5, r6, r7, pc}
1000af40:	10013be8 	.word	0x10013be8
1000af44:	10010b19 	.word	0x10010b19
1000af48:	1000d2cd 	.word	0x1000d2cd
1000af4c:	1000df29 	.word	0x1000df29

1000af50 <ble_scan_info_handler>:
1000af50:	b570      	push	{r4, r5, r6, lr}
1000af52:	4c0b      	ldr	r4, [pc, #44]	; (1000af80 <ble_scan_info_handler+0x30>)
1000af54:	0001      	movs	r1, r0
1000af56:	7823      	ldrb	r3, [r4, #0]
1000af58:	2b13      	cmp	r3, #19
1000af5a:	d80d      	bhi.n	1000af78 <ble_scan_info_handler+0x28>
1000af5c:	2229      	movs	r2, #41	; 0x29
1000af5e:	7825      	ldrb	r5, [r4, #0]
1000af60:	4b08      	ldr	r3, [pc, #32]	; (1000af84 <ble_scan_info_handler+0x34>)
1000af62:	4355      	muls	r5, r2
1000af64:	18e8      	adds	r0, r5, r3
1000af66:	4b08      	ldr	r3, [pc, #32]	; (1000af88 <ble_scan_info_handler+0x38>)
1000af68:	4798      	blx	r3
1000af6a:	7823      	ldrb	r3, [r4, #0]
1000af6c:	7823      	ldrb	r3, [r4, #0]
1000af6e:	2000      	movs	r0, #0
1000af70:	3301      	adds	r3, #1
1000af72:	b2db      	uxtb	r3, r3
1000af74:	7023      	strb	r3, [r4, #0]
1000af76:	e002      	b.n	1000af7e <ble_scan_info_handler+0x2e>
1000af78:	4b04      	ldr	r3, [pc, #16]	; (1000af8c <ble_scan_info_handler+0x3c>)
1000af7a:	4798      	blx	r3
1000af7c:	20e2      	movs	r0, #226	; 0xe2
1000af7e:	bd70      	pop	{r4, r5, r6, pc}
1000af80:	10012814 	.word	0x10012814
1000af84:	10013ecc 	.word	0x10013ecc
1000af88:	10010b37 	.word	0x10010b37
1000af8c:	1000d2ad 	.word	0x1000d2ad

1000af90 <ble_pair_done_handler>:
1000af90:	b5f8      	push	{r3, r4, r5, r6, r7, lr}
1000af92:	2400      	movs	r4, #0
1000af94:	0005      	movs	r5, r0
1000af96:	4b25      	ldr	r3, [pc, #148]	; (1000b02c <ble_pair_done_handler+0x9c>)
1000af98:	8840      	ldrh	r0, [r0, #2]
1000af9a:	001a      	movs	r2, r3
1000af9c:	3a56      	subs	r2, #86	; 0x56
1000af9e:	8812      	ldrh	r2, [r2, #0]
1000afa0:	4282      	cmp	r2, r0
1000afa2:	d102      	bne.n	1000afaa <ble_pair_done_handler+0x1a>
1000afa4:	781a      	ldrb	r2, [r3, #0]
1000afa6:	2a03      	cmp	r2, #3
1000afa8:	d006      	beq.n	1000afb8 <ble_pair_done_handler+0x28>
1000afaa:	3401      	adds	r4, #1
1000afac:	b2e4      	uxtb	r4, r4
1000afae:	337c      	adds	r3, #124	; 0x7c
1000afb0:	2c05      	cmp	r4, #5
1000afb2:	d1f2      	bne.n	1000af9a <ble_pair_done_handler+0xa>
1000afb4:	2300      	movs	r3, #0
1000afb6:	e000      	b.n	1000afba <ble_pair_done_handler+0x2a>
1000afb8:	2301      	movs	r3, #1
1000afba:	792e      	ldrb	r6, [r5, #4]
1000afbc:	2e00      	cmp	r6, #0
1000afbe:	d124      	bne.n	1000b00a <ble_pair_done_handler+0x7a>
1000afc0:	2b00      	cmp	r3, #0
1000afc2:	d101      	bne.n	1000afc8 <ble_pair_done_handler+0x38>
1000afc4:	26e2      	movs	r6, #226	; 0xe2
1000afc6:	e02e      	b.n	1000b026 <ble_pair_done_handler+0x96>
1000afc8:	207c      	movs	r0, #124	; 0x7c
1000afca:	4344      	muls	r4, r0
1000afcc:	4f18      	ldr	r7, [pc, #96]	; (1000b030 <ble_pair_done_handler+0xa0>)
1000afce:	782a      	ldrb	r2, [r5, #0]
1000afd0:	193b      	adds	r3, r7, r4
1000afd2:	751a      	strb	r2, [r3, #20]
1000afd4:	792a      	ldrb	r2, [r5, #4]
1000afd6:	0029      	movs	r1, r5
1000afd8:	761a      	strb	r2, [r3, #24]
1000afda:	2205      	movs	r2, #5
1000afdc:	1938      	adds	r0, r7, r4
1000afde:	335e      	adds	r3, #94	; 0x5e
1000afe0:	701a      	strb	r2, [r3, #0]
1000afe2:	3122      	adds	r1, #34	; 0x22
1000afe4:	320b      	adds	r2, #11
1000afe6:	4b13      	ldr	r3, [pc, #76]	; (1000b034 <ble_pair_done_handler+0xa4>)
1000afe8:	3036      	adds	r0, #54	; 0x36
1000afea:	4798      	blx	r3
1000afec:	0029      	movs	r1, r5
1000afee:	1938      	adds	r0, r7, r4
1000aff0:	3132      	adds	r1, #50	; 0x32
1000aff2:	2217      	movs	r2, #23
1000aff4:	4b0f      	ldr	r3, [pc, #60]	; (1000b034 <ble_pair_done_handler+0xa4>)
1000aff6:	193c      	adds	r4, r7, r4
1000aff8:	3046      	adds	r0, #70	; 0x46
1000affa:	4798      	blx	r3
1000affc:	0020      	movs	r0, r4
1000affe:	1da9      	adds	r1, r5, #6
1000b000:	221c      	movs	r2, #28
1000b002:	4b0c      	ldr	r3, [pc, #48]	; (1000b034 <ble_pair_done_handler+0xa4>)
1000b004:	301a      	adds	r0, #26
1000b006:	4798      	blx	r3
1000b008:	e00d      	b.n	1000b026 <ble_pair_done_handler+0x96>
1000b00a:	237c      	movs	r3, #124	; 0x7c
1000b00c:	435c      	muls	r4, r3
1000b00e:	4b08      	ldr	r3, [pc, #32]	; (1000b030 <ble_pair_done_handler+0xa0>)
1000b010:	191c      	adds	r4, r3, r4
1000b012:	345e      	adds	r4, #94	; 0x5e
1000b014:	7823      	ldrb	r3, [r4, #0]
1000b016:	2b01      	cmp	r3, #1
1000b018:	d904      	bls.n	1000b024 <ble_pair_done_handler+0x94>
1000b01a:	2113      	movs	r1, #19
1000b01c:	4b06      	ldr	r3, [pc, #24]	; (1000b038 <ble_pair_done_handler+0xa8>)
1000b01e:	4798      	blx	r3
1000b020:	2800      	cmp	r0, #0
1000b022:	d1cf      	bne.n	1000afc4 <ble_pair_done_handler+0x34>
1000b024:	2600      	movs	r6, #0
1000b026:	0030      	movs	r0, r6
1000b028:	bdf8      	pop	{r3, r4, r5, r6, r7, pc}
1000b02a:	46c0      	nop			; (mov r8, r8)
1000b02c:	10013c46 	.word	0x10013c46
1000b030:	10013be8 	.word	0x10013be8
1000b034:	10010b37 	.word	0x10010b37
1000b038:	1000d2cd 	.word	0x1000d2cd

1000b03c <ble_pair_key_request_handler>:
1000b03c:	b5f0      	push	{r4, r5, r6, r7, lr}
1000b03e:	0007      	movs	r7, r0
1000b040:	b087      	sub	sp, #28
1000b042:	ae04      	add	r6, sp, #16
1000b044:	4d19      	ldr	r5, [pc, #100]	; (1000b0ac <ble_pair_key_request_handler+0x70>)
1000b046:	2206      	movs	r2, #6
1000b048:	4919      	ldr	r1, [pc, #100]	; (1000b0b0 <ble_pair_key_request_handler+0x74>)
1000b04a:	ac03      	add	r4, sp, #12
1000b04c:	0030      	movs	r0, r6
1000b04e:	47a8      	blx	r5
1000b050:	2204      	movs	r2, #4
1000b052:	0039      	movs	r1, r7
1000b054:	0020      	movs	r0, r4
1000b056:	47a8      	blx	r5
1000b058:	78e3      	ldrb	r3, [r4, #3]
1000b05a:	9301      	str	r3, [sp, #4]
1000b05c:	1e1d      	subs	r5, r3, #0
1000b05e:	d00b      	beq.n	1000b078 <ble_pair_key_request_handler+0x3c>
1000b060:	2380      	movs	r3, #128	; 0x80
1000b062:	8862      	ldrh	r2, [r4, #2]
1000b064:	005b      	lsls	r3, r3, #1
1000b066:	429a      	cmp	r2, r3
1000b068:	d114      	bne.n	1000b094 <ble_pair_key_request_handler+0x58>
1000b06a:	e017      	b.n	1000b09c <ble_pair_key_request_handler+0x60>
1000b06c:	0003      	movs	r3, r0
1000b06e:	3b30      	subs	r3, #48	; 0x30
1000b070:	2b09      	cmp	r3, #9
1000b072:	d801      	bhi.n	1000b078 <ble_pair_key_request_handler+0x3c>
1000b074:	5570      	strb	r0, [r6, r5]
1000b076:	3501      	adds	r5, #1
1000b078:	2d06      	cmp	r5, #6
1000b07a:	d0f1      	beq.n	1000b060 <ble_pair_key_request_handler+0x24>
1000b07c:	201e      	movs	r0, #30
1000b07e:	4b0d      	ldr	r3, [pc, #52]	; (1000b0b4 <ble_pair_key_request_handler+0x78>)
1000b080:	4798      	blx	r3
1000b082:	b2c0      	uxtb	r0, r0
1000b084:	2800      	cmp	r0, #0
1000b086:	d1f1      	bne.n	1000b06c <ble_pair_key_request_handler+0x30>
1000b088:	8838      	ldrh	r0, [r7, #0]
1000b08a:	2113      	movs	r1, #19
1000b08c:	4b0a      	ldr	r3, [pc, #40]	; (1000b0b8 <ble_pair_key_request_handler+0x7c>)
1000b08e:	4798      	blx	r3
1000b090:	20e2      	movs	r0, #226	; 0xe2
1000b092:	e009      	b.n	1000b0a8 <ble_pair_key_request_handler+0x6c>
1000b094:	2000      	movs	r0, #0
1000b096:	9b01      	ldr	r3, [sp, #4]
1000b098:	4283      	cmp	r3, r0
1000b09a:	d105      	bne.n	1000b0a8 <ble_pair_key_request_handler+0x6c>
1000b09c:	78a1      	ldrb	r1, [r4, #2]
1000b09e:	8838      	ldrh	r0, [r7, #0]
1000b0a0:	0032      	movs	r2, r6
1000b0a2:	4b06      	ldr	r3, [pc, #24]	; (1000b0bc <ble_pair_key_request_handler+0x80>)
1000b0a4:	4798      	blx	r3
1000b0a6:	2000      	movs	r0, #0
1000b0a8:	b007      	add	sp, #28
1000b0aa:	bdf0      	pop	{r4, r5, r6, r7, pc}
1000b0ac:	10010b37 	.word	0x10010b37
1000b0b0:	10011c98 	.word	0x10011c98
1000b0b4:	1000b8e5 	.word	0x1000b8e5
1000b0b8:	1000d2cd 	.word	0x1000d2cd
1000b0bc:	1000ddf5 	.word	0x1000ddf5

1000b0c0 <ble_mtu_changed_indication_handler>:
1000b0c0:	2000      	movs	r0, #0
1000b0c2:	4770      	bx	lr

1000b0c4 <ble_undefined_event_handler>:
1000b0c4:	2000      	movs	r0, #0
1000b0c6:	4770      	bx	lr

1000b0c8 <ble_mtu_changed_cmd_complete_handler>:
1000b0c8:	78c0      	ldrb	r0, [r0, #3]
1000b0ca:	2800      	cmp	r0, #0
1000b0cc:	d000      	beq.n	1000b0d0 <ble_mtu_changed_cmd_complete_handler+0x8>
1000b0ce:	20e2      	movs	r0, #226	; 0xe2
1000b0d0:	4770      	bx	lr
	...

1000b0d4 <ble_set_device_name>:
1000b0d4:	b510      	push	{r4, lr}
1000b0d6:	23cf      	movs	r3, #207	; 0xcf
1000b0d8:	2800      	cmp	r0, #0
1000b0da:	d004      	beq.n	1000b0e6 <ble_set_device_name+0x12>
1000b0dc:	2900      	cmp	r1, #0
1000b0de:	d002      	beq.n	1000b0e6 <ble_set_device_name+0x12>
1000b0e0:	4b02      	ldr	r3, [pc, #8]	; (1000b0ec <ble_set_device_name+0x18>)
1000b0e2:	4798      	blx	r3
1000b0e4:	0003      	movs	r3, r0
1000b0e6:	0018      	movs	r0, r3
1000b0e8:	bd10      	pop	{r4, pc}
1000b0ea:	46c0      	nop			; (mov r8, r8)
1000b0ec:	1000cdf1 	.word	0x1000cdf1

1000b0f0 <ble_mgr_events_callback_handler>:
1000b0f0:	b530      	push	{r4, r5, lr}
1000b0f2:	0005      	movs	r5, r0
1000b0f4:	1e10      	subs	r0, r2, #0
1000b0f6:	d027      	beq.n	1000b148 <ble_mgr_events_callback_handler+0x58>
1000b0f8:	2000      	movs	r0, #0
1000b0fa:	2906      	cmp	r1, #6
1000b0fc:	d824      	bhi.n	1000b148 <ble_mgr_events_callback_handler+0x58>
1000b0fe:	4b13      	ldr	r3, [pc, #76]	; (1000b14c <ble_mgr_events_callback_handler+0x5c>)
1000b100:	5c5c      	ldrb	r4, [r3, r1]
1000b102:	4b13      	ldr	r3, [pc, #76]	; (1000b150 <ble_mgr_events_callback_handler+0x60>)
1000b104:	0089      	lsls	r1, r1, #2
1000b106:	58cb      	ldr	r3, [r1, r3]
1000b108:	4285      	cmp	r5, r0
1000b10a:	d10c      	bne.n	1000b126 <ble_mgr_events_callback_handler+0x36>
1000b10c:	00a4      	lsls	r4, r4, #2
1000b10e:	191c      	adds	r4, r3, r4
1000b110:	429c      	cmp	r4, r3
1000b112:	d018      	beq.n	1000b146 <ble_mgr_events_callback_handler+0x56>
1000b114:	0019      	movs	r1, r3
1000b116:	3304      	adds	r3, #4
1000b118:	1f18      	subs	r0, r3, #4
1000b11a:	6800      	ldr	r0, [r0, #0]
1000b11c:	2800      	cmp	r0, #0
1000b11e:	d1f7      	bne.n	1000b110 <ble_mgr_events_callback_handler+0x20>
1000b120:	600a      	str	r2, [r1, #0]
1000b122:	3001      	adds	r0, #1
1000b124:	e010      	b.n	1000b148 <ble_mgr_events_callback_handler+0x58>
1000b126:	2d01      	cmp	r5, #1
1000b128:	d10e      	bne.n	1000b148 <ble_mgr_events_callback_handler+0x58>
1000b12a:	00a4      	lsls	r4, r4, #2
1000b12c:	191c      	adds	r4, r3, r4
1000b12e:	42a3      	cmp	r3, r4
1000b130:	d009      	beq.n	1000b146 <ble_mgr_events_callback_handler+0x56>
1000b132:	0019      	movs	r1, r3
1000b134:	3304      	adds	r3, #4
1000b136:	1f18      	subs	r0, r3, #4
1000b138:	6800      	ldr	r0, [r0, #0]
1000b13a:	4282      	cmp	r2, r0
1000b13c:	d1f7      	bne.n	1000b12e <ble_mgr_events_callback_handler+0x3e>
1000b13e:	2300      	movs	r3, #0
1000b140:	2001      	movs	r0, #1
1000b142:	600b      	str	r3, [r1, #0]
1000b144:	e000      	b.n	1000b148 <ble_mgr_events_callback_handler+0x58>
1000b146:	2000      	movs	r0, #0
1000b148:	bd30      	pop	{r4, r5, pc}
1000b14a:	46c0      	nop			; (mov r8, r8)
1000b14c:	10011d30 	.word	0x10011d30
1000b150:	10011d38 	.word	0x10011d38

1000b154 <ble_device_init>:
1000b154:	b5f0      	push	{r4, r5, r6, r7, lr}
1000b156:	2400      	movs	r4, #0
1000b158:	b08f      	sub	sp, #60	; 0x3c
1000b15a:	4b56      	ldr	r3, [pc, #344]	; (1000b2b4 <ble_device_init+0x160>)
1000b15c:	4d56      	ldr	r5, [pc, #344]	; (1000b2b8 <ble_device_init+0x164>)
1000b15e:	9000      	str	r0, [sp, #0]
1000b160:	2207      	movs	r2, #7
1000b162:	0021      	movs	r1, r4
1000b164:	4855      	ldr	r0, [pc, #340]	; (1000b2bc <ble_device_init+0x168>)
1000b166:	601c      	str	r4, [r3, #0]
1000b168:	47a8      	blx	r5
1000b16a:	2212      	movs	r2, #18
1000b16c:	0021      	movs	r1, r4
1000b16e:	4854      	ldr	r0, [pc, #336]	; (1000b2c0 <ble_device_init+0x16c>)
1000b170:	47a8      	blx	r5
1000b172:	4a54      	ldr	r2, [pc, #336]	; (1000b2c4 <ble_device_init+0x170>)
1000b174:	0021      	movs	r1, r4
1000b176:	4854      	ldr	r0, [pc, #336]	; (1000b2c8 <ble_device_init+0x174>)
1000b178:	47a8      	blx	r5
1000b17a:	22cd      	movs	r2, #205	; 0xcd
1000b17c:	4b53      	ldr	r3, [pc, #332]	; (1000b2cc <ble_device_init+0x178>)
1000b17e:	0092      	lsls	r2, r2, #2
1000b180:	0021      	movs	r1, r4
1000b182:	4853      	ldr	r0, [pc, #332]	; (1000b2d0 <ble_device_init+0x17c>)
1000b184:	701c      	strb	r4, [r3, #0]
1000b186:	47a8      	blx	r5
1000b188:	2283      	movs	r2, #131	; 0x83
1000b18a:	4b52      	ldr	r3, [pc, #328]	; (1000b2d4 <ble_device_init+0x180>)
1000b18c:	0092      	lsls	r2, r2, #2
1000b18e:	0021      	movs	r1, r4
1000b190:	4851      	ldr	r0, [pc, #324]	; (1000b2d8 <ble_device_init+0x184>)
1000b192:	701c      	strb	r4, [r3, #0]
1000b194:	47a8      	blx	r5
1000b196:	2280      	movs	r2, #128	; 0x80
1000b198:	0021      	movs	r1, r4
1000b19a:	00d2      	lsls	r2, r2, #3
1000b19c:	484f      	ldr	r0, [pc, #316]	; (1000b2dc <ble_device_init+0x188>)
1000b19e:	47a8      	blx	r5
1000b1a0:	2280      	movs	r2, #128	; 0x80
1000b1a2:	4f4f      	ldr	r7, [pc, #316]	; (1000b2e0 <ble_device_init+0x18c>)
1000b1a4:	0152      	lsls	r2, r2, #5
1000b1a6:	0021      	movs	r1, r4
1000b1a8:	0038      	movs	r0, r7
1000b1aa:	47a8      	blx	r5
1000b1ac:	4e4d      	ldr	r6, [pc, #308]	; (1000b2e4 <ble_device_init+0x190>)
1000b1ae:	221c      	movs	r2, #28
1000b1b0:	0021      	movs	r1, r4
1000b1b2:	0030      	movs	r0, r6
1000b1b4:	47a8      	blx	r5
1000b1b6:	4b49      	ldr	r3, [pc, #292]	; (1000b2dc <ble_device_init+0x188>)
1000b1b8:	6137      	str	r7, [r6, #16]
1000b1ba:	60b3      	str	r3, [r6, #8]
1000b1bc:	2380      	movs	r3, #128	; 0x80
1000b1be:	00db      	lsls	r3, r3, #3
1000b1c0:	60f3      	str	r3, [r6, #12]
1000b1c2:	2380      	movs	r3, #128	; 0x80
1000b1c4:	015b      	lsls	r3, r3, #5
1000b1c6:	6173      	str	r3, [r6, #20]
1000b1c8:	4b47      	ldr	r3, [pc, #284]	; (1000b2e8 <ble_device_init+0x194>)
1000b1ca:	601c      	str	r4, [r3, #0]
1000b1cc:	605c      	str	r4, [r3, #4]
1000b1ce:	609c      	str	r4, [r3, #8]
1000b1d0:	60dc      	str	r4, [r3, #12]
1000b1d2:	611c      	str	r4, [r3, #16]
1000b1d4:	4b45      	ldr	r3, [pc, #276]	; (1000b2ec <ble_device_init+0x198>)
1000b1d6:	601c      	str	r4, [r3, #0]
1000b1d8:	605c      	str	r4, [r3, #4]
1000b1da:	609c      	str	r4, [r3, #8]
1000b1dc:	60dc      	str	r4, [r3, #12]
1000b1de:	611c      	str	r4, [r3, #16]
1000b1e0:	4b43      	ldr	r3, [pc, #268]	; (1000b2f0 <ble_device_init+0x19c>)
1000b1e2:	601c      	str	r4, [r3, #0]
1000b1e4:	605c      	str	r4, [r3, #4]
1000b1e6:	609c      	str	r4, [r3, #8]
1000b1e8:	60dc      	str	r4, [r3, #12]
1000b1ea:	611c      	str	r4, [r3, #16]
1000b1ec:	4b41      	ldr	r3, [pc, #260]	; (1000b2f4 <ble_device_init+0x1a0>)
1000b1ee:	601c      	str	r4, [r3, #0]
1000b1f0:	4b41      	ldr	r3, [pc, #260]	; (1000b2f8 <ble_device_init+0x1a4>)
1000b1f2:	601c      	str	r4, [r3, #0]
1000b1f4:	4b41      	ldr	r3, [pc, #260]	; (1000b2fc <ble_device_init+0x1a8>)
1000b1f6:	601c      	str	r4, [r3, #0]
1000b1f8:	605c      	str	r4, [r3, #4]
1000b1fa:	609c      	str	r4, [r3, #8]
1000b1fc:	60dc      	str	r4, [r3, #12]
1000b1fe:	611c      	str	r4, [r3, #16]
1000b200:	4b3f      	ldr	r3, [pc, #252]	; (1000b300 <ble_device_init+0x1ac>)
1000b202:	4f40      	ldr	r7, [pc, #256]	; (1000b304 <ble_device_init+0x1b0>)
1000b204:	601c      	str	r4, [r3, #0]
1000b206:	4b30      	ldr	r3, [pc, #192]	; (1000b2c8 <ble_device_init+0x174>)
1000b208:	9301      	str	r3, [sp, #4]
1000b20a:	0038      	movs	r0, r7
1000b20c:	227c      	movs	r2, #124	; 0x7c
1000b20e:	385e      	subs	r0, #94	; 0x5e
1000b210:	2100      	movs	r1, #0
1000b212:	47a8      	blx	r5
1000b214:	003b      	movs	r3, r7
1000b216:	2240      	movs	r2, #64	; 0x40
1000b218:	3b46      	subs	r3, #70	; 0x46
1000b21a:	703c      	strb	r4, [r7, #0]
1000b21c:	701a      	strb	r2, [r3, #0]
1000b21e:	4b3a      	ldr	r3, [pc, #232]	; (1000b308 <ble_device_init+0x1b4>)
1000b220:	377c      	adds	r7, #124	; 0x7c
1000b222:	42bb      	cmp	r3, r7
1000b224:	d1f1      	bne.n	1000b20a <ble_device_init+0xb6>
1000b226:	2200      	movs	r2, #0
1000b228:	4b38      	ldr	r3, [pc, #224]	; (1000b30c <ble_device_init+0x1b8>)
1000b22a:	0030      	movs	r0, r6
1000b22c:	701a      	strb	r2, [r3, #0]
1000b22e:	4b25      	ldr	r3, [pc, #148]	; (1000b2c4 <ble_device_init+0x170>)
1000b230:	6073      	str	r3, [r6, #4]
1000b232:	9b01      	ldr	r3, [sp, #4]
1000b234:	6033      	str	r3, [r6, #0]
1000b236:	4b36      	ldr	r3, [pc, #216]	; (1000b310 <ble_device_init+0x1bc>)
1000b238:	4798      	blx	r3
1000b23a:	1e06      	subs	r6, r0, #0
1000b23c:	d000      	beq.n	1000b240 <ble_device_init+0xec>
1000b23e:	e7fe      	b.n	1000b23e <ble_device_init+0xea>
1000b240:	4c34      	ldr	r4, [pc, #208]	; (1000b314 <ble_device_init+0x1c0>)
1000b242:	4a35      	ldr	r2, [pc, #212]	; (1000b318 <ble_device_init+0x1c4>)
1000b244:	0001      	movs	r1, r0
1000b246:	47a0      	blx	r4
1000b248:	4a34      	ldr	r2, [pc, #208]	; (1000b31c <ble_device_init+0x1c8>)
1000b24a:	2102      	movs	r1, #2
1000b24c:	0030      	movs	r0, r6
1000b24e:	47a0      	blx	r4
1000b250:	4b33      	ldr	r3, [pc, #204]	; (1000b320 <ble_device_init+0x1cc>)
1000b252:	2109      	movs	r1, #9
1000b254:	4833      	ldr	r0, [pc, #204]	; (1000b324 <ble_device_init+0x1d0>)
1000b256:	4798      	blx	r3
1000b258:	4933      	ldr	r1, [pc, #204]	; (1000b328 <ble_device_init+0x1d4>)
1000b25a:	2207      	movs	r2, #7
1000b25c:	3106      	adds	r1, #6
1000b25e:	a802      	add	r0, sp, #8
1000b260:	4f32      	ldr	r7, [pc, #200]	; (1000b32c <ble_device_init+0x1d8>)
1000b262:	ac04      	add	r4, sp, #16
1000b264:	47b8      	blx	r7
1000b266:	2226      	movs	r2, #38	; 0x26
1000b268:	0031      	movs	r1, r6
1000b26a:	0020      	movs	r0, r4
1000b26c:	47a8      	blx	r5
1000b26e:	9b00      	ldr	r3, [sp, #0]
1000b270:	2b00      	cmp	r3, #0
1000b272:	d104      	bne.n	1000b27e <ble_device_init+0x12a>
1000b274:	4b2e      	ldr	r3, [pc, #184]	; (1000b330 <ble_device_init+0x1dc>)
1000b276:	a802      	add	r0, sp, #8
1000b278:	4798      	blx	r3
1000b27a:	ab02      	add	r3, sp, #8
1000b27c:	9300      	str	r3, [sp, #0]
1000b27e:	230a      	movs	r3, #10
1000b280:	7023      	strb	r3, [r4, #0]
1000b282:	4b2c      	ldr	r3, [pc, #176]	; (1000b334 <ble_device_init+0x1e0>)
1000b284:	2207      	movs	r2, #7
1000b286:	9900      	ldr	r1, [sp, #0]
1000b288:	a805      	add	r0, sp, #20
1000b28a:	8063      	strh	r3, [r4, #2]
1000b28c:	47b8      	blx	r7
1000b28e:	2300      	movs	r3, #0
1000b290:	76e3      	strb	r3, [r4, #27]
1000b292:	7723      	strb	r3, [r4, #28]
1000b294:	7763      	strb	r3, [r4, #29]
1000b296:	77a3      	strb	r3, [r4, #30]
1000b298:	77e3      	strb	r3, [r4, #31]
1000b29a:	8423      	strh	r3, [r4, #32]
1000b29c:	8463      	strh	r3, [r4, #34]	; 0x22
1000b29e:	2380      	movs	r3, #128	; 0x80
1000b2a0:	009b      	lsls	r3, r3, #2
1000b2a2:	84a3      	strh	r3, [r4, #36]	; 0x24
1000b2a4:	0020      	movs	r0, r4
1000b2a6:	4b24      	ldr	r3, [pc, #144]	; (1000b338 <ble_device_init+0x1e4>)
1000b2a8:	4798      	blx	r3
1000b2aa:	9800      	ldr	r0, [sp, #0]
1000b2ac:	4b23      	ldr	r3, [pc, #140]	; (1000b33c <ble_device_init+0x1e8>)
1000b2ae:	4798      	blx	r3
1000b2b0:	b00f      	add	sp, #60	; 0x3c
1000b2b2:	bdf0      	pop	{r4, r5, r6, r7, pc}
1000b2b4:	10012810 	.word	0x10012810
1000b2b8:	10010b49 	.word	0x10010b49
1000b2bc:	10012815 	.word	0x10012815
1000b2c0:	10013e94 	.word	0x10013e94
1000b2c4:	000004e2 	.word	0x000004e2
1000b2c8:	10012330 	.word	0x10012330
1000b2cc:	10012814 	.word	0x10012814
1000b2d0:	10013ecc 	.word	0x10013ecc
1000b2d4:	10013ec4 	.word	0x10013ec4
1000b2d8:	10014200 	.word	0x10014200
1000b2dc:	10011f30 	.word	0x10011f30
1000b2e0:	1001281c 	.word	0x1001281c
1000b2e4:	10013ea8 	.word	0x10013ea8
1000b2e8:	10013e6c 	.word	0x10013e6c
1000b2ec:	10013e80 	.word	0x10013e80
1000b2f0:	10013bd4 	.word	0x10013bd4
1000b2f4:	10013ec8 	.word	0x10013ec8
1000b2f8:	10013bd0 	.word	0x10013bd0
1000b2fc:	10013e58 	.word	0x10013e58
1000b300:	1001440c 	.word	0x1001440c
1000b304:	10013c46 	.word	0x10013c46
1000b308:	10013eb2 	.word	0x10013eb2
1000b30c:	10013e54 	.word	0x10013e54
1000b310:	1000ced9 	.word	0x1000ced9
1000b314:	1000b0f1 	.word	0x1000b0f1
1000b318:	10011ce4 	.word	0x10011ce4
1000b31c:	10011ca8 	.word	0x10011ca8
1000b320:	1000b0d5 	.word	0x1000b0d5
1000b324:	10011cd0 	.word	0x10011cd0
1000b328:	10011c98 	.word	0x10011c98
1000b32c:	10010b37 	.word	0x10010b37
1000b330:	1000ce25 	.word	0x1000ce25
1000b334:	00003a98 	.word	0x00003a98
1000b338:	1000ce49 	.word	0x1000ce49
1000b33c:	1000d08d 	.word	0x1000d08d

1000b340 <ble_send_slave_sec_request>:
1000b340:	2200      	movs	r2, #0
1000b342:	b510      	push	{r4, lr}
1000b344:	0011      	movs	r1, r2
1000b346:	4b03      	ldr	r3, [pc, #12]	; (1000b354 <ble_send_slave_sec_request+0x14>)
1000b348:	4798      	blx	r3
1000b34a:	2800      	cmp	r0, #0
1000b34c:	d000      	beq.n	1000b350 <ble_send_slave_sec_request+0x10>
1000b34e:	20e2      	movs	r0, #226	; 0xe2
1000b350:	bd10      	pop	{r4, pc}
1000b352:	46c0      	nop			; (mov r8, r8)
1000b354:	1000de71 	.word	0x1000de71

1000b358 <ble_connected_state_handler>:
1000b358:	b5f0      	push	{r4, r5, r6, r7, lr}
1000b35a:	7a84      	ldrb	r4, [r0, #10]
1000b35c:	b097      	sub	sp, #92	; 0x5c
1000b35e:	0005      	movs	r5, r0
1000b360:	2c00      	cmp	r4, #0
1000b362:	d001      	beq.n	1000b368 <ble_connected_state_handler+0x10>
1000b364:	2400      	movs	r4, #0
1000b366:	e092      	b.n	1000b48e <ble_connected_state_handler+0x136>
1000b368:	0001      	movs	r1, r0
1000b36a:	2212      	movs	r2, #18
1000b36c:	4e49      	ldr	r6, [pc, #292]	; (1000b494 <ble_connected_state_handler+0x13c>)
1000b36e:	484a      	ldr	r0, [pc, #296]	; (1000b498 <ble_connected_state_handler+0x140>)
1000b370:	47b0      	blx	r6
1000b372:	2207      	movs	r2, #7
1000b374:	0029      	movs	r1, r5
1000b376:	4849      	ldr	r0, [pc, #292]	; (1000b49c <ble_connected_state_handler+0x144>)
1000b378:	4b49      	ldr	r3, [pc, #292]	; (1000b4a0 <ble_connected_state_handler+0x148>)
1000b37a:	4798      	blx	r3
1000b37c:	9601      	str	r6, [sp, #4]
1000b37e:	2800      	cmp	r0, #0
1000b380:	d020      	beq.n	1000b3c4 <ble_connected_state_handler+0x6c>
1000b382:	782b      	ldrb	r3, [r5, #0]
1000b384:	2b02      	cmp	r3, #2
1000b386:	d11d      	bne.n	1000b3c4 <ble_connected_state_handler+0x6c>
1000b388:	2250      	movs	r2, #80	; 0x50
1000b38a:	0021      	movs	r1, r4
1000b38c:	a802      	add	r0, sp, #8
1000b38e:	4b45      	ldr	r3, [pc, #276]	; (1000b4a4 <ble_connected_state_handler+0x14c>)
1000b390:	4798      	blx	r3
1000b392:	4a45      	ldr	r2, [pc, #276]	; (1000b4a8 <ble_connected_state_handler+0x150>)
1000b394:	0021      	movs	r1, r4
1000b396:	0013      	movs	r3, r2
1000b398:	3110      	adds	r1, #16
1000b39a:	b289      	uxth	r1, r1
1000b39c:	781e      	ldrb	r6, [r3, #0]
1000b39e:	1c60      	adds	r0, r4, #1
1000b3a0:	af02      	add	r7, sp, #8
1000b3a2:	553e      	strb	r6, [r7, r4]
1000b3a4:	b284      	uxth	r4, r0
1000b3a6:	3301      	adds	r3, #1
1000b3a8:	428c      	cmp	r4, r1
1000b3aa:	d1f7      	bne.n	1000b39c <ble_connected_state_handler+0x44>
1000b3ac:	327c      	adds	r2, #124	; 0x7c
1000b3ae:	2c50      	cmp	r4, #80	; 0x50
1000b3b0:	d1f0      	bne.n	1000b394 <ble_connected_state_handler+0x3c>
1000b3b2:	aa02      	add	r2, sp, #8
1000b3b4:	0029      	movs	r1, r5
1000b3b6:	2005      	movs	r0, #5
1000b3b8:	4b3c      	ldr	r3, [pc, #240]	; (1000b4ac <ble_connected_state_handler+0x154>)
1000b3ba:	4798      	blx	r3
1000b3bc:	1e04      	subs	r4, r0, #0
1000b3be:	d066      	beq.n	1000b48e <ble_connected_state_handler+0x136>
1000b3c0:	24e2      	movs	r4, #226	; 0xe2
1000b3c2:	e064      	b.n	1000b48e <ble_connected_state_handler+0x136>
1000b3c4:	4b3a      	ldr	r3, [pc, #232]	; (1000b4b0 <ble_connected_state_handler+0x158>)
1000b3c6:	781a      	ldrb	r2, [r3, #0]
1000b3c8:	2a04      	cmp	r2, #4
1000b3ca:	d84b      	bhi.n	1000b464 <ble_connected_state_handler+0x10c>
1000b3cc:	2700      	movs	r7, #0
1000b3ce:	237c      	movs	r3, #124	; 0x7c
1000b3d0:	437b      	muls	r3, r7
1000b3d2:	4a38      	ldr	r2, [pc, #224]	; (1000b4b4 <ble_connected_state_handler+0x15c>)
1000b3d4:	0029      	movs	r1, r5
1000b3d6:	189b      	adds	r3, r3, r2
1000b3d8:	9300      	str	r3, [sp, #0]
1000b3da:	2207      	movs	r2, #7
1000b3dc:	0018      	movs	r0, r3
1000b3de:	4b30      	ldr	r3, [pc, #192]	; (1000b4a0 <ble_connected_state_handler+0x148>)
1000b3e0:	4798      	blx	r3
1000b3e2:	b2fe      	uxtb	r6, r7
1000b3e4:	4a33      	ldr	r2, [pc, #204]	; (1000b4b4 <ble_connected_state_handler+0x15c>)
1000b3e6:	2800      	cmp	r0, #0
1000b3e8:	d101      	bne.n	1000b3ee <ble_connected_state_handler+0x96>
1000b3ea:	9f00      	ldr	r7, [sp, #0]
1000b3ec:	e017      	b.n	1000b41e <ble_connected_state_handler+0xc6>
1000b3ee:	3701      	adds	r7, #1
1000b3f0:	2f05      	cmp	r7, #5
1000b3f2:	d1ec      	bne.n	1000b3ce <ble_connected_state_handler+0x76>
1000b3f4:	2300      	movs	r3, #0
1000b3f6:	217c      	movs	r1, #124	; 0x7c
1000b3f8:	000f      	movs	r7, r1
1000b3fa:	435f      	muls	r7, r3
1000b3fc:	0038      	movs	r0, r7
1000b3fe:	305e      	adds	r0, #94	; 0x5e
1000b400:	5c10      	ldrb	r0, [r2, r0]
1000b402:	b2de      	uxtb	r6, r3
1000b404:	2800      	cmp	r0, #0
1000b406:	d10e      	bne.n	1000b426 <ble_connected_state_handler+0xce>
1000b408:	19d7      	adds	r7, r2, r7
1000b40a:	9b01      	ldr	r3, [sp, #4]
1000b40c:	2212      	movs	r2, #18
1000b40e:	0029      	movs	r1, r5
1000b410:	0038      	movs	r0, r7
1000b412:	4798      	blx	r3
1000b414:	4a26      	ldr	r2, [pc, #152]	; (1000b4b0 <ble_connected_state_handler+0x158>)
1000b416:	7813      	ldrb	r3, [r2, #0]
1000b418:	3301      	adds	r3, #1
1000b41a:	b2db      	uxtb	r3, r3
1000b41c:	7013      	strb	r3, [r2, #0]
1000b41e:	2302      	movs	r3, #2
1000b420:	375e      	adds	r7, #94	; 0x5e
1000b422:	703b      	strb	r3, [r7, #0]
1000b424:	e003      	b.n	1000b42e <ble_connected_state_handler+0xd6>
1000b426:	3301      	adds	r3, #1
1000b428:	2b05      	cmp	r3, #5
1000b42a:	d1e5      	bne.n	1000b3f8 <ble_connected_state_handler+0xa0>
1000b42c:	001e      	movs	r6, r3
1000b42e:	4f1b      	ldr	r7, [pc, #108]	; (1000b49c <ble_connected_state_handler+0x144>)
1000b430:	0029      	movs	r1, r5
1000b432:	0038      	movs	r0, r7
1000b434:	4b1a      	ldr	r3, [pc, #104]	; (1000b4a0 <ble_connected_state_handler+0x148>)
1000b436:	2207      	movs	r2, #7
1000b438:	4798      	blx	r3
1000b43a:	237c      	movs	r3, #124	; 0x7c
1000b43c:	0001      	movs	r1, r0
1000b43e:	4373      	muls	r3, r6
1000b440:	0038      	movs	r0, r7
1000b442:	4f1c      	ldr	r7, [pc, #112]	; (1000b4b4 <ble_connected_state_handler+0x15c>)
1000b444:	2900      	cmp	r1, #0
1000b446:	d104      	bne.n	1000b452 <ble_connected_state_handler+0xfa>
1000b448:	2205      	movs	r2, #5
1000b44a:	18fb      	adds	r3, r7, r3
1000b44c:	749a      	strb	r2, [r3, #18]
1000b44e:	000f      	movs	r7, r1
1000b450:	e003      	b.n	1000b45a <ble_connected_state_handler+0x102>
1000b452:	220a      	movs	r2, #10
1000b454:	18fb      	adds	r3, r7, r3
1000b456:	2701      	movs	r7, #1
1000b458:	749a      	strb	r2, [r3, #18]
1000b45a:	2207      	movs	r2, #7
1000b45c:	2100      	movs	r1, #0
1000b45e:	4b11      	ldr	r3, [pc, #68]	; (1000b4a4 <ble_connected_state_handler+0x14c>)
1000b460:	4798      	blx	r3
1000b462:	e006      	b.n	1000b472 <ble_connected_state_handler+0x11a>
1000b464:	2700      	movs	r7, #0
1000b466:	781b      	ldrb	r3, [r3, #0]
1000b468:	8928      	ldrh	r0, [r5, #8]
1000b46a:	2113      	movs	r1, #19
1000b46c:	4b12      	ldr	r3, [pc, #72]	; (1000b4b8 <ble_connected_state_handler+0x160>)
1000b46e:	4798      	blx	r3
1000b470:	003e      	movs	r6, r7
1000b472:	237c      	movs	r3, #124	; 0x7c
1000b474:	435e      	muls	r6, r3
1000b476:	4b0f      	ldr	r3, [pc, #60]	; (1000b4b4 <ble_connected_state_handler+0x15c>)
1000b478:	199e      	adds	r6, r3, r6
1000b47a:	7cb3      	ldrb	r3, [r6, #18]
1000b47c:	2b0a      	cmp	r3, #10
1000b47e:	d000      	beq.n	1000b482 <ble_connected_state_handler+0x12a>
1000b480:	e770      	b.n	1000b364 <ble_connected_state_handler+0xc>
1000b482:	2f00      	cmp	r7, #0
1000b484:	d100      	bne.n	1000b488 <ble_connected_state_handler+0x130>
1000b486:	e76d      	b.n	1000b364 <ble_connected_state_handler+0xc>
1000b488:	8928      	ldrh	r0, [r5, #8]
1000b48a:	4b0c      	ldr	r3, [pc, #48]	; (1000b4bc <ble_connected_state_handler+0x164>)
1000b48c:	4798      	blx	r3
1000b48e:	0020      	movs	r0, r4
1000b490:	b017      	add	sp, #92	; 0x5c
1000b492:	bdf0      	pop	{r4, r5, r6, r7, pc}
1000b494:	10010b37 	.word	0x10010b37
1000b498:	10013e94 	.word	0x10013e94
1000b49c:	10012815 	.word	0x10012815
1000b4a0:	10010b19 	.word	0x10010b19
1000b4a4:	10010b49 	.word	0x10010b49
1000b4a8:	10013c2e 	.word	0x10013c2e
1000b4ac:	1000d2f9 	.word	0x1000d2f9
1000b4b0:	10013e54 	.word	0x10013e54
1000b4b4:	10013be8 	.word	0x10013be8
1000b4b8:	1000d2cd 	.word	0x1000d2cd
1000b4bc:	1000b341 	.word	0x1000b341

1000b4c0 <ble_resolv_rand_addr_handler>:
1000b4c0:	b5f7      	push	{r0, r1, r2, r4, r5, r6, r7, lr}
1000b4c2:	7804      	ldrb	r4, [r0, #0]
1000b4c4:	2c00      	cmp	r4, #0
1000b4c6:	d111      	bne.n	1000b4ec <ble_resolv_rand_addr_handler+0x2c>
1000b4c8:	1c43      	adds	r3, r0, #1
1000b4ca:	4f28      	ldr	r7, [pc, #160]	; (1000b56c <ble_resolv_rand_addr_handler+0xac>)
1000b4cc:	9301      	str	r3, [sp, #4]
1000b4ce:	257c      	movs	r5, #124	; 0x7c
1000b4d0:	4365      	muls	r5, r4
1000b4d2:	0029      	movs	r1, r5
1000b4d4:	3146      	adds	r1, #70	; 0x46
1000b4d6:	19c9      	adds	r1, r1, r7
1000b4d8:	2210      	movs	r2, #16
1000b4da:	9801      	ldr	r0, [sp, #4]
1000b4dc:	4b24      	ldr	r3, [pc, #144]	; (1000b570 <ble_resolv_rand_addr_handler+0xb0>)
1000b4de:	b2e6      	uxtb	r6, r4
1000b4e0:	4798      	blx	r3
1000b4e2:	2800      	cmp	r0, #0
1000b4e4:	d033      	beq.n	1000b54e <ble_resolv_rand_addr_handler+0x8e>
1000b4e6:	3401      	adds	r4, #1
1000b4e8:	2c05      	cmp	r4, #5
1000b4ea:	d1f0      	bne.n	1000b4ce <ble_resolv_rand_addr_handler+0xe>
1000b4ec:	2300      	movs	r3, #0
1000b4ee:	217c      	movs	r1, #124	; 0x7c
1000b4f0:	4a1e      	ldr	r2, [pc, #120]	; (1000b56c <ble_resolv_rand_addr_handler+0xac>)
1000b4f2:	000c      	movs	r4, r1
1000b4f4:	435c      	muls	r4, r3
1000b4f6:	0020      	movs	r0, r4
1000b4f8:	305e      	adds	r0, #94	; 0x5e
1000b4fa:	5c10      	ldrb	r0, [r2, r0]
1000b4fc:	b2de      	uxtb	r6, r3
1000b4fe:	2800      	cmp	r0, #0
1000b500:	d112      	bne.n	1000b528 <ble_resolv_rand_addr_handler+0x68>
1000b502:	1914      	adds	r4, r2, r4
1000b504:	4b1b      	ldr	r3, [pc, #108]	; (1000b574 <ble_resolv_rand_addr_handler+0xb4>)
1000b506:	2212      	movs	r2, #18
1000b508:	491b      	ldr	r1, [pc, #108]	; (1000b578 <ble_resolv_rand_addr_handler+0xb8>)
1000b50a:	0020      	movs	r0, r4
1000b50c:	4798      	blx	r3
1000b50e:	4a1b      	ldr	r2, [pc, #108]	; (1000b57c <ble_resolv_rand_addr_handler+0xbc>)
1000b510:	7813      	ldrb	r3, [r2, #0]
1000b512:	3301      	adds	r3, #1
1000b514:	b2db      	uxtb	r3, r3
1000b516:	7013      	strb	r3, [r2, #0]
1000b518:	0023      	movs	r3, r4
1000b51a:	2202      	movs	r2, #2
1000b51c:	335e      	adds	r3, #94	; 0x5e
1000b51e:	701a      	strb	r2, [r3, #0]
1000b520:	230a      	movs	r3, #10
1000b522:	3a01      	subs	r2, #1
1000b524:	74a3      	strb	r3, [r4, #18]
1000b526:	e004      	b.n	1000b532 <ble_resolv_rand_addr_handler+0x72>
1000b528:	3301      	adds	r3, #1
1000b52a:	2b05      	cmp	r3, #5
1000b52c:	d1e1      	bne.n	1000b4f2 <ble_resolv_rand_addr_handler+0x32>
1000b52e:	2200      	movs	r2, #0
1000b530:	001e      	movs	r6, r3
1000b532:	237c      	movs	r3, #124	; 0x7c
1000b534:	435e      	muls	r6, r3
1000b536:	4b0d      	ldr	r3, [pc, #52]	; (1000b56c <ble_resolv_rand_addr_handler+0xac>)
1000b538:	199e      	adds	r6, r3, r6
1000b53a:	7cb3      	ldrb	r3, [r6, #18]
1000b53c:	2b0a      	cmp	r3, #10
1000b53e:	d113      	bne.n	1000b568 <ble_resolv_rand_addr_handler+0xa8>
1000b540:	2a00      	cmp	r2, #0
1000b542:	d011      	beq.n	1000b568 <ble_resolv_rand_addr_handler+0xa8>
1000b544:	4b0c      	ldr	r3, [pc, #48]	; (1000b578 <ble_resolv_rand_addr_handler+0xb8>)
1000b546:	8918      	ldrh	r0, [r3, #8]
1000b548:	4b0d      	ldr	r3, [pc, #52]	; (1000b580 <ble_resolv_rand_addr_handler+0xc0>)
1000b54a:	4798      	blx	r3
1000b54c:	e00c      	b.n	1000b568 <ble_resolv_rand_addr_handler+0xa8>
1000b54e:	1978      	adds	r0, r7, r5
1000b550:	0003      	movs	r3, r0
1000b552:	2202      	movs	r2, #2
1000b554:	335e      	adds	r3, #94	; 0x5e
1000b556:	701a      	strb	r2, [r3, #0]
1000b558:	230a      	movs	r3, #10
1000b55a:	3210      	adds	r2, #16
1000b55c:	7483      	strb	r3, [r0, #18]
1000b55e:	4906      	ldr	r1, [pc, #24]	; (1000b578 <ble_resolv_rand_addr_handler+0xb8>)
1000b560:	4b04      	ldr	r3, [pc, #16]	; (1000b574 <ble_resolv_rand_addr_handler+0xb4>)
1000b562:	4798      	blx	r3
1000b564:	2201      	movs	r2, #1
1000b566:	e7e4      	b.n	1000b532 <ble_resolv_rand_addr_handler+0x72>
1000b568:	2000      	movs	r0, #0
1000b56a:	bdfe      	pop	{r1, r2, r3, r4, r5, r6, r7, pc}
1000b56c:	10013be8 	.word	0x10013be8
1000b570:	10010b19 	.word	0x10010b19
1000b574:	10010b37 	.word	0x10010b37
1000b578:	10013e94 	.word	0x10013e94
1000b57c:	10013e54 	.word	0x10013e54
1000b580:	1000b341 	.word	0x1000b341

1000b584 <ble_event_manager>:
1000b584:	b570      	push	{r4, r5, r6, lr}
1000b586:	000d      	movs	r5, r1
1000b588:	282c      	cmp	r0, #44	; 0x2c
1000b58a:	d808      	bhi.n	1000b59e <ble_event_manager+0x1a>
1000b58c:	2827      	cmp	r0, #39	; 0x27
1000b58e:	d243      	bcs.n	1000b618 <ble_event_manager+0x94>
1000b590:	281c      	cmp	r0, #28
1000b592:	d830      	bhi.n	1000b5f6 <ble_event_manager+0x72>
1000b594:	2813      	cmp	r0, #19
1000b596:	d21d      	bcs.n	1000b5d4 <ble_event_manager+0x50>
1000b598:	0084      	lsls	r4, r0, #2
1000b59a:	2600      	movs	r6, #0
1000b59c:	e015      	b.n	1000b5ca <ble_event_manager+0x46>
1000b59e:	2837      	cmp	r0, #55	; 0x37
1000b5a0:	d805      	bhi.n	1000b5ae <ble_event_manager+0x2a>
1000b5a2:	2836      	cmp	r0, #54	; 0x36
1000b5a4:	d23c      	bcs.n	1000b620 <ble_event_manager+0x9c>
1000b5a6:	382d      	subs	r0, #45	; 0x2d
1000b5a8:	b2c0      	uxtb	r0, r0
1000b5aa:	4b2f      	ldr	r3, [pc, #188]	; (1000b668 <ble_event_manager+0xe4>)
1000b5ac:	e04c      	b.n	1000b648 <ble_event_manager+0xc4>
1000b5ae:	283a      	cmp	r0, #58	; 0x3a
1000b5b0:	d054      	beq.n	1000b65c <ble_event_manager+0xd8>
1000b5b2:	d346      	bcc.n	1000b642 <ble_event_manager+0xbe>
1000b5b4:	283b      	cmp	r0, #59	; 0x3b
1000b5b6:	d044      	beq.n	1000b642 <ble_event_manager+0xbe>
1000b5b8:	e055      	b.n	1000b666 <ble_event_manager+0xe2>
1000b5ba:	591b      	ldr	r3, [r3, r4]
1000b5bc:	2b00      	cmp	r3, #0
1000b5be:	d001      	beq.n	1000b5c4 <ble_event_manager+0x40>
1000b5c0:	0028      	movs	r0, r5
1000b5c2:	4798      	blx	r3
1000b5c4:	3604      	adds	r6, #4
1000b5c6:	2e14      	cmp	r6, #20
1000b5c8:	d04d      	beq.n	1000b666 <ble_event_manager+0xe2>
1000b5ca:	4b28      	ldr	r3, [pc, #160]	; (1000b66c <ble_event_manager+0xe8>)
1000b5cc:	599b      	ldr	r3, [r3, r6]
1000b5ce:	2b00      	cmp	r3, #0
1000b5d0:	d1f3      	bne.n	1000b5ba <ble_event_manager+0x36>
1000b5d2:	e7f7      	b.n	1000b5c4 <ble_event_manager+0x40>
1000b5d4:	2600      	movs	r6, #0
1000b5d6:	3813      	subs	r0, #19
1000b5d8:	b2c4      	uxtb	r4, r0
1000b5da:	00a4      	lsls	r4, r4, #2
1000b5dc:	4b24      	ldr	r3, [pc, #144]	; (1000b670 <ble_event_manager+0xec>)
1000b5de:	599b      	ldr	r3, [r3, r6]
1000b5e0:	2b00      	cmp	r3, #0
1000b5e2:	d004      	beq.n	1000b5ee <ble_event_manager+0x6a>
1000b5e4:	591b      	ldr	r3, [r3, r4]
1000b5e6:	2b00      	cmp	r3, #0
1000b5e8:	d001      	beq.n	1000b5ee <ble_event_manager+0x6a>
1000b5ea:	0028      	movs	r0, r5
1000b5ec:	4798      	blx	r3
1000b5ee:	3604      	adds	r6, #4
1000b5f0:	2e14      	cmp	r6, #20
1000b5f2:	d1f3      	bne.n	1000b5dc <ble_event_manager+0x58>
1000b5f4:	e037      	b.n	1000b666 <ble_event_manager+0xe2>
1000b5f6:	2600      	movs	r6, #0
1000b5f8:	381d      	subs	r0, #29
1000b5fa:	b2c4      	uxtb	r4, r0
1000b5fc:	00a4      	lsls	r4, r4, #2
1000b5fe:	4b1d      	ldr	r3, [pc, #116]	; (1000b674 <ble_event_manager+0xf0>)
1000b600:	599b      	ldr	r3, [r3, r6]
1000b602:	2b00      	cmp	r3, #0
1000b604:	d004      	beq.n	1000b610 <ble_event_manager+0x8c>
1000b606:	591b      	ldr	r3, [r3, r4]
1000b608:	2b00      	cmp	r3, #0
1000b60a:	d001      	beq.n	1000b610 <ble_event_manager+0x8c>
1000b60c:	0028      	movs	r0, r5
1000b60e:	4798      	blx	r3
1000b610:	3604      	adds	r6, #4
1000b612:	2e14      	cmp	r6, #20
1000b614:	d1f3      	bne.n	1000b5fe <ble_event_manager+0x7a>
1000b616:	e026      	b.n	1000b666 <ble_event_manager+0xe2>
1000b618:	3827      	subs	r0, #39	; 0x27
1000b61a:	b2c0      	uxtb	r0, r0
1000b61c:	4b16      	ldr	r3, [pc, #88]	; (1000b678 <ble_event_manager+0xf4>)
1000b61e:	e013      	b.n	1000b648 <ble_event_manager+0xc4>
1000b620:	2600      	movs	r6, #0
1000b622:	3836      	subs	r0, #54	; 0x36
1000b624:	b2c4      	uxtb	r4, r0
1000b626:	00a4      	lsls	r4, r4, #2
1000b628:	4b14      	ldr	r3, [pc, #80]	; (1000b67c <ble_event_manager+0xf8>)
1000b62a:	599b      	ldr	r3, [r3, r6]
1000b62c:	2b00      	cmp	r3, #0
1000b62e:	d004      	beq.n	1000b63a <ble_event_manager+0xb6>
1000b630:	591b      	ldr	r3, [r3, r4]
1000b632:	2b00      	cmp	r3, #0
1000b634:	d001      	beq.n	1000b63a <ble_event_manager+0xb6>
1000b636:	0028      	movs	r0, r5
1000b638:	4798      	blx	r3
1000b63a:	3604      	adds	r6, #4
1000b63c:	2e14      	cmp	r6, #20
1000b63e:	d1f3      	bne.n	1000b628 <ble_event_manager+0xa4>
1000b640:	e011      	b.n	1000b666 <ble_event_manager+0xe2>
1000b642:	3838      	subs	r0, #56	; 0x38
1000b644:	4b0e      	ldr	r3, [pc, #56]	; (1000b680 <ble_event_manager+0xfc>)
1000b646:	b2c0      	uxtb	r0, r0
1000b648:	681b      	ldr	r3, [r3, #0]
1000b64a:	2b00      	cmp	r3, #0
1000b64c:	d00b      	beq.n	1000b666 <ble_event_manager+0xe2>
1000b64e:	0080      	lsls	r0, r0, #2
1000b650:	58c3      	ldr	r3, [r0, r3]
1000b652:	2b00      	cmp	r3, #0
1000b654:	d007      	beq.n	1000b666 <ble_event_manager+0xe2>
1000b656:	0028      	movs	r0, r5
1000b658:	4798      	blx	r3
1000b65a:	e004      	b.n	1000b666 <ble_event_manager+0xe2>
1000b65c:	4b09      	ldr	r3, [pc, #36]	; (1000b684 <ble_event_manager+0x100>)
1000b65e:	681b      	ldr	r3, [r3, #0]
1000b660:	2b00      	cmp	r3, #0
1000b662:	d000      	beq.n	1000b666 <ble_event_manager+0xe2>
1000b664:	4798      	blx	r3
1000b666:	bd70      	pop	{r4, r5, r6, pc}
1000b668:	10013bd0 	.word	0x10013bd0
1000b66c:	10013e6c 	.word	0x10013e6c
1000b670:	10013e80 	.word	0x10013e80
1000b674:	10013bd4 	.word	0x10013bd4
1000b678:	10013ec8 	.word	0x10013ec8
1000b67c:	10013e58 	.word	0x10013e58
1000b680:	1001440c 	.word	0x1001440c
1000b684:	10012810 	.word	0x10012810

1000b688 <ble_event_task>:
1000b688:	b5f8      	push	{r3, r4, r5, r6, r7, lr}
1000b68a:	4e0e      	ldr	r6, [pc, #56]	; (1000b6c4 <ble_event_task+0x3c>)
1000b68c:	0007      	movs	r7, r0
1000b68e:	7833      	ldrb	r3, [r6, #0]
1000b690:	2b01      	cmp	r3, #1
1000b692:	d101      	bne.n	1000b698 <ble_event_task+0x10>
1000b694:	4b0c      	ldr	r3, [pc, #48]	; (1000b6c8 <ble_event_task+0x40>)
1000b696:	4798      	blx	r3
1000b698:	4c0c      	ldr	r4, [pc, #48]	; (1000b6cc <ble_event_task+0x44>)
1000b69a:	4d0d      	ldr	r5, [pc, #52]	; (1000b6d0 <ble_event_task+0x48>)
1000b69c:	003a      	movs	r2, r7
1000b69e:	4b0d      	ldr	r3, [pc, #52]	; (1000b6d4 <ble_event_task+0x4c>)
1000b6a0:	0021      	movs	r1, r4
1000b6a2:	0028      	movs	r0, r5
1000b6a4:	4798      	blx	r3
1000b6a6:	7833      	ldrb	r3, [r6, #0]
1000b6a8:	0007      	movs	r7, r0
1000b6aa:	2b01      	cmp	r3, #1
1000b6ac:	d101      	bne.n	1000b6b2 <ble_event_task+0x2a>
1000b6ae:	4b0a      	ldr	r3, [pc, #40]	; (1000b6d8 <ble_event_task+0x50>)
1000b6b0:	4798      	blx	r3
1000b6b2:	2f00      	cmp	r7, #0
1000b6b4:	d103      	bne.n	1000b6be <ble_event_task+0x36>
1000b6b6:	7828      	ldrb	r0, [r5, #0]
1000b6b8:	0021      	movs	r1, r4
1000b6ba:	4b08      	ldr	r3, [pc, #32]	; (1000b6dc <ble_event_task+0x54>)
1000b6bc:	4798      	blx	r3
1000b6be:	0038      	movs	r0, r7
1000b6c0:	bdf8      	pop	{r3, r4, r5, r6, r7, pc}
1000b6c2:	46c0      	nop			; (mov r8, r8)
1000b6c4:	1001381c 	.word	0x1001381c
1000b6c8:	1000bfd9 	.word	0x1000bfd9
1000b6cc:	10014200 	.word	0x10014200
1000b6d0:	10013ec4 	.word	0x10013ec4
1000b6d4:	1000c681 	.word	0x1000c681
1000b6d8:	1000bfb1 	.word	0x1000bfb1
1000b6dc:	1000b585 	.word	0x1000b585

1000b6e0 <ble_advertisement_data_set>:
1000b6e0:	b5f0      	push	{r4, r5, r6, r7, lr}
1000b6e2:	b091      	sub	sp, #68	; 0x44
1000b6e4:	4669      	mov	r1, sp
1000b6e6:	2203      	movs	r2, #3
1000b6e8:	466b      	mov	r3, sp
1000b6ea:	705a      	strb	r2, [r3, #1]
1000b6ec:	710a      	strb	r2, [r1, #4]
1000b6ee:	2204      	movs	r2, #4
1000b6f0:	2302      	movs	r3, #2
1000b6f2:	2409      	movs	r4, #9
1000b6f4:	718a      	strb	r2, [r1, #6]
1000b6f6:	260a      	movs	r6, #10
1000b6f8:	220f      	movs	r2, #15
1000b6fa:	708b      	strb	r3, [r1, #2]
1000b6fc:	3316      	adds	r3, #22
1000b6fe:	70cb      	strb	r3, [r1, #3]
1000b700:	714b      	strb	r3, [r1, #5]
1000b702:	71cb      	strb	r3, [r1, #7]
1000b704:	720a      	strb	r2, [r1, #8]
1000b706:	724b      	strb	r3, [r1, #9]
1000b708:	700c      	strb	r4, [r1, #0]
1000b70a:	728e      	strb	r6, [r1, #10]
1000b70c:	72cc      	strb	r4, [r1, #11]
1000b70e:	0022      	movs	r2, r4
1000b710:	4f0a      	ldr	r7, [pc, #40]	; (1000b73c <ble_advertisement_data_set+0x5c>)
1000b712:	490b      	ldr	r1, [pc, #44]	; (1000b740 <ble_advertisement_data_set+0x60>)
1000b714:	a803      	add	r0, sp, #12
1000b716:	47b8      	blx	r7
1000b718:	2022      	movs	r0, #34	; 0x22
1000b71a:	23ff      	movs	r3, #255	; 0xff
1000b71c:	ad08      	add	r5, sp, #32
1000b71e:	2208      	movs	r2, #8
1000b720:	4908      	ldr	r1, [pc, #32]	; (1000b744 <ble_advertisement_data_set+0x64>)
1000b722:	4468      	add	r0, sp
1000b724:	702c      	strb	r4, [r5, #0]
1000b726:	706b      	strb	r3, [r5, #1]
1000b728:	47b8      	blx	r7
1000b72a:	0033      	movs	r3, r6
1000b72c:	002a      	movs	r2, r5
1000b72e:	2115      	movs	r1, #21
1000b730:	4668      	mov	r0, sp
1000b732:	4c05      	ldr	r4, [pc, #20]	; (1000b748 <ble_advertisement_data_set+0x68>)
1000b734:	47a0      	blx	r4
1000b736:	2000      	movs	r0, #0
1000b738:	b011      	add	sp, #68	; 0x44
1000b73a:	bdf0      	pop	{r4, r5, r6, r7, pc}
1000b73c:	10010b37 	.word	0x10010b37
1000b740:	10011cd0 	.word	0x10011cd0
1000b744:	10011cda 	.word	0x10011cda
1000b748:	1000d0e1 	.word	0x1000d0e1

1000b74c <register_ble_user_event_cb>:
1000b74c:	4b01      	ldr	r3, [pc, #4]	; (1000b754 <register_ble_user_event_cb+0x8>)
1000b74e:	6018      	str	r0, [r3, #0]
1000b750:	4770      	bx	lr
1000b752:	46c0      	nop			; (mov r8, r8)
1000b754:	10012810 	.word	0x10012810

1000b758 <usart_serial_getchar>:
1000b758:	b570      	push	{r4, r5, r6, lr}
1000b75a:	0004      	movs	r4, r0
1000b75c:	000d      	movs	r5, r1
1000b75e:	0029      	movs	r1, r5
1000b760:	0020      	movs	r0, r4
1000b762:	4b02      	ldr	r3, [pc, #8]	; (1000b76c <usart_serial_getchar+0x14>)
1000b764:	4798      	blx	r3
1000b766:	2800      	cmp	r0, #0
1000b768:	d1f9      	bne.n	1000b75e <usart_serial_getchar+0x6>
1000b76a:	bd70      	pop	{r4, r5, r6, pc}
1000b76c:	1000aa21 	.word	0x1000aa21

1000b770 <usart_serial_putchar>:
1000b770:	b570      	push	{r4, r5, r6, lr}
1000b772:	0004      	movs	r4, r0
1000b774:	000d      	movs	r5, r1
1000b776:	0029      	movs	r1, r5
1000b778:	0020      	movs	r0, r4
1000b77a:	4b02      	ldr	r3, [pc, #8]	; (1000b784 <usart_serial_putchar+0x14>)
1000b77c:	4798      	blx	r3
1000b77e:	2800      	cmp	r0, #0
1000b780:	d1f9      	bne.n	1000b776 <usart_serial_putchar+0x6>
1000b782:	bd70      	pop	{r4, r5, r6, pc}
1000b784:	1000aa11 	.word	0x1000aa11

1000b788 <uart_read_complete_callback>:
1000b788:	b510      	push	{r4, lr}
1000b78a:	4a0d      	ldr	r2, [pc, #52]	; (1000b7c0 <uart_read_complete_callback+0x38>)
1000b78c:	4b0d      	ldr	r3, [pc, #52]	; (1000b7c4 <uart_read_complete_callback+0x3c>)
1000b78e:	7811      	ldrb	r1, [r2, #0]
1000b790:	2901      	cmp	r1, #1
1000b792:	d108      	bne.n	1000b7a6 <uart_read_complete_callback+0x1e>
1000b794:	681b      	ldr	r3, [r3, #0]
1000b796:	3101      	adds	r1, #1
1000b798:	7011      	strb	r1, [r2, #0]
1000b79a:	2b00      	cmp	r3, #0
1000b79c:	d10e      	bne.n	1000b7bc <uart_read_complete_callback+0x34>
1000b79e:	480a      	ldr	r0, [pc, #40]	; (1000b7c8 <uart_read_complete_callback+0x40>)
1000b7a0:	4b0a      	ldr	r3, [pc, #40]	; (1000b7cc <uart_read_complete_callback+0x44>)
1000b7a2:	4798      	blx	r3
1000b7a4:	e00a      	b.n	1000b7bc <uart_read_complete_callback+0x34>
1000b7a6:	681b      	ldr	r3, [r3, #0]
1000b7a8:	2b00      	cmp	r3, #0
1000b7aa:	d007      	beq.n	1000b7bc <uart_read_complete_callback+0x34>
1000b7ac:	4c08      	ldr	r4, [pc, #32]	; (1000b7d0 <uart_read_complete_callback+0x48>)
1000b7ae:	7820      	ldrb	r0, [r4, #0]
1000b7b0:	4798      	blx	r3
1000b7b2:	2201      	movs	r2, #1
1000b7b4:	0021      	movs	r1, r4
1000b7b6:	4804      	ldr	r0, [pc, #16]	; (1000b7c8 <uart_read_complete_callback+0x40>)
1000b7b8:	4b06      	ldr	r3, [pc, #24]	; (1000b7d4 <uart_read_complete_callback+0x4c>)
1000b7ba:	4798      	blx	r3
1000b7bc:	bd10      	pop	{r4, pc}
1000b7be:	46c0      	nop			; (mov r8, r8)
1000b7c0:	10013824 	.word	0x10013824
1000b7c4:	10013828 	.word	0x10013828
1000b7c8:	10014410 	.word	0x10014410
1000b7cc:	1000aa8b 	.word	0x1000aa8b
1000b7d0:	10013825 	.word	0x10013825
1000b7d4:	1000aa33 	.word	0x1000aa33

1000b7d8 <serial_console_init>:
1000b7d8:	2100      	movs	r1, #0
1000b7da:	b5f8      	push	{r3, r4, r5, r6, r7, lr}
1000b7dc:	0008      	movs	r0, r1
1000b7de:	4b19      	ldr	r3, [pc, #100]	; (1000b844 <serial_console_init+0x6c>)
1000b7e0:	4798      	blx	r3
1000b7e2:	4c19      	ldr	r4, [pc, #100]	; (1000b848 <serial_console_init+0x70>)
1000b7e4:	4b19      	ldr	r3, [pc, #100]	; (1000b84c <serial_console_init+0x74>)
1000b7e6:	0020      	movs	r0, r4
1000b7e8:	4798      	blx	r3
1000b7ea:	23e1      	movs	r3, #225	; 0xe1
1000b7ec:	025b      	lsls	r3, r3, #9
1000b7ee:	6023      	str	r3, [r4, #0]
1000b7f0:	2303      	movs	r3, #3
1000b7f2:	2502      	movs	r5, #2
1000b7f4:	60e3      	str	r3, [r4, #12]
1000b7f6:	3301      	adds	r3, #1
1000b7f8:	6123      	str	r3, [r4, #16]
1000b7fa:	3301      	adds	r3, #1
1000b7fc:	4e14      	ldr	r6, [pc, #80]	; (1000b850 <serial_console_init+0x78>)
1000b7fe:	6163      	str	r3, [r4, #20]
1000b800:	4b14      	ldr	r3, [pc, #80]	; (1000b854 <serial_console_init+0x7c>)
1000b802:	4a15      	ldr	r2, [pc, #84]	; (1000b858 <serial_console_init+0x80>)
1000b804:	601e      	str	r6, [r3, #0]
1000b806:	4b15      	ldr	r3, [pc, #84]	; (1000b85c <serial_console_init+0x84>)
1000b808:	0030      	movs	r0, r6
1000b80a:	601a      	str	r2, [r3, #0]
1000b80c:	4a14      	ldr	r2, [pc, #80]	; (1000b860 <serial_console_init+0x88>)
1000b80e:	4b15      	ldr	r3, [pc, #84]	; (1000b864 <serial_console_init+0x8c>)
1000b810:	4915      	ldr	r1, [pc, #84]	; (1000b868 <serial_console_init+0x90>)
1000b812:	601a      	str	r2, [r3, #0]
1000b814:	0022      	movs	r2, r4
1000b816:	4b15      	ldr	r3, [pc, #84]	; (1000b86c <serial_console_init+0x94>)
1000b818:	60a5      	str	r5, [r4, #8]
1000b81a:	61a5      	str	r5, [r4, #24]
1000b81c:	61e5      	str	r5, [r4, #28]
1000b81e:	6225      	str	r5, [r4, #32]
1000b820:	6265      	str	r5, [r4, #36]	; 0x24
1000b822:	4798      	blx	r3
1000b824:	4f12      	ldr	r7, [pc, #72]	; (1000b870 <serial_console_init+0x98>)
1000b826:	4c13      	ldr	r4, [pc, #76]	; (1000b874 <serial_console_init+0x9c>)
1000b828:	683b      	ldr	r3, [r7, #0]
1000b82a:	2100      	movs	r1, #0
1000b82c:	6898      	ldr	r0, [r3, #8]
1000b82e:	47a0      	blx	r4
1000b830:	683b      	ldr	r3, [r7, #0]
1000b832:	2100      	movs	r1, #0
1000b834:	6858      	ldr	r0, [r3, #4]
1000b836:	47a0      	blx	r4
1000b838:	002a      	movs	r2, r5
1000b83a:	0030      	movs	r0, r6
1000b83c:	490e      	ldr	r1, [pc, #56]	; (1000b878 <serial_console_init+0xa0>)
1000b83e:	4b0f      	ldr	r3, [pc, #60]	; (1000b87c <serial_console_init+0xa4>)
1000b840:	4798      	blx	r3
1000b842:	bdf8      	pop	{r3, r4, r5, r6, r7, pc}
1000b844:	10009e39 	.word	0x10009e39
1000b848:	10014434 	.word	0x10014434
1000b84c:	1000a869 	.word	0x1000a869
1000b850:	10014410 	.word	0x10014410
1000b854:	10013bcc 	.word	0x10013bcc
1000b858:	1000b771 	.word	0x1000b771
1000b85c:	10013bc8 	.word	0x10013bc8
1000b860:	1000b759 	.word	0x1000b759
1000b864:	10013bc4 	.word	0x10013bc4
1000b868:	40004000 	.word	0x40004000
1000b86c:	1000a895 	.word	0x1000a895
1000b870:	10011f00 	.word	0x10011f00
1000b874:	10010d61 	.word	0x10010d61
1000b878:	1000b789 	.word	0x1000b789
1000b87c:	1000aa59 	.word	0x1000aa59

1000b880 <_time_start>:
1000b880:	b5f7      	push	{r0, r1, r2, r4, r5, r6, r7, lr}
1000b882:	4c0d      	ldr	r4, [pc, #52]	; (1000b8b8 <_time_start+0x38>)
1000b884:	9001      	str	r0, [sp, #4]
1000b886:	47a0      	blx	r4
1000b888:	47a0      	blx	r4
1000b88a:	4c0c      	ldr	r4, [pc, #48]	; (1000b8bc <_time_start+0x3c>)
1000b88c:	47a0      	blx	r4
1000b88e:	4d0c      	ldr	r5, [pc, #48]	; (1000b8c0 <_time_start+0x40>)
1000b890:	4a0c      	ldr	r2, [pc, #48]	; (1000b8c4 <_time_start+0x44>)
1000b892:	4b0d      	ldr	r3, [pc, #52]	; (1000b8c8 <_time_start+0x48>)
1000b894:	47a8      	blx	r5
1000b896:	0006      	movs	r6, r0
1000b898:	20fa      	movs	r0, #250	; 0xfa
1000b89a:	9b01      	ldr	r3, [sp, #4]
1000b89c:	0080      	lsls	r0, r0, #2
1000b89e:	4358      	muls	r0, r3
1000b8a0:	000f      	movs	r7, r1
1000b8a2:	47a0      	blx	r4
1000b8a4:	0002      	movs	r2, r0
1000b8a6:	000b      	movs	r3, r1
1000b8a8:	0030      	movs	r0, r6
1000b8aa:	0039      	movs	r1, r7
1000b8ac:	47a8      	blx	r5
1000b8ae:	4b07      	ldr	r3, [pc, #28]	; (1000b8cc <_time_start+0x4c>)
1000b8b0:	4798      	blx	r3
1000b8b2:	4b07      	ldr	r3, [pc, #28]	; (1000b8d0 <_time_start+0x50>)
1000b8b4:	6018      	str	r0, [r3, #0]
1000b8b6:	bdf7      	pop	{r0, r1, r2, r4, r5, r6, r7, pc}
1000b8b8:	10009eb1 	.word	0x10009eb1
1000b8bc:	10010761 	.word	0x10010761
1000b8c0:	1000fb59 	.word	0x1000fb59
1000b8c4:	19feaec7 	.word	0x19feaec7
1000b8c8:	3f09d8ef 	.word	0x3f09d8ef
1000b8cc:	1000fb1d 	.word	0x1000fb1d
1000b8d0:	10013820 	.word	0x10013820

1000b8d4 <_time_done>:
1000b8d4:	4b02      	ldr	r3, [pc, #8]	; (1000b8e0 <_time_done+0xc>)
1000b8d6:	681a      	ldr	r2, [r3, #0]
1000b8d8:	1e50      	subs	r0, r2, #1
1000b8da:	6018      	str	r0, [r3, #0]
1000b8dc:	4770      	bx	lr
1000b8de:	46c0      	nop			; (mov r8, r8)
1000b8e0:	10013820 	.word	0x10013820

1000b8e4 <getchar_b11_timeout>:
1000b8e4:	2301      	movs	r3, #1
1000b8e6:	b570      	push	{r4, r5, r6, lr}
1000b8e8:	4c10      	ldr	r4, [pc, #64]	; (1000b92c <getchar_b11_timeout+0x48>)
1000b8ea:	0005      	movs	r5, r0
1000b8ec:	7023      	strb	r3, [r4, #0]
1000b8ee:	4b10      	ldr	r3, [pc, #64]	; (1000b930 <getchar_b11_timeout+0x4c>)
1000b8f0:	4e10      	ldr	r6, [pc, #64]	; (1000b934 <getchar_b11_timeout+0x50>)
1000b8f2:	681b      	ldr	r3, [r3, #0]
1000b8f4:	2b00      	cmp	r3, #0
1000b8f6:	d103      	bne.n	1000b900 <getchar_b11_timeout+0x1c>
1000b8f8:	2102      	movs	r1, #2
1000b8fa:	0030      	movs	r0, r6
1000b8fc:	4b0e      	ldr	r3, [pc, #56]	; (1000b938 <getchar_b11_timeout+0x54>)
1000b8fe:	4798      	blx	r3
1000b900:	0028      	movs	r0, r5
1000b902:	4b0e      	ldr	r3, [pc, #56]	; (1000b93c <getchar_b11_timeout+0x58>)
1000b904:	4798      	blx	r3
1000b906:	2300      	movs	r3, #0
1000b908:	4d0d      	ldr	r5, [pc, #52]	; (1000b940 <getchar_b11_timeout+0x5c>)
1000b90a:	2201      	movs	r2, #1
1000b90c:	702b      	strb	r3, [r5, #0]
1000b90e:	0029      	movs	r1, r5
1000b910:	0030      	movs	r0, r6
1000b912:	4b0c      	ldr	r3, [pc, #48]	; (1000b944 <getchar_b11_timeout+0x60>)
1000b914:	4798      	blx	r3
1000b916:	7823      	ldrb	r3, [r4, #0]
1000b918:	2b02      	cmp	r3, #2
1000b91a:	d003      	beq.n	1000b924 <getchar_b11_timeout+0x40>
1000b91c:	4b0a      	ldr	r3, [pc, #40]	; (1000b948 <getchar_b11_timeout+0x64>)
1000b91e:	4798      	blx	r3
1000b920:	2800      	cmp	r0, #0
1000b922:	d1f8      	bne.n	1000b916 <getchar_b11_timeout+0x32>
1000b924:	2300      	movs	r3, #0
1000b926:	7828      	ldrb	r0, [r5, #0]
1000b928:	7023      	strb	r3, [r4, #0]
1000b92a:	bd70      	pop	{r4, r5, r6, pc}
1000b92c:	10013824 	.word	0x10013824
1000b930:	10013828 	.word	0x10013828
1000b934:	10014410 	.word	0x10014410
1000b938:	1000aa6d 	.word	0x1000aa6d
1000b93c:	1000b881 	.word	0x1000b881
1000b940:	10013825 	.word	0x10013825
1000b944:	1000aa33 	.word	0x1000aa33
1000b948:	1000b8d5 	.word	0x1000b8d5

1000b94c <platform_event_free>:
1000b94c:	4b02      	ldr	r3, [pc, #8]	; (1000b958 <platform_event_free+0xc>)
1000b94e:	681a      	ldr	r2, [r3, #0]
1000b950:	6018      	str	r0, [r3, #0]
1000b952:	6002      	str	r2, [r0, #0]
1000b954:	4770      	bx	lr
1000b956:	46c0      	nop			; (mov r8, r8)
1000b958:	10013830 	.word	0x10013830

1000b95c <platform_event_post>:
1000b95c:	b530      	push	{r4, r5, lr}
1000b95e:	4c0c      	ldr	r4, [pc, #48]	; (1000b990 <platform_event_post+0x34>)
1000b960:	6823      	ldr	r3, [r4, #0]
1000b962:	2b00      	cmp	r3, #0
1000b964:	d012      	beq.n	1000b98c <platform_event_post+0x30>
1000b966:	681d      	ldr	r5, [r3, #0]
1000b968:	6099      	str	r1, [r3, #8]
1000b96a:	6025      	str	r5, [r4, #0]
1000b96c:	2400      	movs	r4, #0
1000b96e:	4909      	ldr	r1, [pc, #36]	; (1000b994 <platform_event_post+0x38>)
1000b970:	80da      	strh	r2, [r3, #6]
1000b972:	680a      	ldr	r2, [r1, #0]
1000b974:	601c      	str	r4, [r3, #0]
1000b976:	8098      	strh	r0, [r3, #4]
1000b978:	42a2      	cmp	r2, r4
1000b97a:	d101      	bne.n	1000b980 <platform_event_post+0x24>
1000b97c:	600b      	str	r3, [r1, #0]
1000b97e:	e005      	b.n	1000b98c <platform_event_post+0x30>
1000b980:	6811      	ldr	r1, [r2, #0]
1000b982:	2900      	cmp	r1, #0
1000b984:	d001      	beq.n	1000b98a <platform_event_post+0x2e>
1000b986:	000a      	movs	r2, r1
1000b988:	e7fa      	b.n	1000b980 <platform_event_post+0x24>
1000b98a:	6013      	str	r3, [r2, #0]
1000b98c:	bd30      	pop	{r4, r5, pc}
1000b98e:	46c0      	nop			; (mov r8, r8)
1000b990:	10013830 	.word	0x10013830
1000b994:	1001382c 	.word	0x1001382c

1000b998 <platform_event_init>:
1000b998:	b510      	push	{r4, lr}
1000b99a:	2400      	movs	r4, #0
1000b99c:	4b05      	ldr	r3, [pc, #20]	; (1000b9b4 <platform_event_init+0x1c>)
1000b99e:	601c      	str	r4, [r3, #0]
1000b9a0:	4b05      	ldr	r3, [pc, #20]	; (1000b9b8 <platform_event_init+0x20>)
1000b9a2:	601c      	str	r4, [r3, #0]
1000b9a4:	4805      	ldr	r0, [pc, #20]	; (1000b9bc <platform_event_init+0x24>)
1000b9a6:	4b06      	ldr	r3, [pc, #24]	; (1000b9c0 <platform_event_init+0x28>)
1000b9a8:	1900      	adds	r0, r0, r4
1000b9aa:	340c      	adds	r4, #12
1000b9ac:	4798      	blx	r3
1000b9ae:	2c78      	cmp	r4, #120	; 0x78
1000b9b0:	d1f8      	bne.n	1000b9a4 <platform_event_init+0xc>
1000b9b2:	bd10      	pop	{r4, pc}
1000b9b4:	10013830 	.word	0x10013830
1000b9b8:	1001382c 	.word	0x1001382c
1000b9bc:	10013834 	.word	0x10013834
1000b9c0:	1000b94d 	.word	0x1000b94d

1000b9c4 <samb11_plf_resume_callback>:
1000b9c4:	b510      	push	{r4, lr}
1000b9c6:	4b06      	ldr	r3, [pc, #24]	; (1000b9e0 <samb11_plf_resume_callback+0x1c>)
1000b9c8:	4a06      	ldr	r2, [pc, #24]	; (1000b9e4 <samb11_plf_resume_callback+0x20>)
1000b9ca:	6819      	ldr	r1, [r3, #0]
1000b9cc:	6011      	str	r1, [r2, #0]
1000b9ce:	685a      	ldr	r2, [r3, #4]
1000b9d0:	4b05      	ldr	r3, [pc, #20]	; (1000b9e8 <samb11_plf_resume_callback+0x24>)
1000b9d2:	601a      	str	r2, [r3, #0]
1000b9d4:	4b05      	ldr	r3, [pc, #20]	; (1000b9ec <samb11_plf_resume_callback+0x28>)
1000b9d6:	681b      	ldr	r3, [r3, #0]
1000b9d8:	2b00      	cmp	r3, #0
1000b9da:	d000      	beq.n	1000b9de <samb11_plf_resume_callback+0x1a>
1000b9dc:	4798      	blx	r3
1000b9de:	bd10      	pop	{r4, pc}
1000b9e0:	1001445c 	.word	0x1001445c
1000b9e4:	4000b00c 	.word	0x4000b00c
1000b9e8:	4000b010 	.word	0x4000b010
1000b9ec:	10014738 	.word	0x10014738

1000b9f0 <at_ke_msg_send>:
1000b9f0:	b570      	push	{r4, r5, r6, lr}
1000b9f2:	0004      	movs	r4, r0
1000b9f4:	4b13      	ldr	r3, [pc, #76]	; (1000ba44 <at_ke_msg_send+0x54>)
1000b9f6:	3c0c      	subs	r4, #12
1000b9f8:	681d      	ldr	r5, [r3, #0]
1000b9fa:	4b13      	ldr	r3, [pc, #76]	; (1000ba48 <at_ke_msg_send+0x58>)
1000b9fc:	681b      	ldr	r3, [r3, #0]
1000b9fe:	4798      	blx	r3
1000ba00:	2c00      	cmp	r4, #0
1000ba02:	d01e      	beq.n	1000ba42 <at_ke_msg_send+0x52>
1000ba04:	88e3      	ldrh	r3, [r4, #6]
1000ba06:	2b05      	cmp	r3, #5
1000ba08:	d01b      	beq.n	1000ba42 <at_ke_msg_send+0x52>
1000ba0a:	07eb      	lsls	r3, r5, #31
1000ba0c:	d414      	bmi.n	1000ba38 <at_ke_msg_send+0x48>
1000ba0e:	4b0f      	ldr	r3, [pc, #60]	; (1000ba4c <at_ke_msg_send+0x5c>)
1000ba10:	2002      	movs	r0, #2
1000ba12:	681b      	ldr	r3, [r3, #0]
1000ba14:	4798      	blx	r3
1000ba16:	4b0e      	ldr	r3, [pc, #56]	; (1000ba50 <at_ke_msg_send+0x60>)
1000ba18:	681b      	ldr	r3, [r3, #0]
1000ba1a:	4798      	blx	r3
1000ba1c:	4b0d      	ldr	r3, [pc, #52]	; (1000ba54 <at_ke_msg_send+0x64>)
1000ba1e:	2003      	movs	r0, #3
1000ba20:	681b      	ldr	r3, [r3, #0]
1000ba22:	4798      	blx	r3
1000ba24:	2800      	cmp	r0, #0
1000ba26:	d1f9      	bne.n	1000ba1c <at_ke_msg_send+0x2c>
1000ba28:	4b0b      	ldr	r3, [pc, #44]	; (1000ba58 <at_ke_msg_send+0x68>)
1000ba2a:	3002      	adds	r0, #2
1000ba2c:	681b      	ldr	r3, [r3, #0]
1000ba2e:	4798      	blx	r3
1000ba30:	2201      	movs	r2, #1
1000ba32:	4b0a      	ldr	r3, [pc, #40]	; (1000ba5c <at_ke_msg_send+0x6c>)
1000ba34:	601a      	str	r2, [r3, #0]
1000ba36:	e004      	b.n	1000ba42 <at_ke_msg_send+0x52>
1000ba38:	4b09      	ldr	r3, [pc, #36]	; (1000ba60 <at_ke_msg_send+0x70>)
1000ba3a:	4a0a      	ldr	r2, [pc, #40]	; (1000ba64 <at_ke_msg_send+0x74>)
1000ba3c:	681b      	ldr	r3, [r3, #0]
1000ba3e:	6810      	ldr	r0, [r2, #0]
1000ba40:	4798      	blx	r3
1000ba42:	bd70      	pop	{r4, r5, r6, pc}
1000ba44:	4000b1ec 	.word	0x4000b1ec
1000ba48:	100138dc 	.word	0x100138dc
1000ba4c:	100138d4 	.word	0x100138d4
1000ba50:	100138e8 	.word	0x100138e8
1000ba54:	100138c0 	.word	0x100138c0
1000ba58:	100138c8 	.word	0x100138c8
1000ba5c:	4000b020 	.word	0x4000b020
1000ba60:	100138bc 	.word	0x100138bc
1000ba64:	100138cc 	.word	0x100138cc

1000ba68 <init_port_list>:
1000ba68:	b570      	push	{r4, r5, r6, lr}
1000ba6a:	4c0e      	ldr	r4, [pc, #56]	; (1000baa4 <init_port_list+0x3c>)
1000ba6c:	4b0e      	ldr	r3, [pc, #56]	; (1000baa8 <init_port_list+0x40>)
1000ba6e:	0020      	movs	r0, r4
1000ba70:	2232      	movs	r2, #50	; 0x32
1000ba72:	2100      	movs	r1, #0
1000ba74:	4798      	blx	r3
1000ba76:	2501      	movs	r5, #1
1000ba78:	0020      	movs	r0, r4
1000ba7a:	2300      	movs	r3, #0
1000ba7c:	2402      	movs	r4, #2
1000ba7e:	2601      	movs	r6, #1
1000ba80:	005a      	lsls	r2, r3, #1
1000ba82:	5483      	strb	r3, [r0, r2]
1000ba84:	1882      	adds	r2, r0, r2
1000ba86:	7851      	ldrb	r1, [r2, #1]
1000ba88:	199b      	adds	r3, r3, r6
1000ba8a:	4329      	orrs	r1, r5
1000ba8c:	43a1      	bics	r1, r4
1000ba8e:	7051      	strb	r1, [r2, #1]
1000ba90:	2b19      	cmp	r3, #25
1000ba92:	d1f4      	bne.n	1000ba7e <init_port_list+0x16>
1000ba94:	7843      	ldrb	r3, [r0, #1]
1000ba96:	43b3      	bics	r3, r6
1000ba98:	7043      	strb	r3, [r0, #1]
1000ba9a:	78c3      	ldrb	r3, [r0, #3]
1000ba9c:	43b3      	bics	r3, r6
1000ba9e:	70c3      	strb	r3, [r0, #3]
1000baa0:	bd70      	pop	{r4, r5, r6, pc}
1000baa2:	46c0      	nop			; (mov r8, r8)
1000baa4:	10014478 	.word	0x10014478
1000baa8:	10010b49 	.word	0x10010b49

1000baac <init_clock>:
1000baac:	4a06      	ldr	r2, [pc, #24]	; (1000bac8 <init_clock+0x1c>)
1000baae:	4b07      	ldr	r3, [pc, #28]	; (1000bacc <init_clock+0x20>)
1000bab0:	6811      	ldr	r1, [r2, #0]
1000bab2:	400b      	ands	r3, r1
1000bab4:	6013      	str	r3, [r2, #0]
1000bab6:	4a06      	ldr	r2, [pc, #24]	; (1000bad0 <init_clock+0x24>)
1000bab8:	4906      	ldr	r1, [pc, #24]	; (1000bad4 <init_clock+0x28>)
1000baba:	6013      	str	r3, [r2, #0]
1000babc:	6808      	ldr	r0, [r1, #0]
1000babe:	4b06      	ldr	r3, [pc, #24]	; (1000bad8 <init_clock+0x2c>)
1000bac0:	4003      	ands	r3, r0
1000bac2:	600b      	str	r3, [r1, #0]
1000bac4:	6053      	str	r3, [r2, #4]
1000bac6:	4770      	bx	lr
1000bac8:	4000b00c 	.word	0x4000b00c
1000bacc:	fffe0fd3 	.word	0xfffe0fd3
1000bad0:	1001445c 	.word	0x1001445c
1000bad4:	4000b010 	.word	0x4000b010
1000bad8:	ffffe7c0 	.word	0xffffe7c0

1000badc <platform_driver_init>:
1000badc:	b5f8      	push	{r3, r4, r5, r6, r7, lr}
1000bade:	4b4b      	ldr	r3, [pc, #300]	; (1000bc0c <platform_driver_init+0x130>)
1000bae0:	781a      	ldrb	r2, [r3, #0]
1000bae2:	2a00      	cmp	r2, #0
1000bae4:	d004      	beq.n	1000baf0 <platform_driver_init+0x14>
1000bae6:	7818      	ldrb	r0, [r3, #0]
1000bae8:	b2c0      	uxtb	r0, r0
1000baea:	2801      	cmp	r0, #1
1000baec:	d100      	bne.n	1000baf0 <platform_driver_init+0x14>
1000baee:	e08a      	b.n	1000bc06 <platform_driver_init+0x12a>
1000baf0:	4b47      	ldr	r3, [pc, #284]	; (1000bc10 <platform_driver_init+0x134>)
1000baf2:	4798      	blx	r3
1000baf4:	2400      	movs	r4, #0
1000baf6:	4b47      	ldr	r3, [pc, #284]	; (1000bc14 <platform_driver_init+0x138>)
1000baf8:	4798      	blx	r3
1000bafa:	2280      	movs	r2, #128	; 0x80
1000bafc:	4b46      	ldr	r3, [pc, #280]	; (1000bc18 <platform_driver_init+0x13c>)
1000bafe:	0412      	lsls	r2, r2, #16
1000bb00:	601c      	str	r4, [r3, #0]
1000bb02:	4b46      	ldr	r3, [pc, #280]	; (1000bc1c <platform_driver_init+0x140>)
1000bb04:	4d46      	ldr	r5, [pc, #280]	; (1000bc20 <platform_driver_init+0x144>)
1000bb06:	67da      	str	r2, [r3, #124]	; 0x7c
1000bb08:	2280      	movs	r2, #128	; 0x80
1000bb0a:	0452      	lsls	r2, r2, #17
1000bb0c:	67da      	str	r2, [r3, #124]	; 0x7c
1000bb0e:	4b45      	ldr	r3, [pc, #276]	; (1000bc24 <platform_driver_init+0x148>)
1000bb10:	4a45      	ldr	r2, [pc, #276]	; (1000bc28 <platform_driver_init+0x14c>)
1000bb12:	602b      	str	r3, [r5, #0]
1000bb14:	4b45      	ldr	r3, [pc, #276]	; (1000bc2c <platform_driver_init+0x150>)
1000bb16:	4946      	ldr	r1, [pc, #280]	; (1000bc30 <platform_driver_init+0x154>)
1000bb18:	6013      	str	r3, [r2, #0]
1000bb1a:	4a46      	ldr	r2, [pc, #280]	; (1000bc34 <platform_driver_init+0x158>)
1000bb1c:	4e46      	ldr	r6, [pc, #280]	; (1000bc38 <platform_driver_init+0x15c>)
1000bb1e:	6011      	str	r1, [r2, #0]
1000bb20:	4a46      	ldr	r2, [pc, #280]	; (1000bc3c <platform_driver_init+0x160>)
1000bb22:	2028      	movs	r0, #40	; 0x28
1000bb24:	6811      	ldr	r1, [r2, #0]
1000bb26:	4a46      	ldr	r2, [pc, #280]	; (1000bc40 <platform_driver_init+0x164>)
1000bb28:	4f46      	ldr	r7, [pc, #280]	; (1000bc44 <platform_driver_init+0x168>)
1000bb2a:	6011      	str	r1, [r2, #0]
1000bb2c:	4a46      	ldr	r2, [pc, #280]	; (1000bc48 <platform_driver_init+0x16c>)
1000bb2e:	6811      	ldr	r1, [r2, #0]
1000bb30:	4a46      	ldr	r2, [pc, #280]	; (1000bc4c <platform_driver_init+0x170>)
1000bb32:	6011      	str	r1, [r2, #0]
1000bb34:	4a46      	ldr	r2, [pc, #280]	; (1000bc50 <platform_driver_init+0x174>)
1000bb36:	4947      	ldr	r1, [pc, #284]	; (1000bc54 <platform_driver_init+0x178>)
1000bb38:	6011      	str	r1, [r2, #0]
1000bb3a:	4a47      	ldr	r2, [pc, #284]	; (1000bc58 <platform_driver_init+0x17c>)
1000bb3c:	4947      	ldr	r1, [pc, #284]	; (1000bc5c <platform_driver_init+0x180>)
1000bb3e:	6011      	str	r1, [r2, #0]
1000bb40:	4a47      	ldr	r2, [pc, #284]	; (1000bc60 <platform_driver_init+0x184>)
1000bb42:	4948      	ldr	r1, [pc, #288]	; (1000bc64 <platform_driver_init+0x188>)
1000bb44:	6032      	str	r2, [r6, #0]
1000bb46:	4a48      	ldr	r2, [pc, #288]	; (1000bc68 <platform_driver_init+0x18c>)
1000bb48:	6011      	str	r1, [r2, #0]
1000bb4a:	4a48      	ldr	r2, [pc, #288]	; (1000bc6c <platform_driver_init+0x190>)
1000bb4c:	4948      	ldr	r1, [pc, #288]	; (1000bc70 <platform_driver_init+0x194>)
1000bb4e:	6011      	str	r1, [r2, #0]
1000bb50:	4948      	ldr	r1, [pc, #288]	; (1000bc74 <platform_driver_init+0x198>)
1000bb52:	4a49      	ldr	r2, [pc, #292]	; (1000bc78 <platform_driver_init+0x19c>)
1000bb54:	600a      	str	r2, [r1, #0]
1000bb56:	4a49      	ldr	r2, [pc, #292]	; (1000bc7c <platform_driver_init+0x1a0>)
1000bb58:	4949      	ldr	r1, [pc, #292]	; (1000bc80 <platform_driver_init+0x1a4>)
1000bb5a:	6011      	str	r1, [r2, #0]
1000bb5c:	4949      	ldr	r1, [pc, #292]	; (1000bc84 <platform_driver_init+0x1a8>)
1000bb5e:	4a4a      	ldr	r2, [pc, #296]	; (1000bc88 <platform_driver_init+0x1ac>)
1000bb60:	6011      	str	r1, [r2, #0]
1000bb62:	4a4a      	ldr	r2, [pc, #296]	; (1000bc8c <platform_driver_init+0x1b0>)
1000bb64:	494a      	ldr	r1, [pc, #296]	; (1000bc90 <platform_driver_init+0x1b4>)
1000bb66:	6011      	str	r1, [r2, #0]
1000bb68:	4a4a      	ldr	r2, [pc, #296]	; (1000bc94 <platform_driver_init+0x1b8>)
1000bb6a:	494b      	ldr	r1, [pc, #300]	; (1000bc98 <platform_driver_init+0x1bc>)
1000bb6c:	6011      	str	r1, [r2, #0]
1000bb6e:	4a4b      	ldr	r2, [pc, #300]	; (1000bc9c <platform_driver_init+0x1c0>)
1000bb70:	494b      	ldr	r1, [pc, #300]	; (1000bca0 <platform_driver_init+0x1c4>)
1000bb72:	6011      	str	r1, [r2, #0]
1000bb74:	4798      	blx	r3
1000bb76:	682b      	ldr	r3, [r5, #0]
1000bb78:	494a      	ldr	r1, [pc, #296]	; (1000bca4 <platform_driver_init+0x1c8>)
1000bb7a:	2028      	movs	r0, #40	; 0x28
1000bb7c:	4798      	blx	r3
1000bb7e:	682b      	ldr	r3, [r5, #0]
1000bb80:	4949      	ldr	r1, [pc, #292]	; (1000bca8 <platform_driver_init+0x1cc>)
1000bb82:	2027      	movs	r0, #39	; 0x27
1000bb84:	4798      	blx	r3
1000bb86:	4b49      	ldr	r3, [pc, #292]	; (1000bcac <platform_driver_init+0x1d0>)
1000bb88:	0021      	movs	r1, r4
1000bb8a:	681a      	ldr	r2, [r3, #0]
1000bb8c:	4b48      	ldr	r3, [pc, #288]	; (1000bcb0 <platform_driver_init+0x1d4>)
1000bb8e:	4849      	ldr	r0, [pc, #292]	; (1000bcb4 <platform_driver_init+0x1d8>)
1000bb90:	601a      	str	r2, [r3, #0]
1000bb92:	4b49      	ldr	r3, [pc, #292]	; (1000bcb8 <platform_driver_init+0x1dc>)
1000bb94:	4a49      	ldr	r2, [pc, #292]	; (1000bcbc <platform_driver_init+0x1e0>)
1000bb96:	601a      	str	r2, [r3, #0]
1000bb98:	4b49      	ldr	r3, [pc, #292]	; (1000bcc0 <platform_driver_init+0x1e4>)
1000bb9a:	4a4a      	ldr	r2, [pc, #296]	; (1000bcc4 <platform_driver_init+0x1e8>)
1000bb9c:	601a      	str	r2, [r3, #0]
1000bb9e:	4b4a      	ldr	r3, [pc, #296]	; (1000bcc8 <platform_driver_init+0x1ec>)
1000bba0:	4a4a      	ldr	r2, [pc, #296]	; (1000bccc <platform_driver_init+0x1f0>)
1000bba2:	601a      	str	r2, [r3, #0]
1000bba4:	4b4a      	ldr	r3, [pc, #296]	; (1000bcd0 <platform_driver_init+0x1f4>)
1000bba6:	4a4b      	ldr	r2, [pc, #300]	; (1000bcd4 <platform_driver_init+0x1f8>)
1000bba8:	601a      	str	r2, [r3, #0]
1000bbaa:	4b4b      	ldr	r3, [pc, #300]	; (1000bcd8 <platform_driver_init+0x1fc>)
1000bbac:	4a4b      	ldr	r2, [pc, #300]	; (1000bcdc <platform_driver_init+0x200>)
1000bbae:	601a      	str	r2, [r3, #0]
1000bbb0:	4b4b      	ldr	r3, [pc, #300]	; (1000bce0 <platform_driver_init+0x204>)
1000bbb2:	4a4c      	ldr	r2, [pc, #304]	; (1000bce4 <platform_driver_init+0x208>)
1000bbb4:	601a      	str	r2, [r3, #0]
1000bbb6:	4b4c      	ldr	r3, [pc, #304]	; (1000bce8 <platform_driver_init+0x20c>)
1000bbb8:	4a4c      	ldr	r2, [pc, #304]	; (1000bcec <platform_driver_init+0x210>)
1000bbba:	601a      	str	r2, [r3, #0]
1000bbbc:	22a0      	movs	r2, #160	; 0xa0
1000bbbe:	4b4c      	ldr	r3, [pc, #304]	; (1000bcf0 <platform_driver_init+0x214>)
1000bbc0:	0092      	lsls	r2, r2, #2
1000bbc2:	4798      	blx	r3
1000bbc4:	2280      	movs	r2, #128	; 0x80
1000bbc6:	4b4b      	ldr	r3, [pc, #300]	; (1000bcf4 <platform_driver_init+0x218>)
1000bbc8:	0092      	lsls	r2, r2, #2
1000bbca:	801a      	strh	r2, [r3, #0]
1000bbcc:	4b4a      	ldr	r3, [pc, #296]	; (1000bcf8 <platform_driver_init+0x21c>)
1000bbce:	4798      	blx	r3
1000bbd0:	2380      	movs	r3, #128	; 0x80
1000bbd2:	041b      	lsls	r3, r3, #16
1000bbd4:	603b      	str	r3, [r7, #0]
1000bbd6:	2380      	movs	r3, #128	; 0x80
1000bbd8:	045b      	lsls	r3, r3, #17
1000bbda:	603b      	str	r3, [r7, #0]
1000bbdc:	4b47      	ldr	r3, [pc, #284]	; (1000bcfc <platform_driver_init+0x220>)
1000bbde:	4a48      	ldr	r2, [pc, #288]	; (1000bd00 <platform_driver_init+0x224>)
1000bbe0:	601c      	str	r4, [r3, #0]
1000bbe2:	6833      	ldr	r3, [r6, #0]
1000bbe4:	4d47      	ldr	r5, [pc, #284]	; (1000bd04 <platform_driver_init+0x228>)
1000bbe6:	601a      	str	r2, [r3, #0]
1000bbe8:	4b22      	ldr	r3, [pc, #136]	; (1000bc74 <platform_driver_init+0x198>)
1000bbea:	4a47      	ldr	r2, [pc, #284]	; (1000bd08 <platform_driver_init+0x22c>)
1000bbec:	681b      	ldr	r3, [r3, #0]
1000bbee:	0020      	movs	r0, r4
1000bbf0:	601a      	str	r2, [r3, #0]
1000bbf2:	47a8      	blx	r5
1000bbf4:	2001      	movs	r0, #1
1000bbf6:	47a8      	blx	r5
1000bbf8:	2002      	movs	r0, #2
1000bbfa:	47a8      	blx	r5
1000bbfc:	2201      	movs	r2, #1
1000bbfe:	4b03      	ldr	r3, [pc, #12]	; (1000bc0c <platform_driver_init+0x130>)
1000bc00:	0020      	movs	r0, r4
1000bc02:	701a      	strb	r2, [r3, #0]
1000bc04:	e000      	b.n	1000bc08 <platform_driver_init+0x12c>
1000bc06:	7018      	strb	r0, [r3, #0]
1000bc08:	bdf8      	pop	{r3, r4, r5, r6, r7, pc}
1000bc0a:	46c0      	nop			; (mov r8, r8)
1000bc0c:	100138c4 	.word	0x100138c4
1000bc10:	1000ba69 	.word	0x1000ba69
1000bc14:	1000baad 	.word	0x1000baad
1000bc18:	100138e4 	.word	0x100138e4
1000bc1c:	e000e104 	.word	0xe000e104
1000bc20:	1001472c 	.word	0x1001472c
1000bc24:	000007d7 	.word	0x000007d7
1000bc28:	10014468 	.word	0x10014468
1000bc2c:	000007bd 	.word	0x000007bd
1000bc30:	0001bc51 	.word	0x0001bc51
1000bc34:	10014730 	.word	0x10014730
1000bc38:	10014740 	.word	0x10014740
1000bc3c:	100400bc 	.word	0x100400bc
1000bc40:	100138b4 	.word	0x100138b4
1000bc44:	e000e100 	.word	0xe000e100
1000bc48:	100400b8 	.word	0x100400b8
1000bc4c:	100138b0 	.word	0x100138b0
1000bc50:	10014464 	.word	0x10014464
1000bc54:	0001b99f 	.word	0x0001b99f
1000bc58:	10014470 	.word	0x10014470
1000bc5c:	0001b9db 	.word	0x0001b9db
1000bc60:	1004003c 	.word	0x1004003c
1000bc64:	10041fc0 	.word	0x10041fc0
1000bc68:	10014474 	.word	0x10014474
1000bc6c:	1001473c 	.word	0x1001473c
1000bc70:	10041fc4 	.word	0x10041fc4
1000bc74:	10014734 	.word	0x10014734
1000bc78:	10041fd4 	.word	0x10041fd4
1000bc7c:	1001446c 	.word	0x1001446c
1000bc80:	10041fd8 	.word	0x10041fd8
1000bc84:	0001cbe9 	.word	0x0001cbe9
1000bc88:	100138d4 	.word	0x100138d4
1000bc8c:	100138c8 	.word	0x100138c8
1000bc90:	0001cd8f 	.word	0x0001cd8f
1000bc94:	100138e8 	.word	0x100138e8
1000bc98:	0001cea3 	.word	0x0001cea3
1000bc9c:	100138c0 	.word	0x100138c0
1000bca0:	0001cbcf 	.word	0x0001cbcf
1000bca4:	1000c0b9 	.word	0x1000c0b9
1000bca8:	1000c061 	.word	0x1000c061
1000bcac:	100400e4 	.word	0x100400e4
1000bcb0:	100138dc 	.word	0x100138dc
1000bcb4:	100144aa 	.word	0x100144aa
1000bcb8:	100138ec 	.word	0x100138ec
1000bcbc:	00019fe9 	.word	0x00019fe9
1000bcc0:	100138bc 	.word	0x100138bc
1000bcc4:	0001dbdd 	.word	0x0001dbdd
1000bcc8:	100138d0 	.word	0x100138d0
1000bccc:	0001dc5b 	.word	0x0001dc5b
1000bcd0:	100138cc 	.word	0x100138cc
1000bcd4:	100405ec 	.word	0x100405ec
1000bcd8:	100138d8 	.word	0x100138d8
1000bcdc:	0001d5e3 	.word	0x0001d5e3
1000bce0:	100138f0 	.word	0x100138f0
1000bce4:	10040c20 	.word	0x10040c20
1000bce8:	100138ac 	.word	0x100138ac
1000bcec:	00019f09 	.word	0x00019f09
1000bcf0:	10010b49 	.word	0x10010b49
1000bcf4:	10014744 	.word	0x10014744
1000bcf8:	1000b999 	.word	0x1000b999
1000bcfc:	10014738 	.word	0x10014738
1000bd00:	1000b9c5 	.word	0x1000b9c5
1000bd04:	1000c0f9 	.word	0x1000c0f9
1000bd08:	1000c111 	.word	0x1000c111

1000bd0c <platform_register_ble_msg_handler>:
1000bd0c:	4b04      	ldr	r3, [pc, #16]	; (1000bd20 <platform_register_ble_msg_handler+0x14>)
1000bd0e:	781a      	ldrb	r2, [r3, #0]
1000bd10:	2305      	movs	r3, #5
1000bd12:	2a01      	cmp	r2, #1
1000bd14:	d102      	bne.n	1000bd1c <platform_register_ble_msg_handler+0x10>
1000bd16:	4b03      	ldr	r3, [pc, #12]	; (1000bd24 <platform_register_ble_msg_handler+0x18>)
1000bd18:	6018      	str	r0, [r3, #0]
1000bd1a:	2300      	movs	r3, #0
1000bd1c:	0018      	movs	r0, r3
1000bd1e:	4770      	bx	lr
1000bd20:	100138c4 	.word	0x100138c4
1000bd24:	100138e4 	.word	0x100138e4

1000bd28 <platform_interface_send>:
1000bd28:	b570      	push	{r4, r5, r6, lr}
1000bd2a:	4b0d      	ldr	r3, [pc, #52]	; (1000bd60 <platform_interface_send+0x38>)
1000bd2c:	0004      	movs	r4, r0
1000bd2e:	681b      	ldr	r3, [r3, #0]
1000bd30:	2b00      	cmp	r3, #0
1000bd32:	d002      	beq.n	1000bd3a <platform_interface_send+0x12>
1000bd34:	8840      	ldrh	r0, [r0, #2]
1000bd36:	4798      	blx	r3
1000bd38:	8060      	strh	r0, [r4, #2]
1000bd3a:	4d0a      	ldr	r5, [pc, #40]	; (1000bd64 <platform_interface_send+0x3c>)
1000bd3c:	88a2      	ldrh	r2, [r4, #4]
1000bd3e:	682d      	ldr	r5, [r5, #0]
1000bd40:	88e3      	ldrh	r3, [r4, #6]
1000bd42:	8861      	ldrh	r1, [r4, #2]
1000bd44:	8820      	ldrh	r0, [r4, #0]
1000bd46:	47a8      	blx	r5
1000bd48:	88e2      	ldrh	r2, [r4, #6]
1000bd4a:	0005      	movs	r5, r0
1000bd4c:	4e06      	ldr	r6, [pc, #24]	; (1000bd68 <platform_interface_send+0x40>)
1000bd4e:	2a00      	cmp	r2, #0
1000bd50:	d003      	beq.n	1000bd5a <platform_interface_send+0x32>
1000bd52:	0021      	movs	r1, r4
1000bd54:	4b05      	ldr	r3, [pc, #20]	; (1000bd6c <platform_interface_send+0x44>)
1000bd56:	3108      	adds	r1, #8
1000bd58:	4798      	blx	r3
1000bd5a:	0028      	movs	r0, r5
1000bd5c:	47b0      	blx	r6
1000bd5e:	bd70      	pop	{r4, r5, r6, pc}
1000bd60:	100138b4 	.word	0x100138b4
1000bd64:	100138ec 	.word	0x100138ec
1000bd68:	1000b9f1 	.word	0x1000b9f1
1000bd6c:	10010b37 	.word	0x10010b37

1000bd70 <send_plf_int_msg_ind>:
1000bd70:	b570      	push	{r4, r5, r6, lr}
1000bd72:	0016      	movs	r6, r2
1000bd74:	020a      	lsls	r2, r1, #8
1000bd76:	001d      	movs	r5, r3
1000bd78:	4302      	orrs	r2, r0
1000bd7a:	20a0      	movs	r0, #160	; 0xa0
1000bd7c:	4b09      	ldr	r3, [pc, #36]	; (1000bda4 <send_plf_int_msg_ind+0x34>)
1000bd7e:	2105      	movs	r1, #5
1000bd80:	681c      	ldr	r4, [r3, #0]
1000bd82:	00c0      	lsls	r0, r0, #3
1000bd84:	002b      	movs	r3, r5
1000bd86:	47a0      	blx	r4
1000bd88:	1e04      	subs	r4, r0, #0
1000bd8a:	d00a      	beq.n	1000bda2 <send_plf_int_msg_ind+0x32>
1000bd8c:	2d00      	cmp	r5, #0
1000bd8e:	d005      	beq.n	1000bd9c <send_plf_int_msg_ind+0x2c>
1000bd90:	2e00      	cmp	r6, #0
1000bd92:	d003      	beq.n	1000bd9c <send_plf_int_msg_ind+0x2c>
1000bd94:	002a      	movs	r2, r5
1000bd96:	0031      	movs	r1, r6
1000bd98:	4b03      	ldr	r3, [pc, #12]	; (1000bda8 <send_plf_int_msg_ind+0x38>)
1000bd9a:	4798      	blx	r3
1000bd9c:	0020      	movs	r0, r4
1000bd9e:	4b03      	ldr	r3, [pc, #12]	; (1000bdac <send_plf_int_msg_ind+0x3c>)
1000bda0:	4798      	blx	r3
1000bda2:	bd70      	pop	{r4, r5, r6, pc}
1000bda4:	100138ec 	.word	0x100138ec
1000bda8:	10010b37 	.word	0x10010b37
1000bdac:	1000b9f1 	.word	0x1000b9f1

1000bdb0 <platform_event_wait>:
1000bdb0:	2300      	movs	r3, #0
1000bdb2:	b5f0      	push	{r4, r5, r6, r7, lr}
1000bdb4:	1e44      	subs	r4, r0, #1
1000bdb6:	b089      	sub	sp, #36	; 0x24
1000bdb8:	9302      	str	r3, [sp, #8]
1000bdba:	1ce3      	adds	r3, r4, #3
1000bdbc:	d81b      	bhi.n	1000bdf6 <platform_event_wait+0x46>
1000bdbe:	220d      	movs	r2, #13
1000bdc0:	2100      	movs	r1, #0
1000bdc2:	4b6c      	ldr	r3, [pc, #432]	; (1000bf74 <platform_event_wait+0x1c4>)
1000bdc4:	a804      	add	r0, sp, #16
1000bdc6:	4798      	blx	r3
1000bdc8:	2333      	movs	r3, #51	; 0x33
1000bdca:	aa04      	add	r2, sp, #16
1000bdcc:	7013      	strb	r3, [r2, #0]
1000bdce:	3b30      	subs	r3, #48	; 0x30
1000bdd0:	7053      	strb	r3, [r2, #1]
1000bdd2:	7093      	strb	r3, [r2, #2]
1000bdd4:	3302      	adds	r3, #2
1000bdd6:	7113      	strb	r3, [r2, #4]
1000bdd8:	7193      	strb	r3, [r2, #6]
1000bdda:	0a23      	lsrs	r3, r4, #8
1000bddc:	7214      	strb	r4, [r2, #8]
1000bdde:	7253      	strb	r3, [r2, #9]
1000bde0:	0c23      	lsrs	r3, r4, #16
1000bde2:	0e24      	lsrs	r4, r4, #24
1000bde4:	72d4      	strb	r4, [r2, #11]
1000bde6:	2401      	movs	r4, #1
1000bde8:	7293      	strb	r3, [r2, #10]
1000bdea:	210d      	movs	r1, #13
1000bdec:	0010      	movs	r0, r2
1000bdee:	4b62      	ldr	r3, [pc, #392]	; (1000bf78 <platform_event_wait+0x1c8>)
1000bdf0:	7314      	strb	r4, [r2, #12]
1000bdf2:	4798      	blx	r3
1000bdf4:	9402      	str	r4, [sp, #8]
1000bdf6:	2400      	movs	r4, #0
1000bdf8:	9401      	str	r4, [sp, #4]
1000bdfa:	4d60      	ldr	r5, [pc, #384]	; (1000bf7c <platform_event_wait+0x1cc>)
1000bdfc:	4b60      	ldr	r3, [pc, #384]	; (1000bf80 <platform_event_wait+0x1d0>)
1000bdfe:	4a61      	ldr	r2, [pc, #388]	; (1000bf84 <platform_event_wait+0x1d4>)
1000be00:	0029      	movs	r1, r5
1000be02:	681b      	ldr	r3, [r3, #0]
1000be04:	6810      	ldr	r0, [r2, #0]
1000be06:	4798      	blx	r3
1000be08:	1e01      	subs	r1, r0, #0
1000be0a:	d000      	beq.n	1000be0e <platform_event_wait+0x5e>
1000be0c:	e07b      	b.n	1000bf06 <platform_event_wait+0x156>
1000be0e:	23cd      	movs	r3, #205	; 0xcd
1000be10:	682c      	ldr	r4, [r5, #0]
1000be12:	009b      	lsls	r3, r3, #2
1000be14:	88a5      	ldrh	r5, [r4, #4]
1000be16:	429d      	cmp	r5, r3
1000be18:	d038      	beq.n	1000be8c <platform_event_wait+0xdc>
1000be1a:	8923      	ldrh	r3, [r4, #8]
1000be1c:	9303      	str	r3, [sp, #12]
1000be1e:	9b02      	ldr	r3, [sp, #8]
1000be20:	8967      	ldrh	r7, [r4, #10]
1000be22:	2b00      	cmp	r3, #0
1000be24:	d010      	beq.n	1000be48 <platform_event_wait+0x98>
1000be26:	220d      	movs	r2, #13
1000be28:	4b52      	ldr	r3, [pc, #328]	; (1000bf74 <platform_event_wait+0x1c4>)
1000be2a:	a804      	add	r0, sp, #16
1000be2c:	4798      	blx	r3
1000be2e:	2333      	movs	r3, #51	; 0x33
1000be30:	aa04      	add	r2, sp, #16
1000be32:	7013      	strb	r3, [r2, #0]
1000be34:	3b30      	subs	r3, #48	; 0x30
1000be36:	7053      	strb	r3, [r2, #1]
1000be38:	7093      	strb	r3, [r2, #2]
1000be3a:	3302      	adds	r3, #2
1000be3c:	7113      	strb	r3, [r2, #4]
1000be3e:	7193      	strb	r3, [r2, #6]
1000be40:	210d      	movs	r1, #13
1000be42:	0010      	movs	r0, r2
1000be44:	4b4c      	ldr	r3, [pc, #304]	; (1000bf78 <platform_event_wait+0x1c8>)
1000be46:	4798      	blx	r3
1000be48:	23a0      	movs	r3, #160	; 0xa0
1000be4a:	00db      	lsls	r3, r3, #3
1000be4c:	429d      	cmp	r5, r3
1000be4e:	d11d      	bne.n	1000be8c <platform_event_wait+0xdc>
1000be50:	22a0      	movs	r2, #160	; 0xa0
1000be52:	4d4d      	ldr	r5, [pc, #308]	; (1000bf88 <platform_event_wait+0x1d8>)
1000be54:	0092      	lsls	r2, r2, #2
1000be56:	882b      	ldrh	r3, [r5, #0]
1000be58:	19db      	adds	r3, r3, r7
1000be5a:	4293      	cmp	r3, r2
1000be5c:	dd02      	ble.n	1000be64 <platform_event_wait+0xb4>
1000be5e:	2380      	movs	r3, #128	; 0x80
1000be60:	009b      	lsls	r3, r3, #2
1000be62:	802b      	strh	r3, [r5, #0]
1000be64:	0021      	movs	r1, r4
1000be66:	4b49      	ldr	r3, [pc, #292]	; (1000bf8c <platform_event_wait+0x1dc>)
1000be68:	882e      	ldrh	r6, [r5, #0]
1000be6a:	003a      	movs	r2, r7
1000be6c:	18f6      	adds	r6, r6, r3
1000be6e:	310c      	adds	r1, #12
1000be70:	4b47      	ldr	r3, [pc, #284]	; (1000bf90 <platform_event_wait+0x1e0>)
1000be72:	0030      	movs	r0, r6
1000be74:	4798      	blx	r3
1000be76:	003a      	movs	r2, r7
1000be78:	4b46      	ldr	r3, [pc, #280]	; (1000bf94 <platform_event_wait+0x1e4>)
1000be7a:	0031      	movs	r1, r6
1000be7c:	9803      	ldr	r0, [sp, #12]
1000be7e:	4798      	blx	r3
1000be80:	882b      	ldrh	r3, [r5, #0]
1000be82:	2400      	movs	r4, #0
1000be84:	18ff      	adds	r7, r7, r3
1000be86:	802f      	strh	r7, [r5, #0]
1000be88:	2302      	movs	r3, #2
1000be8a:	e035      	b.n	1000bef8 <platform_event_wait+0x148>
1000be8c:	4d42      	ldr	r5, [pc, #264]	; (1000bf98 <platform_event_wait+0x1e8>)
1000be8e:	682c      	ldr	r4, [r5, #0]
1000be90:	2c00      	cmp	r4, #0
1000be92:	d032      	beq.n	1000befa <platform_event_wait+0x14a>
1000be94:	21cd      	movs	r1, #205	; 0xcd
1000be96:	4e39      	ldr	r6, [pc, #228]	; (1000bf7c <platform_event_wait+0x1cc>)
1000be98:	0089      	lsls	r1, r1, #2
1000be9a:	6832      	ldr	r2, [r6, #0]
1000be9c:	8893      	ldrh	r3, [r2, #4]
1000be9e:	428b      	cmp	r3, r1
1000bea0:	d106      	bne.n	1000beb0 <platform_event_wait+0x100>
1000bea2:	9b02      	ldr	r3, [sp, #8]
1000bea4:	2401      	movs	r4, #1
1000bea6:	2b00      	cmp	r3, #0
1000bea8:	d027      	beq.n	1000befa <platform_event_wait+0x14a>
1000beaa:	2400      	movs	r4, #0
1000beac:	23d0      	movs	r3, #208	; 0xd0
1000beae:	e023      	b.n	1000bef8 <platform_event_wait+0x148>
1000beb0:	4c36      	ldr	r4, [pc, #216]	; (1000bf8c <platform_event_wait+0x1dc>)
1000beb2:	4f3a      	ldr	r7, [pc, #232]	; (1000bf9c <platform_event_wait+0x1ec>)
1000beb4:	7023      	strb	r3, [r4, #0]
1000beb6:	0a1b      	lsrs	r3, r3, #8
1000beb8:	7063      	strb	r3, [r4, #1]
1000beba:	4b39      	ldr	r3, [pc, #228]	; (1000bfa0 <platform_event_wait+0x1f0>)
1000bebc:	603c      	str	r4, [r7, #0]
1000bebe:	8910      	ldrh	r0, [r2, #8]
1000bec0:	681b      	ldr	r3, [r3, #0]
1000bec2:	4798      	blx	r3
1000bec4:	6833      	ldr	r3, [r6, #0]
1000bec6:	7120      	strb	r0, [r4, #4]
1000bec8:	0a00      	lsrs	r0, r0, #8
1000beca:	7160      	strb	r0, [r4, #5]
1000becc:	88db      	ldrh	r3, [r3, #6]
1000bece:	6838      	ldr	r0, [r7, #0]
1000bed0:	8043      	strh	r3, [r0, #2]
1000bed2:	6836      	ldr	r6, [r6, #0]
1000bed4:	8973      	ldrh	r3, [r6, #10]
1000bed6:	80c3      	strh	r3, [r0, #6]
1000bed8:	3008      	adds	r0, #8
1000beda:	6038      	str	r0, [r7, #0]
1000bedc:	8972      	ldrh	r2, [r6, #10]
1000bede:	2a00      	cmp	r2, #0
1000bee0:	d003      	beq.n	1000beea <platform_event_wait+0x13a>
1000bee2:	0031      	movs	r1, r6
1000bee4:	4b2a      	ldr	r3, [pc, #168]	; (1000bf90 <platform_event_wait+0x1e0>)
1000bee6:	310c      	adds	r1, #12
1000bee8:	4798      	blx	r3
1000beea:	8971      	ldrh	r1, [r6, #10]
1000beec:	682b      	ldr	r3, [r5, #0]
1000beee:	0020      	movs	r0, r4
1000bef0:	3108      	adds	r1, #8
1000bef2:	4798      	blx	r3
1000bef4:	2400      	movs	r4, #0
1000bef6:	2303      	movs	r3, #3
1000bef8:	9301      	str	r3, [sp, #4]
1000befa:	4a20      	ldr	r2, [pc, #128]	; (1000bf7c <platform_event_wait+0x1cc>)
1000befc:	4b29      	ldr	r3, [pc, #164]	; (1000bfa4 <platform_event_wait+0x1f4>)
1000befe:	6810      	ldr	r0, [r2, #0]
1000bf00:	681b      	ldr	r3, [r3, #0]
1000bf02:	4798      	blx	r3
1000bf04:	e001      	b.n	1000bf0a <platform_event_wait+0x15a>
1000bf06:	2307      	movs	r3, #7
1000bf08:	9301      	str	r3, [sp, #4]
1000bf0a:	2c00      	cmp	r4, #0
1000bf0c:	d000      	beq.n	1000bf10 <platform_event_wait+0x160>
1000bf0e:	e774      	b.n	1000bdfa <platform_event_wait+0x4a>
1000bf10:	9b02      	ldr	r3, [sp, #8]
1000bf12:	2b00      	cmp	r3, #0
1000bf14:	d02b      	beq.n	1000bf6e <platform_event_wait+0x1be>
1000bf16:	4b1b      	ldr	r3, [pc, #108]	; (1000bf84 <platform_event_wait+0x1d4>)
1000bf18:	681e      	ldr	r6, [r3, #0]
1000bf1a:	2e00      	cmp	r6, #0
1000bf1c:	d101      	bne.n	1000bf22 <platform_event_wait+0x172>
1000bf1e:	6a23      	ldr	r3, [r4, #32]
1000bf20:	deff      	udf	#255	; 0xff
1000bf22:	0037      	movs	r7, r6
1000bf24:	4b20      	ldr	r3, [pc, #128]	; (1000bfa8 <platform_event_wait+0x1f8>)
1000bf26:	3714      	adds	r7, #20
1000bf28:	681b      	ldr	r3, [r3, #0]
1000bf2a:	0038      	movs	r0, r7
1000bf2c:	6a35      	ldr	r5, [r6, #32]
1000bf2e:	4798      	blx	r3
1000bf30:	2d00      	cmp	r5, #0
1000bf32:	d018      	beq.n	1000bf66 <platform_event_wait+0x1b6>
1000bf34:	21cd      	movs	r1, #205	; 0xcd
1000bf36:	682b      	ldr	r3, [r5, #0]
1000bf38:	0089      	lsls	r1, r1, #2
1000bf3a:	889a      	ldrh	r2, [r3, #4]
1000bf3c:	68ab      	ldr	r3, [r5, #8]
1000bf3e:	428a      	cmp	r2, r1
1000bf40:	d10e      	bne.n	1000bf60 <platform_event_wait+0x1b0>
1000bf42:	4a18      	ldr	r2, [pc, #96]	; (1000bfa4 <platform_event_wait+0x1f4>)
1000bf44:	2c00      	cmp	r4, #0
1000bf46:	d005      	beq.n	1000bf54 <platform_event_wait+0x1a4>
1000bf48:	60a3      	str	r3, [r4, #8]
1000bf4a:	0028      	movs	r0, r5
1000bf4c:	6813      	ldr	r3, [r2, #0]
1000bf4e:	4798      	blx	r3
1000bf50:	68a5      	ldr	r5, [r4, #8]
1000bf52:	e7ed      	b.n	1000bf30 <platform_event_wait+0x180>
1000bf54:	6233      	str	r3, [r6, #32]
1000bf56:	0028      	movs	r0, r5
1000bf58:	6813      	ldr	r3, [r2, #0]
1000bf5a:	4798      	blx	r3
1000bf5c:	6a35      	ldr	r5, [r6, #32]
1000bf5e:	e7e7      	b.n	1000bf30 <platform_event_wait+0x180>
1000bf60:	002c      	movs	r4, r5
1000bf62:	001d      	movs	r5, r3
1000bf64:	e7e4      	b.n	1000bf30 <platform_event_wait+0x180>
1000bf66:	4b11      	ldr	r3, [pc, #68]	; (1000bfac <platform_event_wait+0x1fc>)
1000bf68:	0038      	movs	r0, r7
1000bf6a:	681b      	ldr	r3, [r3, #0]
1000bf6c:	4798      	blx	r3
1000bf6e:	9801      	ldr	r0, [sp, #4]
1000bf70:	b009      	add	sp, #36	; 0x24
1000bf72:	bdf0      	pop	{r4, r5, r6, r7, pc}
1000bf74:	10010b49 	.word	0x10010b49
1000bf78:	1000bd29 	.word	0x1000bd29
1000bf7c:	100138b8 	.word	0x100138b8
1000bf80:	100138d8 	.word	0x100138d8
1000bf84:	100138f0 	.word	0x100138f0
1000bf88:	10014744 	.word	0x10014744
1000bf8c:	100144aa 	.word	0x100144aa
1000bf90:	10010b37 	.word	0x10010b37
1000bf94:	1000b95d 	.word	0x1000b95d
1000bf98:	100138e4 	.word	0x100138e4
1000bf9c:	100138e0 	.word	0x100138e0
1000bfa0:	100138b0 	.word	0x100138b0
1000bfa4:	100138ac 	.word	0x100138ac
1000bfa8:	100138d0 	.word	0x100138d0
1000bfac:	100138bc 	.word	0x100138bc

1000bfb0 <acquire_sleep_lock>:
1000bfb0:	2080      	movs	r0, #128	; 0x80
1000bfb2:	b510      	push	{r4, lr}
1000bfb4:	4b02      	ldr	r3, [pc, #8]	; (1000bfc0 <acquire_sleep_lock+0x10>)
1000bfb6:	0200      	lsls	r0, r0, #8
1000bfb8:	681b      	ldr	r3, [r3, #0]
1000bfba:	4798      	blx	r3
1000bfbc:	2008      	movs	r0, #8
1000bfbe:	bd10      	pop	{r4, pc}
1000bfc0:	10014464 	.word	0x10014464

1000bfc4 <release_message_lock>:
1000bfc4:	2080      	movs	r0, #128	; 0x80
1000bfc6:	b510      	push	{r4, lr}
1000bfc8:	4b02      	ldr	r3, [pc, #8]	; (1000bfd4 <release_message_lock+0x10>)
1000bfca:	01c0      	lsls	r0, r0, #7
1000bfcc:	681b      	ldr	r3, [r3, #0]
1000bfce:	4798      	blx	r3
1000bfd0:	2000      	movs	r0, #0
1000bfd2:	bd10      	pop	{r4, pc}
1000bfd4:	10014470 	.word	0x10014470

1000bfd8 <release_sleep_lock>:
1000bfd8:	2080      	movs	r0, #128	; 0x80
1000bfda:	b510      	push	{r4, lr}
1000bfdc:	4c04      	ldr	r4, [pc, #16]	; (1000bff0 <release_sleep_lock+0x18>)
1000bfde:	01c0      	lsls	r0, r0, #7
1000bfe0:	6823      	ldr	r3, [r4, #0]
1000bfe2:	4798      	blx	r3
1000bfe4:	2080      	movs	r0, #128	; 0x80
1000bfe6:	6823      	ldr	r3, [r4, #0]
1000bfe8:	0200      	lsls	r0, r0, #8
1000bfea:	4798      	blx	r3
1000bfec:	2000      	movs	r0, #0
1000bfee:	bd10      	pop	{r4, pc}
1000bff0:	10014470 	.word	0x10014470

1000bff4 <register_resume_callback>:
1000bff4:	2309      	movs	r3, #9
1000bff6:	2800      	cmp	r0, #0
1000bff8:	d002      	beq.n	1000c000 <register_resume_callback+0xc>
1000bffa:	4b02      	ldr	r3, [pc, #8]	; (1000c004 <register_resume_callback+0x10>)
1000bffc:	6018      	str	r0, [r3, #0]
1000bffe:	2300      	movs	r3, #0
1000c000:	0018      	movs	r0, r3
1000c002:	4770      	bx	lr
1000c004:	10014738 	.word	0x10014738

1000c008 <gpio1_combined_isr_handler>:
1000c008:	4a12      	ldr	r2, [pc, #72]	; (1000c054 <gpio1_combined_isr_handler+0x4c>)
1000c00a:	4913      	ldr	r1, [pc, #76]	; (1000c058 <gpio1_combined_isr_handler+0x50>)
1000c00c:	8f13      	ldrh	r3, [r2, #56]	; 0x38
1000c00e:	8d10      	ldrh	r0, [r2, #40]	; 0x28
1000c010:	b29b      	uxth	r3, r3
1000c012:	4308      	orrs	r0, r1
1000c014:	b280      	uxth	r0, r0
1000c016:	8510      	strh	r0, [r2, #40]	; 0x28
1000c018:	05db      	lsls	r3, r3, #23
1000c01a:	0ddb      	lsrs	r3, r3, #23
1000c01c:	d00b      	beq.n	1000c036 <gpio1_combined_isr_handler+0x2e>
1000c01e:	b2db      	uxtb	r3, r3
1000c020:	4258      	negs	r0, r3
1000c022:	4003      	ands	r3, r0
1000c024:	2000      	movs	r0, #0
1000c026:	2b01      	cmp	r3, #1
1000c028:	d003      	beq.n	1000c032 <gpio1_combined_isr_handler+0x2a>
1000c02a:	3001      	adds	r0, #1
1000c02c:	085b      	lsrs	r3, r3, #1
1000c02e:	b2c0      	uxtb	r0, r0
1000c030:	e7f9      	b.n	1000c026 <gpio1_combined_isr_handler+0x1e>
1000c032:	4083      	lsls	r3, r0
1000c034:	e001      	b.n	1000c03a <gpio1_combined_isr_handler+0x32>
1000c036:	8f13      	ldrh	r3, [r2, #56]	; 0x38
1000c038:	430b      	orrs	r3, r1
1000c03a:	b29b      	uxth	r3, r3
1000c03c:	8713      	strh	r3, [r2, #56]	; 0x38
1000c03e:	8f13      	ldrh	r3, [r2, #56]	; 0x38
1000c040:	05db      	lsls	r3, r3, #23
1000c042:	0ddb      	lsrs	r3, r3, #23
1000c044:	d1e8      	bne.n	1000c018 <gpio1_combined_isr_handler+0x10>
1000c046:	2180      	movs	r1, #128	; 0x80
1000c048:	4a04      	ldr	r2, [pc, #16]	; (1000c05c <gpio1_combined_isr_handler+0x54>)
1000c04a:	3381      	adds	r3, #129	; 0x81
1000c04c:	0049      	lsls	r1, r1, #1
1000c04e:	33ff      	adds	r3, #255	; 0xff
1000c050:	50d1      	str	r1, [r2, r3]
1000c052:	4770      	bx	lr
1000c054:	40011000 	.word	0x40011000
1000c058:	ffff8000 	.word	0xffff8000
1000c05c:	e000e100 	.word	0xe000e100

1000c060 <gpio0_combined_isr_handler>:
1000c060:	4a12      	ldr	r2, [pc, #72]	; (1000c0ac <gpio0_combined_isr_handler+0x4c>)
1000c062:	4913      	ldr	r1, [pc, #76]	; (1000c0b0 <gpio0_combined_isr_handler+0x50>)
1000c064:	8f13      	ldrh	r3, [r2, #56]	; 0x38
1000c066:	8d10      	ldrh	r0, [r2, #40]	; 0x28
1000c068:	b29b      	uxth	r3, r3
1000c06a:	4308      	orrs	r0, r1
1000c06c:	b280      	uxth	r0, r0
1000c06e:	8510      	strh	r0, [r2, #40]	; 0x28
1000c070:	05db      	lsls	r3, r3, #23
1000c072:	0ddb      	lsrs	r3, r3, #23
1000c074:	d00b      	beq.n	1000c08e <gpio0_combined_isr_handler+0x2e>
1000c076:	b2db      	uxtb	r3, r3
1000c078:	4258      	negs	r0, r3
1000c07a:	4003      	ands	r3, r0
1000c07c:	2000      	movs	r0, #0
1000c07e:	2b01      	cmp	r3, #1
1000c080:	d003      	beq.n	1000c08a <gpio0_combined_isr_handler+0x2a>
1000c082:	3001      	adds	r0, #1
1000c084:	085b      	lsrs	r3, r3, #1
1000c086:	b2c0      	uxtb	r0, r0
1000c088:	e7f9      	b.n	1000c07e <gpio0_combined_isr_handler+0x1e>
1000c08a:	4083      	lsls	r3, r0
1000c08c:	e001      	b.n	1000c092 <gpio0_combined_isr_handler+0x32>
1000c08e:	8f13      	ldrh	r3, [r2, #56]	; 0x38
1000c090:	430b      	orrs	r3, r1
1000c092:	b29b      	uxth	r3, r3
1000c094:	8713      	strh	r3, [r2, #56]	; 0x38
1000c096:	8f13      	ldrh	r3, [r2, #56]	; 0x38
1000c098:	05db      	lsls	r3, r3, #23
1000c09a:	0ddb      	lsrs	r3, r3, #23
1000c09c:	d1e8      	bne.n	1000c070 <gpio0_combined_isr_handler+0x10>
1000c09e:	2180      	movs	r1, #128	; 0x80
1000c0a0:	4a04      	ldr	r2, [pc, #16]	; (1000c0b4 <gpio0_combined_isr_handler+0x54>)
1000c0a2:	3381      	adds	r3, #129	; 0x81
1000c0a4:	33ff      	adds	r3, #255	; 0xff
1000c0a6:	50d1      	str	r1, [r2, r3]
1000c0a8:	4770      	bx	lr
1000c0aa:	46c0      	nop			; (mov r8, r8)
1000c0ac:	40010000 	.word	0x40010000
1000c0b0:	ffff8000 	.word	0xffff8000
1000c0b4:	e000e100 	.word	0xe000e100

1000c0b8 <PORT1_COMB_Handler>:
1000c0b8:	b510      	push	{r4, lr}
1000c0ba:	4c0b      	ldr	r4, [pc, #44]	; (1000c0e8 <PORT1_COMB_Handler+0x30>)
1000c0bc:	8f23      	ldrh	r3, [r4, #56]	; 0x38
1000c0be:	0b5b      	lsrs	r3, r3, #13
1000c0c0:	d00f      	beq.n	1000c0e2 <PORT1_COMB_Handler+0x2a>
1000c0c2:	4b0a      	ldr	r3, [pc, #40]	; (1000c0ec <PORT1_COMB_Handler+0x34>)
1000c0c4:	681b      	ldr	r3, [r3, #0]
1000c0c6:	4798      	blx	r3
1000c0c8:	8f23      	ldrh	r3, [r4, #56]	; 0x38
1000c0ca:	8f22      	ldrh	r2, [r4, #56]	; 0x38
1000c0cc:	0b5b      	lsrs	r3, r3, #13
1000c0ce:	035b      	lsls	r3, r3, #13
1000c0d0:	4313      	orrs	r3, r2
1000c0d2:	8723      	strh	r3, [r4, #56]	; 0x38
1000c0d4:	2180      	movs	r1, #128	; 0x80
1000c0d6:	23c0      	movs	r3, #192	; 0xc0
1000c0d8:	4a05      	ldr	r2, [pc, #20]	; (1000c0f0 <PORT1_COMB_Handler+0x38>)
1000c0da:	0049      	lsls	r1, r1, #1
1000c0dc:	005b      	lsls	r3, r3, #1
1000c0de:	50d1      	str	r1, [r2, r3]
1000c0e0:	e001      	b.n	1000c0e6 <PORT1_COMB_Handler+0x2e>
1000c0e2:	4b04      	ldr	r3, [pc, #16]	; (1000c0f4 <PORT1_COMB_Handler+0x3c>)
1000c0e4:	4798      	blx	r3
1000c0e6:	bd10      	pop	{r4, pc}
1000c0e8:	40011000 	.word	0x40011000
1000c0ec:	10014730 	.word	0x10014730
1000c0f0:	e000e100 	.word	0xe000e100
1000c0f4:	1000c009 	.word	0x1000c009

1000c0f8 <wakeup_int_unregister_callback>:
1000c0f8:	2303      	movs	r3, #3
1000c0fa:	2802      	cmp	r0, #2
1000c0fc:	d803      	bhi.n	1000c106 <wakeup_int_unregister_callback+0xe>
1000c0fe:	2300      	movs	r3, #0
1000c100:	4a02      	ldr	r2, [pc, #8]	; (1000c10c <wakeup_int_unregister_callback+0x14>)
1000c102:	0080      	lsls	r0, r0, #2
1000c104:	5083      	str	r3, [r0, r2]
1000c106:	0018      	movs	r0, r3
1000c108:	4770      	bx	lr
1000c10a:	46c0      	nop			; (mov r8, r8)
1000c10c:	10014748 	.word	0x10014748

1000c110 <wakeup_active_event_callback>:
1000c110:	7803      	ldrb	r3, [r0, #0]
1000c112:	b510      	push	{r4, lr}
1000c114:	0004      	movs	r4, r0
1000c116:	2b01      	cmp	r3, #1
1000c118:	d108      	bne.n	1000c12c <wakeup_active_event_callback+0x1c>
1000c11a:	4b13      	ldr	r3, [pc, #76]	; (1000c168 <wakeup_active_event_callback+0x58>)
1000c11c:	681b      	ldr	r3, [r3, #0]
1000c11e:	2b00      	cmp	r3, #0
1000c120:	d000      	beq.n	1000c124 <wakeup_active_event_callback+0x14>
1000c122:	4798      	blx	r3
1000c124:	23ff      	movs	r3, #255	; 0xff
1000c126:	6822      	ldr	r2, [r4, #0]
1000c128:	439a      	bics	r2, r3
1000c12a:	6022      	str	r2, [r4, #0]
1000c12c:	6823      	ldr	r3, [r4, #0]
1000c12e:	0a1b      	lsrs	r3, r3, #8
1000c130:	b2db      	uxtb	r3, r3
1000c132:	2b01      	cmp	r3, #1
1000c134:	d108      	bne.n	1000c148 <wakeup_active_event_callback+0x38>
1000c136:	4b0c      	ldr	r3, [pc, #48]	; (1000c168 <wakeup_active_event_callback+0x58>)
1000c138:	685b      	ldr	r3, [r3, #4]
1000c13a:	2b00      	cmp	r3, #0
1000c13c:	d000      	beq.n	1000c140 <wakeup_active_event_callback+0x30>
1000c13e:	4798      	blx	r3
1000c140:	6822      	ldr	r2, [r4, #0]
1000c142:	4b0a      	ldr	r3, [pc, #40]	; (1000c16c <wakeup_active_event_callback+0x5c>)
1000c144:	4013      	ands	r3, r2
1000c146:	6023      	str	r3, [r4, #0]
1000c148:	6823      	ldr	r3, [r4, #0]
1000c14a:	0c1b      	lsrs	r3, r3, #16
1000c14c:	b2db      	uxtb	r3, r3
1000c14e:	2b01      	cmp	r3, #1
1000c150:	d108      	bne.n	1000c164 <wakeup_active_event_callback+0x54>
1000c152:	4b05      	ldr	r3, [pc, #20]	; (1000c168 <wakeup_active_event_callback+0x58>)
1000c154:	689b      	ldr	r3, [r3, #8]
1000c156:	2b00      	cmp	r3, #0
1000c158:	d000      	beq.n	1000c15c <wakeup_active_event_callback+0x4c>
1000c15a:	4798      	blx	r3
1000c15c:	6822      	ldr	r2, [r4, #0]
1000c15e:	4b04      	ldr	r3, [pc, #16]	; (1000c170 <wakeup_active_event_callback+0x60>)
1000c160:	4013      	ands	r3, r2
1000c162:	6023      	str	r3, [r4, #0]
1000c164:	bd10      	pop	{r4, pc}
1000c166:	46c0      	nop			; (mov r8, r8)
1000c168:	10014748 	.word	0x10014748
1000c16c:	ffff00ff 	.word	0xffff00ff
1000c170:	ff00ffff 	.word	0xff00ffff

1000c174 <sms_plf_event_cb>:
1000c174:	2201      	movs	r2, #1
1000c176:	4b01      	ldr	r3, [pc, #4]	; (1000c17c <sms_plf_event_cb+0x8>)
1000c178:	705a      	strb	r2, [r3, #1]
1000c17a:	4770      	bx	lr
1000c17c:	10013a6c 	.word	0x10013a6c

1000c180 <sms_init_variables>:
1000c180:	2300      	movs	r3, #0
1000c182:	2101      	movs	r1, #1
1000c184:	4a0a      	ldr	r2, [pc, #40]	; (1000c1b0 <sms_init_variables+0x30>)
1000c186:	7013      	strb	r3, [r2, #0]
1000c188:	4a0a      	ldr	r2, [pc, #40]	; (1000c1b4 <sms_init_variables+0x34>)
1000c18a:	7013      	strb	r3, [r2, #0]
1000c18c:	4a0a      	ldr	r2, [pc, #40]	; (1000c1b8 <sms_init_variables+0x38>)
1000c18e:	3206      	adds	r2, #6
1000c190:	77d3      	strb	r3, [r2, #31]
1000c192:	4a0a      	ldr	r2, [pc, #40]	; (1000c1bc <sms_init_variables+0x3c>)
1000c194:	7013      	strb	r3, [r2, #0]
1000c196:	4a0a      	ldr	r2, [pc, #40]	; (1000c1c0 <sms_init_variables+0x40>)
1000c198:	7013      	strb	r3, [r2, #0]
1000c19a:	4a0a      	ldr	r2, [pc, #40]	; (1000c1c4 <sms_init_variables+0x44>)
1000c19c:	7011      	strb	r1, [r2, #0]
1000c19e:	4a0a      	ldr	r2, [pc, #40]	; (1000c1c8 <sms_init_variables+0x48>)
1000c1a0:	1849      	adds	r1, r1, r1
1000c1a2:	8013      	strh	r3, [r2, #0]
1000c1a4:	8053      	strh	r3, [r2, #2]
1000c1a6:	4a09      	ldr	r2, [pc, #36]	; (1000c1cc <sms_init_variables+0x4c>)
1000c1a8:	7011      	strb	r1, [r2, #0]
1000c1aa:	4a09      	ldr	r2, [pc, #36]	; (1000c1d0 <sms_init_variables+0x50>)
1000c1ac:	8013      	strh	r3, [r2, #0]
1000c1ae:	4770      	bx	lr
1000c1b0:	10013a72 	.word	0x10013a72
1000c1b4:	100139ca 	.word	0x100139ca
1000c1b8:	10013a44 	.word	0x10013a44
1000c1bc:	100139c4 	.word	0x100139c4
1000c1c0:	10013a73 	.word	0x10013a73
1000c1c4:	100139cb 	.word	0x100139cb
1000c1c8:	100139c6 	.word	0x100139c6
1000c1cc:	100139cc 	.word	0x100139cc
1000c1d0:	10013adc 	.word	0x10013adc

1000c1d4 <sms_set_debug_pin>:
1000c1d4:	b537      	push	{r0, r1, r2, r4, r5, lr}
1000c1d6:	ac01      	add	r4, sp, #4
1000c1d8:	0020      	movs	r0, r4
1000c1da:	4b07      	ldr	r3, [pc, #28]	; (1000c1f8 <sms_set_debug_pin+0x24>)
1000c1dc:	4798      	blx	r3
1000c1de:	2301      	movs	r3, #1
1000c1e0:	4d06      	ldr	r5, [pc, #24]	; (1000c1fc <sms_set_debug_pin+0x28>)
1000c1e2:	7023      	strb	r3, [r4, #0]
1000c1e4:	7828      	ldrb	r0, [r5, #0]
1000c1e6:	0021      	movs	r1, r4
1000c1e8:	4b05      	ldr	r3, [pc, #20]	; (1000c200 <sms_set_debug_pin+0x2c>)
1000c1ea:	4798      	blx	r3
1000c1ec:	7828      	ldrb	r0, [r5, #0]
1000c1ee:	2100      	movs	r1, #0
1000c1f0:	4b04      	ldr	r3, [pc, #16]	; (1000c204 <sms_set_debug_pin+0x30>)
1000c1f2:	4798      	blx	r3
1000c1f4:	bd37      	pop	{r0, r1, r2, r4, r5, pc}
1000c1f6:	46c0      	nop			; (mov r8, r8)
1000c1f8:	10009981 	.word	0x10009981
1000c1fc:	100139cc 	.word	0x100139cc
1000c200:	10009991 	.word	0x10009991
1000c204:	10009b8d 	.word	0x10009b8d

1000c208 <resume_cb>:
1000c208:	b510      	push	{r4, lr}
1000c20a:	4b07      	ldr	r3, [pc, #28]	; (1000c228 <resume_cb+0x20>)
1000c20c:	4798      	blx	r3
1000c20e:	4b07      	ldr	r3, [pc, #28]	; (1000c22c <resume_cb+0x24>)
1000c210:	4798      	blx	r3
1000c212:	4b07      	ldr	r3, [pc, #28]	; (1000c230 <resume_cb+0x28>)
1000c214:	4798      	blx	r3
1000c216:	4b07      	ldr	r3, [pc, #28]	; (1000c234 <resume_cb+0x2c>)
1000c218:	4798      	blx	r3
1000c21a:	4b07      	ldr	r3, [pc, #28]	; (1000c238 <resume_cb+0x30>)
1000c21c:	4798      	blx	r3
1000c21e:	4b07      	ldr	r3, [pc, #28]	; (1000c23c <resume_cb+0x34>)
1000c220:	4798      	blx	r3
1000c222:	4b07      	ldr	r3, [pc, #28]	; (1000c240 <resume_cb+0x38>)
1000c224:	4798      	blx	r3
1000c226:	bd10      	pop	{r4, pc}
1000c228:	1000ba69 	.word	0x1000ba69
1000c22c:	1000b7d9 	.word	0x1000b7d9
1000c230:	10008fa9 	.word	0x10008fa9
1000c234:	1000865d 	.word	0x1000865d
1000c238:	100089d1 	.word	0x100089d1
1000c23c:	10008e71 	.word	0x10008e71
1000c240:	1000c1d5 	.word	0x1000c1d5

1000c244 <sms_monitor_states>:
1000c244:	4b06      	ldr	r3, [pc, #24]	; (1000c260 <sms_monitor_states+0x1c>)
1000c246:	781b      	ldrb	r3, [r3, #0]
1000c248:	4b06      	ldr	r3, [pc, #24]	; (1000c264 <sms_monitor_states+0x20>)
1000c24a:	781b      	ldrb	r3, [r3, #0]
1000c24c:	4b06      	ldr	r3, [pc, #24]	; (1000c268 <sms_monitor_states+0x24>)
1000c24e:	781b      	ldrb	r3, [r3, #0]
1000c250:	4b06      	ldr	r3, [pc, #24]	; (1000c26c <sms_monitor_states+0x28>)
1000c252:	781b      	ldrb	r3, [r3, #0]
1000c254:	4b06      	ldr	r3, [pc, #24]	; (1000c270 <sms_monitor_states+0x2c>)
1000c256:	781b      	ldrb	r3, [r3, #0]
1000c258:	4b06      	ldr	r3, [pc, #24]	; (1000c274 <sms_monitor_states+0x30>)
1000c25a:	781b      	ldrb	r3, [r3, #0]
1000c25c:	4770      	bx	lr
1000c25e:	46c0      	nop			; (mov r8, r8)
1000c260:	10013a80 	.word	0x10013a80
1000c264:	100139ca 	.word	0x100139ca
1000c268:	10013a72 	.word	0x10013a72
1000c26c:	100139c4 	.word	0x100139c4
1000c270:	10013a73 	.word	0x10013a73
1000c274:	100139cb 	.word	0x100139cb

1000c278 <sms_sensors_switch>:
1000c278:	b570      	push	{r4, r5, r6, lr}
1000c27a:	1e04      	subs	r4, r0, #0
1000c27c:	d009      	beq.n	1000c292 <sms_sensors_switch+0x1a>
1000c27e:	2101      	movs	r1, #1
1000c280:	4b08      	ldr	r3, [pc, #32]	; (1000c2a4 <sms_sensors_switch+0x2c>)
1000c282:	1d9a      	adds	r2, r3, #6
1000c284:	77d1      	strb	r1, [r2, #31]
1000c286:	2200      	movs	r2, #0
1000c288:	701a      	strb	r2, [r3, #0]
1000c28a:	705a      	strb	r2, [r3, #1]
1000c28c:	4b06      	ldr	r3, [pc, #24]	; (1000c2a8 <sms_sensors_switch+0x30>)
1000c28e:	4798      	blx	r3
1000c290:	e006      	b.n	1000c2a0 <sms_sensors_switch+0x28>
1000c292:	0001      	movs	r1, r0
1000c294:	4d05      	ldr	r5, [pc, #20]	; (1000c2ac <sms_sensors_switch+0x34>)
1000c296:	2006      	movs	r0, #6
1000c298:	47a8      	blx	r5
1000c29a:	0021      	movs	r1, r4
1000c29c:	2007      	movs	r0, #7
1000c29e:	47a8      	blx	r5
1000c2a0:	bd70      	pop	{r4, r5, r6, pc}
1000c2a2:	46c0      	nop			; (mov r8, r8)
1000c2a4:	10013a44 	.word	0x10013a44
1000c2a8:	10008a91 	.word	0x10008a91
1000c2ac:	10009b8d 	.word	0x10009b8d

1000c2b0 <sms_sensors_toggle_interrupt>:
1000c2b0:	b510      	push	{r4, lr}
1000c2b2:	1e01      	subs	r1, r0, #0
1000c2b4:	d108      	bne.n	1000c2c8 <sms_sensors_toggle_interrupt+0x18>
1000c2b6:	2203      	movs	r2, #3
1000c2b8:	4b09      	ldr	r3, [pc, #36]	; (1000c2e0 <sms_sensors_toggle_interrupt+0x30>)
1000c2ba:	480a      	ldr	r0, [pc, #40]	; (1000c2e4 <sms_sensors_toggle_interrupt+0x34>)
1000c2bc:	3306      	adds	r3, #6
1000c2be:	77da      	strb	r2, [r3, #31]
1000c2c0:	4b09      	ldr	r3, [pc, #36]	; (1000c2e8 <sms_sensors_toggle_interrupt+0x38>)
1000c2c2:	4798      	blx	r3
1000c2c4:	4b09      	ldr	r3, [pc, #36]	; (1000c2ec <sms_sensors_toggle_interrupt+0x3c>)
1000c2c6:	e008      	b.n	1000c2da <sms_sensors_toggle_interrupt+0x2a>
1000c2c8:	2801      	cmp	r0, #1
1000c2ca:	d107      	bne.n	1000c2dc <sms_sensors_toggle_interrupt+0x2c>
1000c2cc:	2202      	movs	r2, #2
1000c2ce:	4b04      	ldr	r3, [pc, #16]	; (1000c2e0 <sms_sensors_toggle_interrupt+0x30>)
1000c2d0:	3306      	adds	r3, #6
1000c2d2:	77da      	strb	r2, [r3, #31]
1000c2d4:	4b06      	ldr	r3, [pc, #24]	; (1000c2f0 <sms_sensors_toggle_interrupt+0x40>)
1000c2d6:	4798      	blx	r3
1000c2d8:	4b06      	ldr	r3, [pc, #24]	; (1000c2f4 <sms_sensors_toggle_interrupt+0x44>)
1000c2da:	4798      	blx	r3
1000c2dc:	bd10      	pop	{r4, pc}
1000c2de:	46c0      	nop			; (mov r8, r8)
1000c2e0:	10013a44 	.word	0x10013a44
1000c2e4:	00000cc6 	.word	0x00000cc6
1000c2e8:	10008f41 	.word	0x10008f41
1000c2ec:	10008f71 	.word	0x10008f71
1000c2f0:	10008f65 	.word	0x10008f65
1000c2f4:	10008f91 	.word	0x10008f91

1000c2f8 <main>:
1000c2f8:	2310      	movs	r3, #16
1000c2fa:	b5f7      	push	{r0, r1, r2, r4, r5, r6, r7, lr}
1000c2fc:	2400      	movs	r4, #0
1000c2fe:	4e6e      	ldr	r6, [pc, #440]	; (1000c4b8 <main+0x1c0>)
1000c300:	7033      	strb	r3, [r6, #0]
1000c302:	4b6e      	ldr	r3, [pc, #440]	; (1000c4bc <main+0x1c4>)
1000c304:	4798      	blx	r3
1000c306:	4b6e      	ldr	r3, [pc, #440]	; (1000c4c0 <main+0x1c8>)
1000c308:	4798      	blx	r3
1000c30a:	4b6e      	ldr	r3, [pc, #440]	; (1000c4c4 <main+0x1cc>)
1000c30c:	4798      	blx	r3
1000c30e:	4d6e      	ldr	r5, [pc, #440]	; (1000c4c8 <main+0x1d0>)
1000c310:	47a8      	blx	r5
1000c312:	4b6e      	ldr	r3, [pc, #440]	; (1000c4cc <main+0x1d4>)
1000c314:	4798      	blx	r3
1000c316:	4b6e      	ldr	r3, [pc, #440]	; (1000c4d0 <main+0x1d8>)
1000c318:	4798      	blx	r3
1000c31a:	4b6e      	ldr	r3, [pc, #440]	; (1000c4d4 <main+0x1dc>)
1000c31c:	4798      	blx	r3
1000c31e:	4b6e      	ldr	r3, [pc, #440]	; (1000c4d8 <main+0x1e0>)
1000c320:	4798      	blx	r3
1000c322:	4b6e      	ldr	r3, [pc, #440]	; (1000c4dc <main+0x1e4>)
1000c324:	4798      	blx	r3
1000c326:	4b6e      	ldr	r3, [pc, #440]	; (1000c4e0 <main+0x1e8>)
1000c328:	3306      	adds	r3, #6
1000c32a:	77dc      	strb	r4, [r3, #31]
1000c32c:	4b6d      	ldr	r3, [pc, #436]	; (1000c4e4 <main+0x1ec>)
1000c32e:	4798      	blx	r3
1000c330:	0020      	movs	r0, r4
1000c332:	4b6d      	ldr	r3, [pc, #436]	; (1000c4e8 <main+0x1f0>)
1000c334:	4798      	blx	r3
1000c336:	4b6d      	ldr	r3, [pc, #436]	; (1000c4ec <main+0x1f4>)
1000c338:	4798      	blx	r3
1000c33a:	4b6d      	ldr	r3, [pc, #436]	; (1000c4f0 <main+0x1f8>)
1000c33c:	4798      	blx	r3
1000c33e:	4b6d      	ldr	r3, [pc, #436]	; (1000c4f4 <main+0x1fc>)
1000c340:	486d      	ldr	r0, [pc, #436]	; (1000c4f8 <main+0x200>)
1000c342:	4798      	blx	r3
1000c344:	4f6d      	ldr	r7, [pc, #436]	; (1000c4fc <main+0x204>)
1000c346:	496e      	ldr	r1, [pc, #440]	; (1000c500 <main+0x208>)
1000c348:	0020      	movs	r0, r4
1000c34a:	47b8      	blx	r7
1000c34c:	496d      	ldr	r1, [pc, #436]	; (1000c504 <main+0x20c>)
1000c34e:	2001      	movs	r0, #1
1000c350:	47b8      	blx	r7
1000c352:	4b6d      	ldr	r3, [pc, #436]	; (1000c508 <main+0x210>)
1000c354:	4798      	blx	r3
1000c356:	4f6d      	ldr	r7, [pc, #436]	; (1000c50c <main+0x214>)
1000c358:	4a6d      	ldr	r2, [pc, #436]	; (1000c510 <main+0x218>)
1000c35a:	0021      	movs	r1, r4
1000c35c:	0020      	movs	r0, r4
1000c35e:	47b8      	blx	r7
1000c360:	4a6c      	ldr	r2, [pc, #432]	; (1000c514 <main+0x21c>)
1000c362:	2102      	movs	r1, #2
1000c364:	0020      	movs	r0, r4
1000c366:	47b8      	blx	r7
1000c368:	4b6b      	ldr	r3, [pc, #428]	; (1000c518 <main+0x220>)
1000c36a:	486c      	ldr	r0, [pc, #432]	; (1000c51c <main+0x224>)
1000c36c:	4798      	blx	r3
1000c36e:	0020      	movs	r0, r4
1000c370:	4f6b      	ldr	r7, [pc, #428]	; (1000c520 <main+0x228>)
1000c372:	47b8      	blx	r7
1000c374:	4b6b      	ldr	r3, [pc, #428]	; (1000c524 <main+0x22c>)
1000c376:	4798      	blx	r3
1000c378:	9501      	str	r5, [sp, #4]
1000c37a:	4d59      	ldr	r5, [pc, #356]	; (1000c4e0 <main+0x1e8>)
1000c37c:	9400      	str	r4, [sp, #0]
1000c37e:	2001      	movs	r0, #1
1000c380:	4b69      	ldr	r3, [pc, #420]	; (1000c528 <main+0x230>)
1000c382:	4240      	negs	r0, r0
1000c384:	4798      	blx	r3
1000c386:	4c69      	ldr	r4, [pc, #420]	; (1000c52c <main+0x234>)
1000c388:	7863      	ldrb	r3, [r4, #1]
1000c38a:	2b00      	cmp	r3, #0
1000c38c:	d0f7      	beq.n	1000c37e <main+0x86>
1000c38e:	9b01      	ldr	r3, [sp, #4]
1000c390:	4798      	blx	r3
1000c392:	4669      	mov	r1, sp
1000c394:	4672      	mov	r2, lr
1000c396:	4866      	ldr	r0, [pc, #408]	; (1000c530 <main+0x238>)
1000c398:	4b66      	ldr	r3, [pc, #408]	; (1000c534 <main+0x23c>)
1000c39a:	4798      	blx	r3
1000c39c:	7820      	ldrb	r0, [r4, #0]
1000c39e:	b2c0      	uxtb	r0, r0
1000c3a0:	2806      	cmp	r0, #6
1000c3a2:	d900      	bls.n	1000c3a6 <main+0xae>
1000c3a4:	e080      	b.n	1000c4a8 <main+0x1b0>
1000c3a6:	f003 faed 	bl	1000f984 <__gnu_thumb1_case_uqi>
1000c3aa:	1104      	.short	0x1104
1000c3ac:	7557472c 	.word	0x7557472c
1000c3b0:	7a          	.byte	0x7a
1000c3b1:	00          	.byte	0x00
1000c3b2:	2000      	movs	r0, #0
1000c3b4:	47b8      	blx	r7
1000c3b6:	4b60      	ldr	r3, [pc, #384]	; (1000c538 <main+0x240>)
1000c3b8:	781b      	ldrb	r3, [r3, #0]
1000c3ba:	2b00      	cmp	r3, #0
1000c3bc:	d174      	bne.n	1000c4a8 <main+0x1b0>
1000c3be:	4b5f      	ldr	r3, [pc, #380]	; (1000c53c <main+0x244>)
1000c3c0:	781b      	ldrb	r3, [r3, #0]
1000c3c2:	2b00      	cmp	r3, #0
1000c3c4:	d170      	bne.n	1000c4a8 <main+0x1b0>
1000c3c6:	4b5e      	ldr	r3, [pc, #376]	; (1000c540 <main+0x248>)
1000c3c8:	4798      	blx	r3
1000c3ca:	e06d      	b.n	1000c4a8 <main+0x1b0>
1000c3cc:	4b5d      	ldr	r3, [pc, #372]	; (1000c544 <main+0x24c>)
1000c3ce:	781a      	ldrb	r2, [r3, #0]
1000c3d0:	2a04      	cmp	r2, #4
1000c3d2:	d008      	beq.n	1000c3e6 <main+0xee>
1000c3d4:	781a      	ldrb	r2, [r3, #0]
1000c3d6:	2a07      	cmp	r2, #7
1000c3d8:	d005      	beq.n	1000c3e6 <main+0xee>
1000c3da:	781a      	ldrb	r2, [r3, #0]
1000c3dc:	2a01      	cmp	r2, #1
1000c3de:	d002      	beq.n	1000c3e6 <main+0xee>
1000c3e0:	781b      	ldrb	r3, [r3, #0]
1000c3e2:	2b05      	cmp	r3, #5
1000c3e4:	d160      	bne.n	1000c4a8 <main+0x1b0>
1000c3e6:	7833      	ldrb	r3, [r6, #0]
1000c3e8:	2b22      	cmp	r3, #34	; 0x22
1000c3ea:	d106      	bne.n	1000c3fa <main+0x102>
1000c3ec:	2202      	movs	r2, #2
1000c3ee:	1dab      	adds	r3, r5, #6
1000c3f0:	77da      	strb	r2, [r3, #31]
1000c3f2:	4b55      	ldr	r3, [pc, #340]	; (1000c548 <main+0x250>)
1000c3f4:	4798      	blx	r3
1000c3f6:	4b55      	ldr	r3, [pc, #340]	; (1000c54c <main+0x254>)
1000c3f8:	4798      	blx	r3
1000c3fa:	2001      	movs	r0, #1
1000c3fc:	47b8      	blx	r7
1000c3fe:	4b54      	ldr	r3, [pc, #336]	; (1000c550 <main+0x258>)
1000c400:	e051      	b.n	1000c4a6 <main+0x1ae>
1000c402:	4b50      	ldr	r3, [pc, #320]	; (1000c544 <main+0x24c>)
1000c404:	781a      	ldrb	r2, [r3, #0]
1000c406:	2a04      	cmp	r2, #4
1000c408:	d008      	beq.n	1000c41c <main+0x124>
1000c40a:	781a      	ldrb	r2, [r3, #0]
1000c40c:	2a07      	cmp	r2, #7
1000c40e:	d005      	beq.n	1000c41c <main+0x124>
1000c410:	781a      	ldrb	r2, [r3, #0]
1000c412:	2a01      	cmp	r2, #1
1000c414:	d002      	beq.n	1000c41c <main+0x124>
1000c416:	781b      	ldrb	r3, [r3, #0]
1000c418:	2b05      	cmp	r3, #5
1000c41a:	d145      	bne.n	1000c4a8 <main+0x1b0>
1000c41c:	7833      	ldrb	r3, [r6, #0]
1000c41e:	2b22      	cmp	r3, #34	; 0x22
1000c420:	d106      	bne.n	1000c430 <main+0x138>
1000c422:	2202      	movs	r2, #2
1000c424:	1dab      	adds	r3, r5, #6
1000c426:	77da      	strb	r2, [r3, #31]
1000c428:	4b47      	ldr	r3, [pc, #284]	; (1000c548 <main+0x250>)
1000c42a:	4798      	blx	r3
1000c42c:	4b47      	ldr	r3, [pc, #284]	; (1000c54c <main+0x254>)
1000c42e:	4798      	blx	r3
1000c430:	2001      	movs	r0, #1
1000c432:	47b8      	blx	r7
1000c434:	4b47      	ldr	r3, [pc, #284]	; (1000c554 <main+0x25c>)
1000c436:	e036      	b.n	1000c4a6 <main+0x1ae>
1000c438:	4b42      	ldr	r3, [pc, #264]	; (1000c544 <main+0x24c>)
1000c43a:	781a      	ldrb	r2, [r3, #0]
1000c43c:	2a04      	cmp	r2, #4
1000c43e:	d008      	beq.n	1000c452 <main+0x15a>
1000c440:	781a      	ldrb	r2, [r3, #0]
1000c442:	2a07      	cmp	r2, #7
1000c444:	d005      	beq.n	1000c452 <main+0x15a>
1000c446:	781a      	ldrb	r2, [r3, #0]
1000c448:	2a02      	cmp	r2, #2
1000c44a:	d002      	beq.n	1000c452 <main+0x15a>
1000c44c:	781b      	ldrb	r3, [r3, #0]
1000c44e:	2b06      	cmp	r3, #6
1000c450:	d12a      	bne.n	1000c4a8 <main+0x1b0>
1000c452:	2001      	movs	r0, #1
1000c454:	47b8      	blx	r7
1000c456:	e013      	b.n	1000c480 <main+0x188>
1000c458:	4b3a      	ldr	r3, [pc, #232]	; (1000c544 <main+0x24c>)
1000c45a:	781a      	ldrb	r2, [r3, #0]
1000c45c:	2a05      	cmp	r2, #5
1000c45e:	d008      	beq.n	1000c472 <main+0x17a>
1000c460:	781a      	ldrb	r2, [r3, #0]
1000c462:	2a07      	cmp	r2, #7
1000c464:	d005      	beq.n	1000c472 <main+0x17a>
1000c466:	781a      	ldrb	r2, [r3, #0]
1000c468:	2a03      	cmp	r2, #3
1000c46a:	d002      	beq.n	1000c472 <main+0x17a>
1000c46c:	781b      	ldrb	r3, [r3, #0]
1000c46e:	2b06      	cmp	r3, #6
1000c470:	d11a      	bne.n	1000c4a8 <main+0x1b0>
1000c472:	7833      	ldrb	r3, [r6, #0]
1000c474:	2b22      	cmp	r3, #34	; 0x22
1000c476:	d106      	bne.n	1000c486 <main+0x18e>
1000c478:	2001      	movs	r0, #1
1000c47a:	47b8      	blx	r7
1000c47c:	4b36      	ldr	r3, [pc, #216]	; (1000c558 <main+0x260>)
1000c47e:	4798      	blx	r3
1000c480:	2000      	movs	r0, #0
1000c482:	47b8      	blx	r7
1000c484:	e010      	b.n	1000c4a8 <main+0x1b0>
1000c486:	7833      	ldrb	r3, [r6, #0]
1000c488:	2b23      	cmp	r3, #35	; 0x23
1000c48a:	d00d      	beq.n	1000c4a8 <main+0x1b0>
1000c48c:	4b2e      	ldr	r3, [pc, #184]	; (1000c548 <main+0x250>)
1000c48e:	4798      	blx	r3
1000c490:	4b24      	ldr	r3, [pc, #144]	; (1000c524 <main+0x22c>)
1000c492:	e008      	b.n	1000c4a6 <main+0x1ae>
1000c494:	4b31      	ldr	r3, [pc, #196]	; (1000c55c <main+0x264>)
1000c496:	2000      	movs	r0, #0
1000c498:	4798      	blx	r3
1000c49a:	4b31      	ldr	r3, [pc, #196]	; (1000c560 <main+0x268>)
1000c49c:	e003      	b.n	1000c4a6 <main+0x1ae>
1000c49e:	4b2f      	ldr	r3, [pc, #188]	; (1000c55c <main+0x264>)
1000c4a0:	2001      	movs	r0, #1
1000c4a2:	4798      	blx	r3
1000c4a4:	4b2f      	ldr	r3, [pc, #188]	; (1000c564 <main+0x26c>)
1000c4a6:	4798      	blx	r3
1000c4a8:	466a      	mov	r2, sp
1000c4aa:	4b20      	ldr	r3, [pc, #128]	; (1000c52c <main+0x234>)
1000c4ac:	7812      	ldrb	r2, [r2, #0]
1000c4ae:	705a      	strb	r2, [r3, #1]
1000c4b0:	466a      	mov	r2, sp
1000c4b2:	7812      	ldrb	r2, [r2, #0]
1000c4b4:	701a      	strb	r2, [r3, #0]
1000c4b6:	e762      	b.n	1000c37e <main+0x86>
1000c4b8:	10013a72 	.word	0x10013a72
1000c4bc:	1000badd 	.word	0x1000badd
1000c4c0:	10009dcd 	.word	0x10009dcd
1000c4c4:	1000b7d9 	.word	0x1000b7d9
1000c4c8:	1000bfb1 	.word	0x1000bfb1
1000c4cc:	1000c181 	.word	0x1000c181
1000c4d0:	10008fa9 	.word	0x10008fa9
1000c4d4:	1000865d 	.word	0x1000865d
1000c4d8:	100089d1 	.word	0x100089d1
1000c4dc:	10008e71 	.word	0x10008e71
1000c4e0:	10013a44 	.word	0x10013a44
1000c4e4:	1000c1d5 	.word	0x1000c1d5
1000c4e8:	1000b155 	.word	0x1000b155
1000c4ec:	10008989 	.word	0x10008989
1000c4f0:	10008e49 	.word	0x10008e49
1000c4f4:	1000bff5 	.word	0x1000bff5
1000c4f8:	1000c209 	.word	0x1000c209
1000c4fc:	10008fe5 	.word	0x10008fe5
1000c500:	1000904d 	.word	0x1000904d
1000c504:	1000906d 	.word	0x1000906d
1000c508:	100086a9 	.word	0x100086a9
1000c50c:	1000b0f1 	.word	0x1000b0f1
1000c510:	10011bc8 	.word	0x10011bc8
1000c514:	10011c14 	.word	0x10011c14
1000c518:	1000b74d 	.word	0x1000b74d
1000c51c:	1000c175 	.word	0x1000c175
1000c520:	100086f9 	.word	0x100086f9
1000c524:	100082f1 	.word	0x100082f1
1000c528:	1000b689 	.word	0x1000b689
1000c52c:	10013a6c 	.word	0x10013a6c
1000c530:	10011d54 	.word	0x10011d54
1000c534:	10010c91 	.word	0x10010c91
1000c538:	100139c4 	.word	0x100139c4
1000c53c:	10013a73 	.word	0x10013a73
1000c540:	1000bfd9 	.word	0x1000bfd9
1000c544:	100139cb 	.word	0x100139cb
1000c548:	10008f65 	.word	0x10008f65
1000c54c:	10008f91 	.word	0x10008f91
1000c550:	1000871d 	.word	0x1000871d
1000c554:	1000881d 	.word	0x1000881d
1000c558:	10008d7d 	.word	0x10008d7d
1000c55c:	10009041 	.word	0x10009041
1000c560:	1000908d 	.word	0x1000908d
1000c564:	10009271 	.word	0x10009271

1000c568 <internal_event_post>:
1000c568:	b570      	push	{r4, r5, r6, lr}
1000c56a:	4d12      	ldr	r5, [pc, #72]	; (1000c5b4 <internal_event_post+0x4c>)
1000c56c:	682c      	ldr	r4, [r5, #0]
1000c56e:	2c00      	cmp	r4, #0
1000c570:	d014      	beq.n	1000c59c <internal_event_post+0x34>
1000c572:	6826      	ldr	r6, [r4, #0]
1000c574:	60e2      	str	r2, [r4, #12]
1000c576:	602e      	str	r6, [r5, #0]
1000c578:	2500      	movs	r5, #0
1000c57a:	4a0f      	ldr	r2, [pc, #60]	; (1000c5b8 <internal_event_post+0x50>)
1000c57c:	8123      	strh	r3, [r4, #8]
1000c57e:	6813      	ldr	r3, [r2, #0]
1000c580:	6025      	str	r5, [r4, #0]
1000c582:	80a0      	strh	r0, [r4, #4]
1000c584:	80e1      	strh	r1, [r4, #6]
1000c586:	42ab      	cmp	r3, r5
1000c588:	d101      	bne.n	1000c58e <internal_event_post+0x26>
1000c58a:	6014      	str	r4, [r2, #0]
1000c58c:	e011      	b.n	1000c5b2 <internal_event_post+0x4a>
1000c58e:	681a      	ldr	r2, [r3, #0]
1000c590:	2a00      	cmp	r2, #0
1000c592:	d001      	beq.n	1000c598 <internal_event_post+0x30>
1000c594:	1c13      	adds	r3, r2, #0
1000c596:	e7fa      	b.n	1000c58e <internal_event_post+0x26>
1000c598:	601c      	str	r4, [r3, #0]
1000c59a:	e00a      	b.n	1000c5b2 <internal_event_post+0x4a>
1000c59c:	b2c4      	uxtb	r4, r0
1000c59e:	2c00      	cmp	r4, #0
1000c5a0:	d107      	bne.n	1000c5b2 <internal_event_post+0x4a>
1000c5a2:	4c06      	ldr	r4, [pc, #24]	; (1000c5bc <internal_event_post+0x54>)
1000c5a4:	60e2      	str	r2, [r4, #12]
1000c5a6:	2201      	movs	r2, #1
1000c5a8:	8123      	strh	r3, [r4, #8]
1000c5aa:	4b05      	ldr	r3, [pc, #20]	; (1000c5c0 <internal_event_post+0x58>)
1000c5ac:	80a0      	strh	r0, [r4, #4]
1000c5ae:	80e1      	strh	r1, [r4, #6]
1000c5b0:	701a      	strb	r2, [r3, #0]
1000c5b2:	bd70      	pop	{r4, r5, r6, pc}
1000c5b4:	1001390c 	.word	0x1001390c
1000c5b8:	10013908 	.word	0x10013908
1000c5bc:	100138f4 	.word	0x100138f4
1000c5c0:	10013904 	.word	0x10013904

1000c5c4 <internal_event_init>:
1000c5c4:	b510      	push	{r4, lr}
1000c5c6:	4b08      	ldr	r3, [pc, #32]	; (1000c5e8 <internal_event_init+0x24>)
1000c5c8:	0900      	lsrs	r0, r0, #4
1000c5ca:	0100      	lsls	r0, r0, #4
1000c5cc:	681a      	ldr	r2, [r3, #0]
1000c5ce:	1808      	adds	r0, r1, r0
1000c5d0:	4281      	cmp	r1, r0
1000c5d2:	d003      	beq.n	1000c5dc <internal_event_init+0x18>
1000c5d4:	600a      	str	r2, [r1, #0]
1000c5d6:	1c0a      	adds	r2, r1, #0
1000c5d8:	3110      	adds	r1, #16
1000c5da:	e7f9      	b.n	1000c5d0 <internal_event_init+0xc>
1000c5dc:	601a      	str	r2, [r3, #0]
1000c5de:	2200      	movs	r2, #0
1000c5e0:	4b02      	ldr	r3, [pc, #8]	; (1000c5ec <internal_event_init+0x28>)
1000c5e2:	601a      	str	r2, [r3, #0]
1000c5e4:	bd10      	pop	{r4, pc}
1000c5e6:	46c0      	nop			; (mov r8, r8)
1000c5e8:	1001390c 	.word	0x1001390c
1000c5ec:	10013908 	.word	0x10013908

1000c5f0 <special_events_handler>:
1000c5f0:	b538      	push	{r3, r4, r5, lr}
1000c5f2:	4c1b      	ldr	r4, [pc, #108]	; (1000c660 <special_events_handler+0x70>)
1000c5f4:	1c03      	adds	r3, r0, #0
1000c5f6:	8825      	ldrh	r5, [r4, #0]
1000c5f8:	1c08      	adds	r0, r1, #0
1000c5fa:	1c21      	adds	r1, r4, #0
1000c5fc:	429d      	cmp	r5, r3
1000c5fe:	d107      	bne.n	1000c610 <special_events_handler+0x20>
1000c600:	88a5      	ldrh	r5, [r4, #4]
1000c602:	4285      	cmp	r5, r0
1000c604:	d104      	bne.n	1000c610 <special_events_handler+0x20>
1000c606:	2301      	movs	r3, #1
1000c608:	425b      	negs	r3, r3
1000c60a:	8023      	strh	r3, [r4, #0]
1000c60c:	60a2      	str	r2, [r4, #8]
1000c60e:	e009      	b.n	1000c624 <special_events_handler+0x34>
1000c610:	884c      	ldrh	r4, [r1, #2]
1000c612:	429c      	cmp	r4, r3
1000c614:	d10a      	bne.n	1000c62c <special_events_handler+0x3c>
1000c616:	888c      	ldrh	r4, [r1, #4]
1000c618:	4284      	cmp	r4, r0
1000c61a:	d107      	bne.n	1000c62c <special_events_handler+0x3c>
1000c61c:	2301      	movs	r3, #1
1000c61e:	425b      	negs	r3, r3
1000c620:	804b      	strh	r3, [r1, #2]
1000c622:	608a      	str	r2, [r1, #8]
1000c624:	4b0f      	ldr	r3, [pc, #60]	; (1000c664 <special_events_handler+0x74>)
1000c626:	4798      	blx	r3
1000c628:	2001      	movs	r0, #1
1000c62a:	e017      	b.n	1000c65c <special_events_handler+0x6c>
1000c62c:	490e      	ldr	r1, [pc, #56]	; (1000c668 <special_events_handler+0x78>)
1000c62e:	428b      	cmp	r3, r1
1000c630:	d00e      	beq.n	1000c650 <special_events_handler+0x60>
1000c632:	490e      	ldr	r1, [pc, #56]	; (1000c66c <special_events_handler+0x7c>)
1000c634:	428b      	cmp	r3, r1
1000c636:	d007      	beq.n	1000c648 <special_events_handler+0x58>
1000c638:	490d      	ldr	r1, [pc, #52]	; (1000c670 <special_events_handler+0x80>)
1000c63a:	2000      	movs	r0, #0
1000c63c:	428b      	cmp	r3, r1
1000c63e:	d10d      	bne.n	1000c65c <special_events_handler+0x6c>
1000c640:	1c10      	adds	r0, r2, #0
1000c642:	4b0c      	ldr	r3, [pc, #48]	; (1000c674 <special_events_handler+0x84>)
1000c644:	4798      	blx	r3
1000c646:	e7ef      	b.n	1000c628 <special_events_handler+0x38>
1000c648:	1c11      	adds	r1, r2, #0
1000c64a:	4b0b      	ldr	r3, [pc, #44]	; (1000c678 <special_events_handler+0x88>)
1000c64c:	2200      	movs	r2, #0
1000c64e:	e002      	b.n	1000c656 <special_events_handler+0x66>
1000c650:	1c11      	adds	r1, r2, #0
1000c652:	2200      	movs	r2, #0
1000c654:	4b09      	ldr	r3, [pc, #36]	; (1000c67c <special_events_handler+0x8c>)
1000c656:	4798      	blx	r3
1000c658:	4243      	negs	r3, r0
1000c65a:	4158      	adcs	r0, r3
1000c65c:	bd38      	pop	{r3, r4, r5, pc}
1000c65e:	46c0      	nop			; (mov r8, r8)
1000c660:	10014754 	.word	0x10014754
1000c664:	1000e04d 	.word	0x1000e04d
1000c668:	00000e13 	.word	0x00000e13
1000c66c:	00000e15 	.word	0x00000e15
1000c670:	00000e01 	.word	0x00000e01
1000c674:	1000e3bd 	.word	0x1000e3bd
1000c678:	1000e57d 	.word	0x1000e57d
1000c67c:	1000e655 	.word	0x1000e655

1000c680 <at_ble_event_get>:
1000c680:	2300      	movs	r3, #0
1000c682:	b5f0      	push	{r4, r5, r6, r7, lr}
1000c684:	b087      	sub	sp, #28
1000c686:	9204      	str	r2, [sp, #16]
1000c688:	7003      	strb	r3, [r0, #0]
1000c68a:	9b04      	ldr	r3, [sp, #16]
1000c68c:	9003      	str	r0, [sp, #12]
1000c68e:	3b01      	subs	r3, #1
1000c690:	1c0d      	adds	r5, r1, #0
1000c692:	9305      	str	r3, [sp, #20]
1000c694:	3303      	adds	r3, #3
1000c696:	d802      	bhi.n	1000c69e <at_ble_event_get+0x1e>
1000c698:	9804      	ldr	r0, [sp, #16]
1000c69a:	4bae      	ldr	r3, [pc, #696]	; (1000c954 <at_ble_event_get+0x2d4>)
1000c69c:	4798      	blx	r3
1000c69e:	9b05      	ldr	r3, [sp, #20]
1000c6a0:	4cad      	ldr	r4, [pc, #692]	; (1000c958 <at_ble_event_get+0x2d8>)
1000c6a2:	3303      	adds	r3, #3
1000c6a4:	d902      	bls.n	1000c6ac <at_ble_event_get+0x2c>
1000c6a6:	2300      	movs	r3, #0
1000c6a8:	9302      	str	r3, [sp, #8]
1000c6aa:	e015      	b.n	1000c6d8 <at_ble_event_get+0x58>
1000c6ac:	2300      	movs	r3, #0
1000c6ae:	9302      	str	r3, [sp, #8]
1000c6b0:	6823      	ldr	r3, [r4, #0]
1000c6b2:	2b00      	cmp	r3, #0
1000c6b4:	d113      	bne.n	1000c6de <at_ble_event_get+0x5e>
1000c6b6:	9b02      	ldr	r3, [sp, #8]
1000c6b8:	2bd0      	cmp	r3, #208	; 0xd0
1000c6ba:	d100      	bne.n	1000c6be <at_ble_event_get+0x3e>
1000c6bc:	e2da      	b.n	1000cc74 <at_ble_event_get+0x5f4>
1000c6be:	9804      	ldr	r0, [sp, #16]
1000c6c0:	4ba6      	ldr	r3, [pc, #664]	; (1000c95c <at_ble_event_get+0x2dc>)
1000c6c2:	4798      	blx	r3
1000c6c4:	9002      	str	r0, [sp, #8]
1000c6c6:	2802      	cmp	r0, #2
1000c6c8:	d1f2      	bne.n	1000c6b0 <at_ble_event_get+0x30>
1000c6ca:	e03f      	b.n	1000c74c <at_ble_event_get+0xcc>
1000c6cc:	9804      	ldr	r0, [sp, #16]
1000c6ce:	4ba3      	ldr	r3, [pc, #652]	; (1000c95c <at_ble_event_get+0x2dc>)
1000c6d0:	4798      	blx	r3
1000c6d2:	9002      	str	r0, [sp, #8]
1000c6d4:	2802      	cmp	r0, #2
1000c6d6:	d039      	beq.n	1000c74c <at_ble_event_get+0xcc>
1000c6d8:	6823      	ldr	r3, [r4, #0]
1000c6da:	2b00      	cmp	r3, #0
1000c6dc:	d0f6      	beq.n	1000c6cc <at_ble_event_get+0x4c>
1000c6de:	9b02      	ldr	r3, [sp, #8]
1000c6e0:	2bd0      	cmp	r3, #208	; 0xd0
1000c6e2:	d100      	bne.n	1000c6e6 <at_ble_event_get+0x66>
1000c6e4:	e2c6      	b.n	1000cc74 <at_ble_event_get+0x5f4>
1000c6e6:	9b02      	ldr	r3, [sp, #8]
1000c6e8:	3b03      	subs	r3, #3
1000c6ea:	1e5a      	subs	r2, r3, #1
1000c6ec:	4193      	sbcs	r3, r2
1000c6ee:	9a02      	ldr	r2, [sp, #8]
1000c6f0:	425b      	negs	r3, r3
1000c6f2:	401a      	ands	r2, r3
1000c6f4:	6823      	ldr	r3, [r4, #0]
1000c6f6:	9202      	str	r2, [sp, #8]
1000c6f8:	2b00      	cmp	r3, #0
1000c6fa:	d100      	bne.n	1000c6fe <at_ble_event_get+0x7e>
1000c6fc:	e2c2      	b.n	1000cc84 <at_ble_event_get+0x604>
1000c6fe:	681a      	ldr	r2, [r3, #0]
1000c700:	68de      	ldr	r6, [r3, #12]
1000c702:	6022      	str	r2, [r4, #0]
1000c704:	88da      	ldrh	r2, [r3, #6]
1000c706:	9201      	str	r2, [sp, #4]
1000c708:	4a95      	ldr	r2, [pc, #596]	; (1000c960 <at_ble_event_get+0x2e0>)
1000c70a:	889c      	ldrh	r4, [r3, #4]
1000c70c:	6811      	ldr	r1, [r2, #0]
1000c70e:	6013      	str	r3, [r2, #0]
1000c710:	6019      	str	r1, [r3, #0]
1000c712:	4b94      	ldr	r3, [pc, #592]	; (1000c964 <at_ble_event_get+0x2e4>)
1000c714:	781b      	ldrb	r3, [r3, #0]
1000c716:	2b01      	cmp	r3, #1
1000c718:	d10f      	bne.n	1000c73a <at_ble_event_get+0xba>
1000c71a:	4b93      	ldr	r3, [pc, #588]	; (1000c968 <at_ble_event_get+0x2e8>)
1000c71c:	4a92      	ldr	r2, [pc, #584]	; (1000c968 <at_ble_event_get+0x2e8>)
1000c71e:	8898      	ldrh	r0, [r3, #4]
1000c720:	88d9      	ldrh	r1, [r3, #6]
1000c722:	68d2      	ldr	r2, [r2, #12]
1000c724:	891b      	ldrh	r3, [r3, #8]
1000c726:	4f91      	ldr	r7, [pc, #580]	; (1000c96c <at_ble_event_get+0x2ec>)
1000c728:	47b8      	blx	r7
1000c72a:	2210      	movs	r2, #16
1000c72c:	4b90      	ldr	r3, [pc, #576]	; (1000c970 <at_ble_event_get+0x2f0>)
1000c72e:	488e      	ldr	r0, [pc, #568]	; (1000c968 <at_ble_event_get+0x2e8>)
1000c730:	2100      	movs	r1, #0
1000c732:	4798      	blx	r3
1000c734:	2300      	movs	r3, #0
1000c736:	4a8b      	ldr	r2, [pc, #556]	; (1000c964 <at_ble_event_get+0x2e4>)
1000c738:	7013      	strb	r3, [r2, #0]
1000c73a:	9b02      	ldr	r3, [sp, #8]
1000c73c:	2b00      	cmp	r3, #0
1000c73e:	d114      	bne.n	1000c76a <at_ble_event_get+0xea>
1000c740:	4b8c      	ldr	r3, [pc, #560]	; (1000c974 <at_ble_event_get+0x2f4>)
1000c742:	429c      	cmp	r4, r3
1000c744:	d009      	beq.n	1000c75a <at_ble_event_get+0xda>
1000c746:	4b8c      	ldr	r3, [pc, #560]	; (1000c978 <at_ble_event_get+0x2f8>)
1000c748:	429c      	cmp	r4, r3
1000c74a:	d127      	bne.n	1000c79c <at_ble_event_get+0x11c>
1000c74c:	233a      	movs	r3, #58	; 0x3a
1000c74e:	9a03      	ldr	r2, [sp, #12]
1000c750:	7013      	strb	r3, [r2, #0]
1000c752:	2300      	movs	r3, #0
1000c754:	9302      	str	r3, [sp, #8]
1000c756:	1c1d      	adds	r5, r3, #0
1000c758:	e007      	b.n	1000c76a <at_ble_event_get+0xea>
1000c75a:	9b01      	ldr	r3, [sp, #4]
1000c75c:	42a3      	cmp	r3, r4
1000c75e:	d000      	beq.n	1000c762 <at_ble_event_get+0xe2>
1000c760:	e28a      	b.n	1000cc78 <at_ble_event_get+0x5f8>
1000c762:	2338      	movs	r3, #56	; 0x38
1000c764:	9a03      	ldr	r2, [sp, #12]
1000c766:	7013      	strb	r3, [r2, #0]
1000c768:	602e      	str	r6, [r5, #0]
1000c76a:	9b03      	ldr	r3, [sp, #12]
1000c76c:	781b      	ldrb	r3, [r3, #0]
1000c76e:	2b3b      	cmp	r3, #59	; 0x3b
1000c770:	d101      	bne.n	1000c776 <at_ble_event_get+0xf6>
1000c772:	4b82      	ldr	r3, [pc, #520]	; (1000c97c <at_ble_event_get+0x2fc>)
1000c774:	4798      	blx	r3
1000c776:	9b03      	ldr	r3, [sp, #12]
1000c778:	781b      	ldrb	r3, [r3, #0]
1000c77a:	2b3b      	cmp	r3, #59	; 0x3b
1000c77c:	d003      	beq.n	1000c786 <at_ble_event_get+0x106>
1000c77e:	9b05      	ldr	r3, [sp, #20]
1000c780:	3303      	adds	r3, #3
1000c782:	d904      	bls.n	1000c78e <at_ble_event_get+0x10e>
1000c784:	e283      	b.n	1000cc8e <at_ble_event_get+0x60e>
1000c786:	9b02      	ldr	r3, [sp, #8]
1000c788:	2b00      	cmp	r3, #0
1000c78a:	d088      	beq.n	1000c69e <at_ble_event_get+0x1e>
1000c78c:	e7f7      	b.n	1000c77e <at_ble_event_get+0xfe>
1000c78e:	9b02      	ldr	r3, [sp, #8]
1000c790:	2bd0      	cmp	r3, #208	; 0xd0
1000c792:	d100      	bne.n	1000c796 <at_ble_event_get+0x116>
1000c794:	e27b      	b.n	1000cc8e <at_ble_event_get+0x60e>
1000c796:	4b7a      	ldr	r3, [pc, #488]	; (1000c980 <at_ble_event_get+0x300>)
1000c798:	4798      	blx	r3
1000c79a:	e278      	b.n	1000cc8e <at_ble_event_get+0x60e>
1000c79c:	9b01      	ldr	r3, [sp, #4]
1000c79e:	2bbb      	cmp	r3, #187	; 0xbb
1000c7a0:	d125      	bne.n	1000c7ee <at_ble_event_get+0x16e>
1000c7a2:	2cbb      	cmp	r4, #187	; 0xbb
1000c7a4:	d123      	bne.n	1000c7ee <at_ble_event_get+0x16e>
1000c7a6:	466b      	mov	r3, sp
1000c7a8:	891b      	ldrh	r3, [r3, #8]
1000c7aa:	80ab      	strh	r3, [r5, #4]
1000c7ac:	78b3      	ldrb	r3, [r6, #2]
1000c7ae:	7872      	ldrb	r2, [r6, #1]
1000c7b0:	78f0      	ldrb	r0, [r6, #3]
1000c7b2:	021b      	lsls	r3, r3, #8
1000c7b4:	4313      	orrs	r3, r2
1000c7b6:	7971      	ldrb	r1, [r6, #5]
1000c7b8:	7932      	ldrb	r2, [r6, #4]
1000c7ba:	70a8      	strb	r0, [r5, #2]
1000c7bc:	4871      	ldr	r0, [pc, #452]	; (1000c984 <at_ble_event_get+0x304>)
1000c7be:	802b      	strh	r3, [r5, #0]
1000c7c0:	4283      	cmp	r3, r0
1000c7c2:	d806      	bhi.n	1000c7d2 <at_ble_event_get+0x152>
1000c7c4:	4a70      	ldr	r2, [pc, #448]	; (1000c988 <at_ble_event_get+0x308>)
1000c7c6:	4293      	cmp	r3, r2
1000c7c8:	d20b      	bcs.n	1000c7e2 <at_ble_event_get+0x162>
1000c7ca:	4a70      	ldr	r2, [pc, #448]	; (1000c98c <at_ble_event_get+0x30c>)
1000c7cc:	4293      	cmp	r3, r2
1000c7ce:	d008      	beq.n	1000c7e2 <at_ble_event_get+0x162>
1000c7d0:	e009      	b.n	1000c7e6 <at_ble_event_get+0x166>
1000c7d2:	486f      	ldr	r0, [pc, #444]	; (1000c990 <at_ble_event_get+0x310>)
1000c7d4:	4283      	cmp	r3, r0
1000c7d6:	d106      	bne.n	1000c7e6 <at_ble_event_get+0x166>
1000c7d8:	020b      	lsls	r3, r1, #8
1000c7da:	4313      	orrs	r3, r2
1000c7dc:	80ab      	strh	r3, [r5, #4]
1000c7de:	2337      	movs	r3, #55	; 0x37
1000c7e0:	e002      	b.n	1000c7e8 <at_ble_event_get+0x168>
1000c7e2:	2336      	movs	r3, #54	; 0x36
1000c7e4:	e000      	b.n	1000c7e8 <at_ble_event_get+0x168>
1000c7e6:	2300      	movs	r3, #0
1000c7e8:	9a03      	ldr	r2, [sp, #12]
1000c7ea:	7013      	strb	r3, [r2, #0]
1000c7ec:	e7bd      	b.n	1000c76a <at_ble_event_get+0xea>
1000c7ee:	4b69      	ldr	r3, [pc, #420]	; (1000c994 <at_ble_event_get+0x314>)
1000c7f0:	429c      	cmp	r4, r3
1000c7f2:	d100      	bne.n	1000c7f6 <at_ble_event_get+0x176>
1000c7f4:	e144      	b.n	1000ca80 <at_ble_event_get+0x400>
1000c7f6:	d865      	bhi.n	1000c8c4 <at_ble_event_get+0x244>
1000c7f8:	4b67      	ldr	r3, [pc, #412]	; (1000c998 <at_ble_event_get+0x318>)
1000c7fa:	429c      	cmp	r4, r3
1000c7fc:	d100      	bne.n	1000c800 <at_ble_event_get+0x180>
1000c7fe:	e1d5      	b.n	1000cbac <at_ble_event_get+0x52c>
1000c800:	d82f      	bhi.n	1000c862 <at_ble_event_get+0x1e2>
1000c802:	4b66      	ldr	r3, [pc, #408]	; (1000c99c <at_ble_event_get+0x31c>)
1000c804:	429c      	cmp	r4, r3
1000c806:	d100      	bne.n	1000c80a <at_ble_event_get+0x18a>
1000c808:	e1e0      	b.n	1000cbcc <at_ble_event_get+0x54c>
1000c80a:	d813      	bhi.n	1000c834 <at_ble_event_get+0x1b4>
1000c80c:	4b64      	ldr	r3, [pc, #400]	; (1000c9a0 <at_ble_event_get+0x320>)
1000c80e:	429c      	cmp	r4, r3
1000c810:	d100      	bne.n	1000c814 <at_ble_event_get+0x194>
1000c812:	e1a3      	b.n	1000cb5c <at_ble_event_get+0x4dc>
1000c814:	d804      	bhi.n	1000c820 <at_ble_event_get+0x1a0>
1000c816:	2638      	movs	r6, #56	; 0x38
1000c818:	42b4      	cmp	r4, r6
1000c81a:	d100      	bne.n	1000c81e <at_ble_event_get+0x19e>
1000c81c:	e225      	b.n	1000cc6a <at_ble_event_get+0x5ea>
1000c81e:	e117      	b.n	1000ca50 <at_ble_event_get+0x3d0>
1000c820:	4b60      	ldr	r3, [pc, #384]	; (1000c9a4 <at_ble_event_get+0x324>)
1000c822:	429c      	cmp	r4, r3
1000c824:	d100      	bne.n	1000c828 <at_ble_event_get+0x1a8>
1000c826:	e19f      	b.n	1000cb68 <at_ble_event_get+0x4e8>
1000c828:	33fe      	adds	r3, #254	; 0xfe
1000c82a:	33ff      	adds	r3, #255	; 0xff
1000c82c:	429c      	cmp	r4, r3
1000c82e:	d100      	bne.n	1000c832 <at_ble_event_get+0x1b2>
1000c830:	e1d3      	b.n	1000cbda <at_ble_event_get+0x55a>
1000c832:	e10d      	b.n	1000ca50 <at_ble_event_get+0x3d0>
1000c834:	4b5c      	ldr	r3, [pc, #368]	; (1000c9a8 <at_ble_event_get+0x328>)
1000c836:	429c      	cmp	r4, r3
1000c838:	d100      	bne.n	1000c83c <at_ble_event_get+0x1bc>
1000c83a:	e1a9      	b.n	1000cb90 <at_ble_event_get+0x510>
1000c83c:	d808      	bhi.n	1000c850 <at_ble_event_get+0x1d0>
1000c83e:	4b5b      	ldr	r3, [pc, #364]	; (1000c9ac <at_ble_event_get+0x32c>)
1000c840:	429c      	cmp	r4, r3
1000c842:	d100      	bne.n	1000c846 <at_ble_event_get+0x1c6>
1000c844:	e196      	b.n	1000cb74 <at_ble_event_get+0x4f4>
1000c846:	4b5a      	ldr	r3, [pc, #360]	; (1000c9b0 <at_ble_event_get+0x330>)
1000c848:	429c      	cmp	r4, r3
1000c84a:	d100      	bne.n	1000c84e <at_ble_event_get+0x1ce>
1000c84c:	e199      	b.n	1000cb82 <at_ble_event_get+0x502>
1000c84e:	e0ff      	b.n	1000ca50 <at_ble_event_get+0x3d0>
1000c850:	4b58      	ldr	r3, [pc, #352]	; (1000c9b4 <at_ble_event_get+0x334>)
1000c852:	429c      	cmp	r4, r3
1000c854:	d100      	bne.n	1000c858 <at_ble_event_get+0x1d8>
1000c856:	e1a2      	b.n	1000cb9e <at_ble_event_get+0x51e>
1000c858:	4b57      	ldr	r3, [pc, #348]	; (1000c9b8 <at_ble_event_get+0x338>)
1000c85a:	429c      	cmp	r4, r3
1000c85c:	d100      	bne.n	1000c860 <at_ble_event_get+0x1e0>
1000c85e:	e1d4      	b.n	1000cc0a <at_ble_event_get+0x58a>
1000c860:	e0f6      	b.n	1000ca50 <at_ble_event_get+0x3d0>
1000c862:	4b56      	ldr	r3, [pc, #344]	; (1000c9bc <at_ble_event_get+0x33c>)
1000c864:	429c      	cmp	r4, r3
1000c866:	d100      	bne.n	1000c86a <at_ble_event_get+0x1ea>
1000c868:	e1c8      	b.n	1000cbfc <at_ble_event_get+0x57c>
1000c86a:	d812      	bhi.n	1000c892 <at_ble_event_get+0x212>
1000c86c:	4b54      	ldr	r3, [pc, #336]	; (1000c9c0 <at_ble_event_get+0x340>)
1000c86e:	429c      	cmp	r4, r3
1000c870:	d100      	bne.n	1000c874 <at_ble_event_get+0x1f4>
1000c872:	e1d1      	b.n	1000cc18 <at_ble_event_get+0x598>
1000c874:	d804      	bhi.n	1000c880 <at_ble_event_get+0x200>
1000c876:	4b53      	ldr	r3, [pc, #332]	; (1000c9c4 <at_ble_event_get+0x344>)
1000c878:	429c      	cmp	r4, r3
1000c87a:	d100      	bne.n	1000c87e <at_ble_event_get+0x1fe>
1000c87c:	e19b      	b.n	1000cbb6 <at_ble_event_get+0x536>
1000c87e:	e0e7      	b.n	1000ca50 <at_ble_event_get+0x3d0>
1000c880:	4b51      	ldr	r3, [pc, #324]	; (1000c9c8 <at_ble_event_get+0x348>)
1000c882:	429c      	cmp	r4, r3
1000c884:	d100      	bne.n	1000c888 <at_ble_event_get+0x208>
1000c886:	e1ad      	b.n	1000cbe4 <at_ble_event_get+0x564>
1000c888:	4b50      	ldr	r3, [pc, #320]	; (1000c9cc <at_ble_event_get+0x34c>)
1000c88a:	429c      	cmp	r4, r3
1000c88c:	d100      	bne.n	1000c890 <at_ble_event_get+0x210>
1000c88e:	e1b0      	b.n	1000cbf2 <at_ble_event_get+0x572>
1000c890:	e0de      	b.n	1000ca50 <at_ble_event_get+0x3d0>
1000c892:	4b4f      	ldr	r3, [pc, #316]	; (1000c9d0 <at_ble_event_get+0x350>)
1000c894:	429c      	cmp	r4, r3
1000c896:	d100      	bne.n	1000c89a <at_ble_event_get+0x21a>
1000c898:	e0e0      	b.n	1000ca5c <at_ble_event_get+0x3dc>
1000c89a:	d809      	bhi.n	1000c8b0 <at_ble_event_get+0x230>
1000c89c:	3b08      	subs	r3, #8
1000c89e:	429c      	cmp	r4, r3
1000c8a0:	d100      	bne.n	1000c8a4 <at_ble_event_get+0x224>
1000c8a2:	e0d7      	b.n	1000ca54 <at_ble_event_get+0x3d4>
1000c8a4:	4b4b      	ldr	r3, [pc, #300]	; (1000c9d4 <at_ble_event_get+0x354>)
1000c8a6:	2639      	movs	r6, #57	; 0x39
1000c8a8:	429c      	cmp	r4, r3
1000c8aa:	d100      	bne.n	1000c8ae <at_ble_event_get+0x22e>
1000c8ac:	e1dd      	b.n	1000cc6a <at_ble_event_get+0x5ea>
1000c8ae:	e0cf      	b.n	1000ca50 <at_ble_event_get+0x3d0>
1000c8b0:	23d1      	movs	r3, #209	; 0xd1
1000c8b2:	011b      	lsls	r3, r3, #4
1000c8b4:	429c      	cmp	r4, r3
1000c8b6:	d100      	bne.n	1000c8ba <at_ble_event_get+0x23a>
1000c8b8:	e0d6      	b.n	1000ca68 <at_ble_event_get+0x3e8>
1000c8ba:	4b47      	ldr	r3, [pc, #284]	; (1000c9d8 <at_ble_event_get+0x358>)
1000c8bc:	429c      	cmp	r4, r3
1000c8be:	d100      	bne.n	1000c8c2 <at_ble_event_get+0x242>
1000c8c0:	e0d8      	b.n	1000ca74 <at_ble_event_get+0x3f4>
1000c8c2:	e0c5      	b.n	1000ca50 <at_ble_event_get+0x3d0>
1000c8c4:	4b45      	ldr	r3, [pc, #276]	; (1000c9dc <at_ble_event_get+0x35c>)
1000c8c6:	429c      	cmp	r4, r3
1000c8c8:	d100      	bne.n	1000c8cc <at_ble_event_get+0x24c>
1000c8ca:	e117      	b.n	1000cafc <at_ble_event_get+0x47c>
1000c8cc:	d82e      	bhi.n	1000c92c <at_ble_event_get+0x2ac>
1000c8ce:	4b44      	ldr	r3, [pc, #272]	; (1000c9e0 <at_ble_event_get+0x360>)
1000c8d0:	429c      	cmp	r4, r3
1000c8d2:	d100      	bne.n	1000c8d6 <at_ble_event_get+0x256>
1000c8d4:	e13d      	b.n	1000cb52 <at_ble_event_get+0x4d2>
1000c8d6:	d812      	bhi.n	1000c8fe <at_ble_event_get+0x27e>
1000c8d8:	4b42      	ldr	r3, [pc, #264]	; (1000c9e4 <at_ble_event_get+0x364>)
1000c8da:	429c      	cmp	r4, r3
1000c8dc:	d100      	bne.n	1000c8e0 <at_ble_event_get+0x260>
1000c8de:	e0e8      	b.n	1000cab2 <at_ble_event_get+0x432>
1000c8e0:	d804      	bhi.n	1000c8ec <at_ble_event_get+0x26c>
1000c8e2:	3b03      	subs	r3, #3
1000c8e4:	429c      	cmp	r4, r3
1000c8e6:	d100      	bne.n	1000c8ea <at_ble_event_get+0x26a>
1000c8e8:	e0d0      	b.n	1000ca8c <at_ble_event_get+0x40c>
1000c8ea:	e0b1      	b.n	1000ca50 <at_ble_event_get+0x3d0>
1000c8ec:	4b3e      	ldr	r3, [pc, #248]	; (1000c9e8 <at_ble_event_get+0x368>)
1000c8ee:	429c      	cmp	r4, r3
1000c8f0:	d100      	bne.n	1000c8f4 <at_ble_event_get+0x274>
1000c8f2:	e0d0      	b.n	1000ca96 <at_ble_event_get+0x416>
1000c8f4:	4b3d      	ldr	r3, [pc, #244]	; (1000c9ec <at_ble_event_get+0x36c>)
1000c8f6:	429c      	cmp	r4, r3
1000c8f8:	d100      	bne.n	1000c8fc <at_ble_event_get+0x27c>
1000c8fa:	e0f9      	b.n	1000caf0 <at_ble_event_get+0x470>
1000c8fc:	e0a8      	b.n	1000ca50 <at_ble_event_get+0x3d0>
1000c8fe:	4b3c      	ldr	r3, [pc, #240]	; (1000c9f0 <at_ble_event_get+0x370>)
1000c900:	429c      	cmp	r4, r3
1000c902:	d100      	bne.n	1000c906 <at_ble_event_get+0x286>
1000c904:	e0db      	b.n	1000cabe <at_ble_event_get+0x43e>
1000c906:	d808      	bhi.n	1000c91a <at_ble_event_get+0x29a>
1000c908:	4b3a      	ldr	r3, [pc, #232]	; (1000c9f4 <at_ble_event_get+0x374>)
1000c90a:	429c      	cmp	r4, r3
1000c90c:	d100      	bne.n	1000c910 <at_ble_event_get+0x290>
1000c90e:	e11b      	b.n	1000cb48 <at_ble_event_get+0x4c8>
1000c910:	4b39      	ldr	r3, [pc, #228]	; (1000c9f8 <at_ble_event_get+0x378>)
1000c912:	429c      	cmp	r4, r3
1000c914:	d100      	bne.n	1000c918 <at_ble_event_get+0x298>
1000c916:	e0d8      	b.n	1000caca <at_ble_event_get+0x44a>
1000c918:	e09a      	b.n	1000ca50 <at_ble_event_get+0x3d0>
1000c91a:	4b38      	ldr	r3, [pc, #224]	; (1000c9fc <at_ble_event_get+0x37c>)
1000c91c:	429c      	cmp	r4, r3
1000c91e:	d100      	bne.n	1000c922 <at_ble_event_get+0x2a2>
1000c920:	e0d8      	b.n	1000cad4 <at_ble_event_get+0x454>
1000c922:	4b37      	ldr	r3, [pc, #220]	; (1000ca00 <at_ble_event_get+0x380>)
1000c924:	429c      	cmp	r4, r3
1000c926:	d100      	bne.n	1000c92a <at_ble_event_get+0x2aa>
1000c928:	e0db      	b.n	1000cae2 <at_ble_event_get+0x462>
1000c92a:	e091      	b.n	1000ca50 <at_ble_event_get+0x3d0>
1000c92c:	4b35      	ldr	r3, [pc, #212]	; (1000ca04 <at_ble_event_get+0x384>)
1000c92e:	429c      	cmp	r4, r3
1000c930:	d100      	bne.n	1000c934 <at_ble_event_get+0x2b4>
1000c932:	e0f7      	b.n	1000cb24 <at_ble_event_get+0x4a4>
1000c934:	d876      	bhi.n	1000ca24 <at_ble_event_get+0x3a4>
1000c936:	4b34      	ldr	r3, [pc, #208]	; (1000ca08 <at_ble_event_get+0x388>)
1000c938:	429c      	cmp	r4, r3
1000c93a:	d100      	bne.n	1000c93e <at_ble_event_get+0x2be>
1000c93c:	e0f8      	b.n	1000cb30 <at_ble_event_get+0x4b0>
1000c93e:	d869      	bhi.n	1000ca14 <at_ble_event_get+0x394>
1000c940:	4b32      	ldr	r3, [pc, #200]	; (1000ca0c <at_ble_event_get+0x38c>)
1000c942:	429c      	cmp	r4, r3
1000c944:	d100      	bne.n	1000c948 <at_ble_event_get+0x2c8>
1000c946:	e0e0      	b.n	1000cb0a <at_ble_event_get+0x48a>
1000c948:	4b31      	ldr	r3, [pc, #196]	; (1000ca10 <at_ble_event_get+0x390>)
1000c94a:	429c      	cmp	r4, r3
1000c94c:	d100      	bne.n	1000c950 <at_ble_event_get+0x2d0>
1000c94e:	e0a9      	b.n	1000caa4 <at_ble_event_get+0x424>
1000c950:	e07e      	b.n	1000ca50 <at_ble_event_get+0x3d0>
1000c952:	46c0      	nop			; (mov r8, r8)
1000c954:	1000e085 	.word	0x1000e085
1000c958:	10013908 	.word	0x10013908
1000c95c:	1000bdb1 	.word	0x1000bdb1
1000c960:	1001390c 	.word	0x1001390c
1000c964:	10013904 	.word	0x10013904
1000c968:	100138f4 	.word	0x100138f4
1000c96c:	1000c569 	.word	0x1000c569
1000c970:	10010b49 	.word	0x10010b49
1000c974:	0000ffff 	.word	0x0000ffff
1000c978:	0000fffe 	.word	0x0000fffe
1000c97c:	1000bfc5 	.word	0x1000bfc5
1000c980:	1000e087 	.word	0x1000e087
1000c984:	0000201e 	.word	0x0000201e
1000c988:	0000201d 	.word	0x0000201d
1000c98c:	00000c03 	.word	0x00000c03
1000c990:	0000201f 	.word	0x0000201f
1000c994:	00000d1c 	.word	0x00000d1c
1000c998:	00000c0c 	.word	0x00000c0c
1000c99c:	00000c02 	.word	0x00000c02
1000c9a0:	00000a02 	.word	0x00000a02
1000c9a4:	00000a03 	.word	0x00000a03
1000c9a8:	00000c06 	.word	0x00000c06
1000c9ac:	00000c04 	.word	0x00000c04
1000c9b0:	00000c05 	.word	0x00000c05
1000c9b4:	00000c07 	.word	0x00000c07
1000c9b8:	00000c09 	.word	0x00000c09
1000c9bc:	00000c17 	.word	0x00000c17
1000c9c0:	00000c12 	.word	0x00000c12
1000c9c4:	00000c0d 	.word	0x00000c0d
1000c9c8:	00000c13 	.word	0x00000c13
1000c9cc:	00000c15 	.word	0x00000c15
1000c9d0:	00000d08 	.word	0x00000d08
1000c9d4:	00000d01 	.word	0x00000d01
1000c9d8:	00000d15 	.word	0x00000d15
1000c9dc:	00000e1b 	.word	0x00000e1b
1000c9e0:	00000e0f 	.word	0x00000e0f
1000c9e4:	00000e03 	.word	0x00000e03
1000c9e8:	00000e06 	.word	0x00000e06
1000c9ec:	00000e0a 	.word	0x00000e0a
1000c9f0:	00000e15 	.word	0x00000e15
1000c9f4:	00000e11 	.word	0x00000e11
1000c9f8:	00000e13 	.word	0x00000e13
1000c9fc:	00000e17 	.word	0x00000e17
1000ca00:	00000e19 	.word	0x00000e19
1000ca04:	00000e27 	.word	0x00000e27
1000ca08:	00000e21 	.word	0x00000e21
1000ca0c:	00000e1c 	.word	0x00000e1c
1000ca10:	00000e1d 	.word	0x00000e1d
1000ca14:	4b9f      	ldr	r3, [pc, #636]	; (1000cc94 <at_ble_event_get+0x614>)
1000ca16:	429c      	cmp	r4, r3
1000ca18:	d07e      	beq.n	1000cb18 <at_ble_event_get+0x498>
1000ca1a:	4b9f      	ldr	r3, [pc, #636]	; (1000cc98 <at_ble_event_get+0x618>)
1000ca1c:	429c      	cmp	r4, r3
1000ca1e:	d100      	bne.n	1000ca22 <at_ble_event_get+0x3a2>
1000ca20:	e08c      	b.n	1000cb3c <at_ble_event_get+0x4bc>
1000ca22:	e015      	b.n	1000ca50 <at_ble_event_get+0x3d0>
1000ca24:	4b9d      	ldr	r3, [pc, #628]	; (1000cc9c <at_ble_event_get+0x61c>)
1000ca26:	429c      	cmp	r4, r3
1000ca28:	d100      	bne.n	1000ca2c <at_ble_event_get+0x3ac>
1000ca2a:	e10a      	b.n	1000cc42 <at_ble_event_get+0x5c2>
1000ca2c:	d808      	bhi.n	1000ca40 <at_ble_event_get+0x3c0>
1000ca2e:	4b9c      	ldr	r3, [pc, #624]	; (1000cca0 <at_ble_event_get+0x620>)
1000ca30:	429c      	cmp	r4, r3
1000ca32:	d100      	bne.n	1000ca36 <at_ble_event_get+0x3b6>
1000ca34:	e0f7      	b.n	1000cc26 <at_ble_event_get+0x5a6>
1000ca36:	4b9b      	ldr	r3, [pc, #620]	; (1000cca4 <at_ble_event_get+0x624>)
1000ca38:	429c      	cmp	r4, r3
1000ca3a:	d100      	bne.n	1000ca3e <at_ble_event_get+0x3be>
1000ca3c:	e0fa      	b.n	1000cc34 <at_ble_event_get+0x5b4>
1000ca3e:	e007      	b.n	1000ca50 <at_ble_event_get+0x3d0>
1000ca40:	4b99      	ldr	r3, [pc, #612]	; (1000cca8 <at_ble_event_get+0x628>)
1000ca42:	429c      	cmp	r4, r3
1000ca44:	d100      	bne.n	1000ca48 <at_ble_event_get+0x3c8>
1000ca46:	e103      	b.n	1000cc50 <at_ble_event_get+0x5d0>
1000ca48:	4b98      	ldr	r3, [pc, #608]	; (1000ccac <at_ble_event_get+0x62c>)
1000ca4a:	429c      	cmp	r4, r3
1000ca4c:	d100      	bne.n	1000ca50 <at_ble_event_get+0x3d0>
1000ca4e:	e106      	b.n	1000cc5e <at_ble_event_get+0x5de>
1000ca50:	2600      	movs	r6, #0
1000ca52:	e10a      	b.n	1000cc6a <at_ble_event_get+0x5ea>
1000ca54:	1c30      	adds	r0, r6, #0
1000ca56:	1c29      	adds	r1, r5, #0
1000ca58:	4b95      	ldr	r3, [pc, #596]	; (1000ccb0 <at_ble_event_get+0x630>)
1000ca5a:	e014      	b.n	1000ca86 <at_ble_event_get+0x406>
1000ca5c:	1c30      	adds	r0, r6, #0
1000ca5e:	1c29      	adds	r1, r5, #0
1000ca60:	4b94      	ldr	r3, [pc, #592]	; (1000ccb4 <at_ble_event_get+0x634>)
1000ca62:	4798      	blx	r3
1000ca64:	2604      	movs	r6, #4
1000ca66:	e100      	b.n	1000cc6a <at_ble_event_get+0x5ea>
1000ca68:	1c30      	adds	r0, r6, #0
1000ca6a:	1c29      	adds	r1, r5, #0
1000ca6c:	4b92      	ldr	r3, [pc, #584]	; (1000ccb8 <at_ble_event_get+0x638>)
1000ca6e:	4798      	blx	r3
1000ca70:	2601      	movs	r6, #1
1000ca72:	e0fa      	b.n	1000cc6a <at_ble_event_get+0x5ea>
1000ca74:	1c30      	adds	r0, r6, #0
1000ca76:	1c29      	adds	r1, r5, #0
1000ca78:	4b90      	ldr	r3, [pc, #576]	; (1000ccbc <at_ble_event_get+0x63c>)
1000ca7a:	4798      	blx	r3
1000ca7c:	260f      	movs	r6, #15
1000ca7e:	e0f4      	b.n	1000cc6a <at_ble_event_get+0x5ea>
1000ca80:	1c30      	adds	r0, r6, #0
1000ca82:	1c29      	adds	r1, r5, #0
1000ca84:	4b8e      	ldr	r3, [pc, #568]	; (1000ccc0 <at_ble_event_get+0x640>)
1000ca86:	4798      	blx	r3
1000ca88:	1c06      	adds	r6, r0, #0
1000ca8a:	e0ee      	b.n	1000cc6a <at_ble_event_get+0x5ea>
1000ca8c:	9801      	ldr	r0, [sp, #4]
1000ca8e:	1c31      	adds	r1, r6, #0
1000ca90:	1c2a      	adds	r2, r5, #0
1000ca92:	4b8c      	ldr	r3, [pc, #560]	; (1000ccc4 <at_ble_event_get+0x644>)
1000ca94:	e017      	b.n	1000cac6 <at_ble_event_get+0x446>
1000ca96:	1c31      	adds	r1, r6, #0
1000ca98:	9801      	ldr	r0, [sp, #4]
1000ca9a:	1c2a      	adds	r2, r5, #0
1000ca9c:	4b8a      	ldr	r3, [pc, #552]	; (1000ccc8 <at_ble_event_get+0x648>)
1000ca9e:	4798      	blx	r3
1000caa0:	2611      	movs	r6, #17
1000caa2:	e0e2      	b.n	1000cc6a <at_ble_event_get+0x5ea>
1000caa4:	1c31      	adds	r1, r6, #0
1000caa6:	9801      	ldr	r0, [sp, #4]
1000caa8:	1c2a      	adds	r2, r5, #0
1000caaa:	4b88      	ldr	r3, [pc, #544]	; (1000cccc <at_ble_event_get+0x64c>)
1000caac:	4798      	blx	r3
1000caae:	2612      	movs	r6, #18
1000cab0:	e0db      	b.n	1000cc6a <at_ble_event_get+0x5ea>
1000cab2:	1c30      	adds	r0, r6, #0
1000cab4:	1c29      	adds	r1, r5, #0
1000cab6:	4b86      	ldr	r3, [pc, #536]	; (1000ccd0 <at_ble_event_get+0x650>)
1000cab8:	4798      	blx	r3
1000caba:	2606      	movs	r6, #6
1000cabc:	e0d5      	b.n	1000cc6a <at_ble_event_get+0x5ea>
1000cabe:	1c31      	adds	r1, r6, #0
1000cac0:	1c2a      	adds	r2, r5, #0
1000cac2:	9801      	ldr	r0, [sp, #4]
1000cac4:	4b83      	ldr	r3, [pc, #524]	; (1000ccd4 <at_ble_event_get+0x654>)
1000cac6:	4798      	blx	r3
1000cac8:	e7de      	b.n	1000ca88 <at_ble_event_get+0x408>
1000caca:	9801      	ldr	r0, [sp, #4]
1000cacc:	1c31      	adds	r1, r6, #0
1000cace:	1c2a      	adds	r2, r5, #0
1000cad0:	4b81      	ldr	r3, [pc, #516]	; (1000ccd8 <at_ble_event_get+0x658>)
1000cad2:	e7f8      	b.n	1000cac6 <at_ble_event_get+0x446>
1000cad4:	1c31      	adds	r1, r6, #0
1000cad6:	9801      	ldr	r0, [sp, #4]
1000cad8:	1c2a      	adds	r2, r5, #0
1000cada:	4b80      	ldr	r3, [pc, #512]	; (1000ccdc <at_ble_event_get+0x65c>)
1000cadc:	4798      	blx	r3
1000cade:	260d      	movs	r6, #13
1000cae0:	e0c3      	b.n	1000cc6a <at_ble_event_get+0x5ea>
1000cae2:	1c31      	adds	r1, r6, #0
1000cae4:	9801      	ldr	r0, [sp, #4]
1000cae6:	1c2a      	adds	r2, r5, #0
1000cae8:	4b7d      	ldr	r3, [pc, #500]	; (1000cce0 <at_ble_event_get+0x660>)
1000caea:	4798      	blx	r3
1000caec:	260e      	movs	r6, #14
1000caee:	e0bc      	b.n	1000cc6a <at_ble_event_get+0x5ea>
1000caf0:	9801      	ldr	r0, [sp, #4]
1000caf2:	1c31      	adds	r1, r6, #0
1000caf4:	1c2a      	adds	r2, r5, #0
1000caf6:	4b7b      	ldr	r3, [pc, #492]	; (1000cce4 <at_ble_event_get+0x664>)
1000caf8:	4798      	blx	r3
1000cafa:	e084      	b.n	1000cc06 <at_ble_event_get+0x586>
1000cafc:	1c31      	adds	r1, r6, #0
1000cafe:	9801      	ldr	r0, [sp, #4]
1000cb00:	1c2a      	adds	r2, r5, #0
1000cb02:	4b79      	ldr	r3, [pc, #484]	; (1000cce8 <at_ble_event_get+0x668>)
1000cb04:	4798      	blx	r3
1000cb06:	260b      	movs	r6, #11
1000cb08:	e0af      	b.n	1000cc6a <at_ble_event_get+0x5ea>
1000cb0a:	1c31      	adds	r1, r6, #0
1000cb0c:	9801      	ldr	r0, [sp, #4]
1000cb0e:	1c2a      	adds	r2, r5, #0
1000cb10:	4b76      	ldr	r3, [pc, #472]	; (1000ccec <at_ble_event_get+0x66c>)
1000cb12:	4798      	blx	r3
1000cb14:	2610      	movs	r6, #16
1000cb16:	e0a8      	b.n	1000cc6a <at_ble_event_get+0x5ea>
1000cb18:	1c30      	adds	r0, r6, #0
1000cb1a:	1c29      	adds	r1, r5, #0
1000cb1c:	4b74      	ldr	r3, [pc, #464]	; (1000ccf0 <at_ble_event_get+0x670>)
1000cb1e:	4798      	blx	r3
1000cb20:	2628      	movs	r6, #40	; 0x28
1000cb22:	e0a2      	b.n	1000cc6a <at_ble_event_get+0x5ea>
1000cb24:	1c30      	adds	r0, r6, #0
1000cb26:	1c29      	adds	r1, r5, #0
1000cb28:	4b72      	ldr	r3, [pc, #456]	; (1000ccf4 <at_ble_event_get+0x674>)
1000cb2a:	4798      	blx	r3
1000cb2c:	2629      	movs	r6, #41	; 0x29
1000cb2e:	e09c      	b.n	1000cc6a <at_ble_event_get+0x5ea>
1000cb30:	1c30      	adds	r0, r6, #0
1000cb32:	1c29      	adds	r1, r5, #0
1000cb34:	4b70      	ldr	r3, [pc, #448]	; (1000ccf8 <at_ble_event_get+0x678>)
1000cb36:	4798      	blx	r3
1000cb38:	2627      	movs	r6, #39	; 0x27
1000cb3a:	e096      	b.n	1000cc6a <at_ble_event_get+0x5ea>
1000cb3c:	1c30      	adds	r0, r6, #0
1000cb3e:	1c29      	adds	r1, r5, #0
1000cb40:	4b6e      	ldr	r3, [pc, #440]	; (1000ccfc <at_ble_event_get+0x67c>)
1000cb42:	4798      	blx	r3
1000cb44:	262a      	movs	r6, #42	; 0x2a
1000cb46:	e090      	b.n	1000cc6a <at_ble_event_get+0x5ea>
1000cb48:	9801      	ldr	r0, [sp, #4]
1000cb4a:	1c31      	adds	r1, r6, #0
1000cb4c:	1c2a      	adds	r2, r5, #0
1000cb4e:	4b6c      	ldr	r3, [pc, #432]	; (1000cd00 <at_ble_event_get+0x680>)
1000cb50:	e7b9      	b.n	1000cac6 <at_ble_event_get+0x446>
1000cb52:	9801      	ldr	r0, [sp, #4]
1000cb54:	1c31      	adds	r1, r6, #0
1000cb56:	1c2a      	adds	r2, r5, #0
1000cb58:	4b6a      	ldr	r3, [pc, #424]	; (1000cd04 <at_ble_event_get+0x684>)
1000cb5a:	e7b4      	b.n	1000cac6 <at_ble_event_get+0x446>
1000cb5c:	1c30      	adds	r0, r6, #0
1000cb5e:	1c29      	adds	r1, r5, #0
1000cb60:	4b69      	ldr	r3, [pc, #420]	; (1000cd08 <at_ble_event_get+0x688>)
1000cb62:	4798      	blx	r3
1000cb64:	262b      	movs	r6, #43	; 0x2b
1000cb66:	e080      	b.n	1000cc6a <at_ble_event_get+0x5ea>
1000cb68:	1c30      	adds	r0, r6, #0
1000cb6a:	1c29      	adds	r1, r5, #0
1000cb6c:	4b67      	ldr	r3, [pc, #412]	; (1000cd0c <at_ble_event_get+0x68c>)
1000cb6e:	4798      	blx	r3
1000cb70:	262c      	movs	r6, #44	; 0x2c
1000cb72:	e07a      	b.n	1000cc6a <at_ble_event_get+0x5ea>
1000cb74:	1c31      	adds	r1, r6, #0
1000cb76:	9801      	ldr	r0, [sp, #4]
1000cb78:	1c2a      	adds	r2, r5, #0
1000cb7a:	4b65      	ldr	r3, [pc, #404]	; (1000cd10 <at_ble_event_get+0x690>)
1000cb7c:	4798      	blx	r3
1000cb7e:	2613      	movs	r6, #19
1000cb80:	e073      	b.n	1000cc6a <at_ble_event_get+0x5ea>
1000cb82:	1c31      	adds	r1, r6, #0
1000cb84:	9801      	ldr	r0, [sp, #4]
1000cb86:	1c2a      	adds	r2, r5, #0
1000cb88:	4b62      	ldr	r3, [pc, #392]	; (1000cd14 <at_ble_event_get+0x694>)
1000cb8a:	4798      	blx	r3
1000cb8c:	2614      	movs	r6, #20
1000cb8e:	e06c      	b.n	1000cc6a <at_ble_event_get+0x5ea>
1000cb90:	1c31      	adds	r1, r6, #0
1000cb92:	9801      	ldr	r0, [sp, #4]
1000cb94:	1c2a      	adds	r2, r5, #0
1000cb96:	4b60      	ldr	r3, [pc, #384]	; (1000cd18 <at_ble_event_get+0x698>)
1000cb98:	4798      	blx	r3
1000cb9a:	2615      	movs	r6, #21
1000cb9c:	e065      	b.n	1000cc6a <at_ble_event_get+0x5ea>
1000cb9e:	1c31      	adds	r1, r6, #0
1000cba0:	9801      	ldr	r0, [sp, #4]
1000cba2:	1c2a      	adds	r2, r5, #0
1000cba4:	4b5d      	ldr	r3, [pc, #372]	; (1000cd1c <at_ble_event_get+0x69c>)
1000cba6:	4798      	blx	r3
1000cba8:	2616      	movs	r6, #22
1000cbaa:	e05e      	b.n	1000cc6a <at_ble_event_get+0x5ea>
1000cbac:	9801      	ldr	r0, [sp, #4]
1000cbae:	1c31      	adds	r1, r6, #0
1000cbb0:	1c2a      	adds	r2, r5, #0
1000cbb2:	4b5b      	ldr	r3, [pc, #364]	; (1000cd20 <at_ble_event_get+0x6a0>)
1000cbb4:	e787      	b.n	1000cac6 <at_ble_event_get+0x446>
1000cbb6:	1c31      	adds	r1, r6, #0
1000cbb8:	9801      	ldr	r0, [sp, #4]
1000cbba:	1c2a      	adds	r2, r5, #0
1000cbbc:	4b58      	ldr	r3, [pc, #352]	; (1000cd20 <at_ble_event_get+0x6a0>)
1000cbbe:	4798      	blx	r3
1000cbc0:	88a9      	ldrh	r1, [r5, #4]
1000cbc2:	1c06      	adds	r6, r0, #0
1000cbc4:	4b57      	ldr	r3, [pc, #348]	; (1000cd24 <at_ble_event_get+0x6a4>)
1000cbc6:	8828      	ldrh	r0, [r5, #0]
1000cbc8:	4798      	blx	r3
1000cbca:	e04e      	b.n	1000cc6a <at_ble_event_get+0x5ea>
1000cbcc:	1c31      	adds	r1, r6, #0
1000cbce:	9801      	ldr	r0, [sp, #4]
1000cbd0:	1c2a      	adds	r2, r5, #0
1000cbd2:	4b55      	ldr	r3, [pc, #340]	; (1000cd28 <at_ble_event_get+0x6a8>)
1000cbd4:	4798      	blx	r3
1000cbd6:	2623      	movs	r6, #35	; 0x23
1000cbd8:	e047      	b.n	1000cc6a <at_ble_event_get+0x5ea>
1000cbda:	9801      	ldr	r0, [sp, #4]
1000cbdc:	1c31      	adds	r1, r6, #0
1000cbde:	1c2a      	adds	r2, r5, #0
1000cbe0:	4b52      	ldr	r3, [pc, #328]	; (1000cd2c <at_ble_event_get+0x6ac>)
1000cbe2:	e770      	b.n	1000cac6 <at_ble_event_get+0x446>
1000cbe4:	9b01      	ldr	r3, [sp, #4]
1000cbe6:	1c30      	adds	r0, r6, #0
1000cbe8:	0a1f      	lsrs	r7, r3, #8
1000cbea:	802f      	strh	r7, [r5, #0]
1000cbec:	1c29      	adds	r1, r5, #0
1000cbee:	4b50      	ldr	r3, [pc, #320]	; (1000cd30 <at_ble_event_get+0x6b0>)
1000cbf0:	e749      	b.n	1000ca86 <at_ble_event_get+0x406>
1000cbf2:	9801      	ldr	r0, [sp, #4]
1000cbf4:	1c31      	adds	r1, r6, #0
1000cbf6:	1c2a      	adds	r2, r5, #0
1000cbf8:	4b4e      	ldr	r3, [pc, #312]	; (1000cd34 <at_ble_event_get+0x6b4>)
1000cbfa:	e764      	b.n	1000cac6 <at_ble_event_get+0x446>
1000cbfc:	1c30      	adds	r0, r6, #0
1000cbfe:	1c29      	adds	r1, r5, #0
1000cc00:	9a01      	ldr	r2, [sp, #4]
1000cc02:	4b4d      	ldr	r3, [pc, #308]	; (1000cd38 <at_ble_event_get+0x6b8>)
1000cc04:	4798      	blx	r3
1000cc06:	263b      	movs	r6, #59	; 0x3b
1000cc08:	e02f      	b.n	1000cc6a <at_ble_event_get+0x5ea>
1000cc0a:	1c31      	adds	r1, r6, #0
1000cc0c:	9801      	ldr	r0, [sp, #4]
1000cc0e:	1c2a      	adds	r2, r5, #0
1000cc10:	4b4a      	ldr	r3, [pc, #296]	; (1000cd3c <at_ble_event_get+0x6bc>)
1000cc12:	4798      	blx	r3
1000cc14:	2618      	movs	r6, #24
1000cc16:	e028      	b.n	1000cc6a <at_ble_event_get+0x5ea>
1000cc18:	1c31      	adds	r1, r6, #0
1000cc1a:	9801      	ldr	r0, [sp, #4]
1000cc1c:	1c2a      	adds	r2, r5, #0
1000cc1e:	4b48      	ldr	r3, [pc, #288]	; (1000cd40 <at_ble_event_get+0x6c0>)
1000cc20:	4798      	blx	r3
1000cc22:	2620      	movs	r6, #32
1000cc24:	e021      	b.n	1000cc6a <at_ble_event_get+0x5ea>
1000cc26:	1c31      	adds	r1, r6, #0
1000cc28:	9801      	ldr	r0, [sp, #4]
1000cc2a:	1c2a      	adds	r2, r5, #0
1000cc2c:	4b45      	ldr	r3, [pc, #276]	; (1000cd44 <at_ble_event_get+0x6c4>)
1000cc2e:	4798      	blx	r3
1000cc30:	2633      	movs	r6, #51	; 0x33
1000cc32:	e01a      	b.n	1000cc6a <at_ble_event_get+0x5ea>
1000cc34:	1c31      	adds	r1, r6, #0
1000cc36:	9801      	ldr	r0, [sp, #4]
1000cc38:	1c2a      	adds	r2, r5, #0
1000cc3a:	4b43      	ldr	r3, [pc, #268]	; (1000cd48 <at_ble_event_get+0x6c8>)
1000cc3c:	4798      	blx	r3
1000cc3e:	2630      	movs	r6, #48	; 0x30
1000cc40:	e013      	b.n	1000cc6a <at_ble_event_get+0x5ea>
1000cc42:	1c31      	adds	r1, r6, #0
1000cc44:	9801      	ldr	r0, [sp, #4]
1000cc46:	1c2a      	adds	r2, r5, #0
1000cc48:	4b40      	ldr	r3, [pc, #256]	; (1000cd4c <at_ble_event_get+0x6cc>)
1000cc4a:	4798      	blx	r3
1000cc4c:	2634      	movs	r6, #52	; 0x34
1000cc4e:	e00c      	b.n	1000cc6a <at_ble_event_get+0x5ea>
1000cc50:	1c31      	adds	r1, r6, #0
1000cc52:	9801      	ldr	r0, [sp, #4]
1000cc54:	1c2a      	adds	r2, r5, #0
1000cc56:	4b3e      	ldr	r3, [pc, #248]	; (1000cd50 <at_ble_event_get+0x6d0>)
1000cc58:	4798      	blx	r3
1000cc5a:	2635      	movs	r6, #53	; 0x35
1000cc5c:	e005      	b.n	1000cc6a <at_ble_event_get+0x5ea>
1000cc5e:	1c31      	adds	r1, r6, #0
1000cc60:	9801      	ldr	r0, [sp, #4]
1000cc62:	1c2a      	adds	r2, r5, #0
1000cc64:	4b3b      	ldr	r3, [pc, #236]	; (1000cd54 <at_ble_event_get+0x6d4>)
1000cc66:	4798      	blx	r3
1000cc68:	2632      	movs	r6, #50	; 0x32
1000cc6a:	9b03      	ldr	r3, [sp, #12]
1000cc6c:	701e      	strb	r6, [r3, #0]
1000cc6e:	2300      	movs	r3, #0
1000cc70:	9302      	str	r3, [sp, #8]
1000cc72:	e57a      	b.n	1000c76a <at_ble_event_get+0xea>
1000cc74:	23d0      	movs	r3, #208	; 0xd0
1000cc76:	e7fb      	b.n	1000cc70 <at_ble_event_get+0x5f0>
1000cc78:	9b01      	ldr	r3, [sp, #4]
1000cc7a:	9e02      	ldr	r6, [sp, #8]
1000cc7c:	2bbb      	cmp	r3, #187	; 0xbb
1000cc7e:	d000      	beq.n	1000cc82 <at_ble_event_get+0x602>
1000cc80:	e6e6      	b.n	1000ca50 <at_ble_event_get+0x3d0>
1000cc82:	e7f2      	b.n	1000cc6a <at_ble_event_get+0x5ea>
1000cc84:	9b02      	ldr	r3, [sp, #8]
1000cc86:	2b00      	cmp	r3, #0
1000cc88:	d000      	beq.n	1000cc8c <at_ble_event_get+0x60c>
1000cc8a:	e56e      	b.n	1000c76a <at_ble_event_get+0xea>
1000cc8c:	e6e0      	b.n	1000ca50 <at_ble_event_get+0x3d0>
1000cc8e:	9802      	ldr	r0, [sp, #8]
1000cc90:	b007      	add	sp, #28
1000cc92:	bdf0      	pop	{r4, r5, r6, r7, pc}
1000cc94:	00000e22 	.word	0x00000e22
1000cc98:	00000e25 	.word	0x00000e25
1000cc9c:	00001b05 	.word	0x00001b05
1000cca0:	00001b01 	.word	0x00001b01
1000cca4:	00001b03 	.word	0x00001b03
1000cca8:	00001b06 	.word	0x00001b06
1000ccac:	00001b08 	.word	0x00001b08
1000ccb0:	1000eeb1 	.word	0x1000eeb1
1000ccb4:	1000ee95 	.word	0x1000ee95
1000ccb8:	1000f131 	.word	0x1000f131
1000ccbc:	1000f221 	.word	0x1000f221
1000ccc0:	1000f245 	.word	0x1000f245
1000ccc4:	1000e229 	.word	0x1000e229
1000ccc8:	1000eaa9 	.word	0x1000eaa9
1000cccc:	1000eb25 	.word	0x1000eb25
1000ccd0:	1000e4e1 	.word	0x1000e4e1
1000ccd4:	1000e57d 	.word	0x1000e57d
1000ccd8:	1000e655 	.word	0x1000e655
1000ccdc:	1000e8dd 	.word	0x1000e8dd
1000cce0:	1000e97d 	.word	0x1000e97d
1000cce4:	1000ea35 	.word	0x1000ea35
1000cce8:	1000ea5d 	.word	0x1000ea5d
1000ccec:	1000ea73 	.word	0x1000ea73
1000ccf0:	1000eb3d 	.word	0x1000eb3d
1000ccf4:	1000eb6b 	.word	0x1000eb6b
1000ccf8:	1000eb81 	.word	0x1000eb81
1000ccfc:	1000ebab 	.word	0x1000ebab
1000cd00:	1000e9d9 	.word	0x1000e9d9
1000cd04:	1000ea03 	.word	0x1000ea03
1000cd08:	1000dc69 	.word	0x1000dc69
1000cd0c:	1000dc95 	.word	0x1000dc95
1000cd10:	1000f465 	.word	0x1000f465
1000cd14:	1000f4a1 	.word	0x1000f4a1
1000cd18:	1000f4e9 	.word	0x1000f4e9
1000cd1c:	1000f52d 	.word	0x1000f52d
1000cd20:	1000f561 	.word	0x1000f561
1000cd24:	1000f425 	.word	0x1000f425
1000cd28:	1000f62d 	.word	0x1000f62d
1000cd2c:	1000f5b5 	.word	0x1000f5b5
1000cd30:	1000db4d 	.word	0x1000db4d
1000cd34:	1000dbb9 	.word	0x1000dbb9
1000cd38:	1000db7d 	.word	0x1000db7d
1000cd3c:	1000f63d 	.word	0x1000f63d
1000cd40:	1000f67d 	.word	0x1000f67d
1000cd44:	1000f945 	.word	0x1000f945
1000cd48:	1000f94f 	.word	0x1000f94f
1000cd4c:	1000f955 	.word	0x1000f955
1000cd50:	1000f95b 	.word	0x1000f95b
1000cd54:	1000f967 	.word	0x1000f967

1000cd58 <internal_event_flush>:
1000cd58:	b5f7      	push	{r0, r1, r2, r4, r5, r6, r7, lr}
1000cd5a:	490e      	ldr	r1, [pc, #56]	; (1000cd94 <internal_event_flush+0x3c>)
1000cd5c:	2400      	movs	r4, #0
1000cd5e:	680b      	ldr	r3, [r1, #0]
1000cd60:	1c0f      	adds	r7, r1, #0
1000cd62:	1c1e      	adds	r6, r3, #0
1000cd64:	4a0c      	ldr	r2, [pc, #48]	; (1000cd98 <internal_event_flush+0x40>)
1000cd66:	6815      	ldr	r5, [r2, #0]
1000cd68:	9201      	str	r2, [sp, #4]
1000cd6a:	2b00      	cmp	r3, #0
1000cd6c:	d00e      	beq.n	1000cd8c <internal_event_flush+0x34>
1000cd6e:	889a      	ldrh	r2, [r3, #4]
1000cd70:	6819      	ldr	r1, [r3, #0]
1000cd72:	4282      	cmp	r2, r0
1000cd74:	d107      	bne.n	1000cd86 <internal_event_flush+0x2e>
1000cd76:	2c00      	cmp	r4, #0
1000cd78:	d001      	beq.n	1000cd7e <internal_event_flush+0x26>
1000cd7a:	6021      	str	r1, [r4, #0]
1000cd7c:	e000      	b.n	1000cd80 <internal_event_flush+0x28>
1000cd7e:	1c0e      	adds	r6, r1, #0
1000cd80:	601d      	str	r5, [r3, #0]
1000cd82:	1c1d      	adds	r5, r3, #0
1000cd84:	1c23      	adds	r3, r4, #0
1000cd86:	1c1c      	adds	r4, r3, #0
1000cd88:	1c0b      	adds	r3, r1, #0
1000cd8a:	e7ee      	b.n	1000cd6a <internal_event_flush+0x12>
1000cd8c:	9b01      	ldr	r3, [sp, #4]
1000cd8e:	603e      	str	r6, [r7, #0]
1000cd90:	601d      	str	r5, [r3, #0]
1000cd92:	bdf7      	pop	{r0, r1, r2, r4, r5, r6, r7, pc}
1000cd94:	10013908 	.word	0x10013908
1000cd98:	1001390c 	.word	0x1001390c

1000cd9c <internal_conn_flush>:
1000cd9c:	b5f7      	push	{r0, r1, r2, r4, r5, r6, r7, lr}
1000cd9e:	4a12      	ldr	r2, [pc, #72]	; (1000cde8 <internal_conn_flush+0x4c>)
1000cda0:	9000      	str	r0, [sp, #0]
1000cda2:	6813      	ldr	r3, [r2, #0]
1000cda4:	4811      	ldr	r0, [pc, #68]	; (1000cdec <internal_conn_flush+0x50>)
1000cda6:	1c1f      	adds	r7, r3, #0
1000cda8:	2100      	movs	r1, #0
1000cdaa:	4684      	mov	ip, r0
1000cdac:	6804      	ldr	r4, [r0, #0]
1000cdae:	9201      	str	r2, [sp, #4]
1000cdb0:	2b00      	cmp	r3, #0
1000cdb2:	d014      	beq.n	1000cdde <internal_conn_flush+0x42>
1000cdb4:	88d8      	ldrh	r0, [r3, #6]
1000cdb6:	9a00      	ldr	r2, [sp, #0]
1000cdb8:	681d      	ldr	r5, [r3, #0]
1000cdba:	0a06      	lsrs	r6, r0, #8
1000cdbc:	4296      	cmp	r6, r2
1000cdbe:	d10b      	bne.n	1000cdd8 <internal_conn_flush+0x3c>
1000cdc0:	26fd      	movs	r6, #253	; 0xfd
1000cdc2:	4006      	ands	r6, r0
1000cdc4:	2e0c      	cmp	r6, #12
1000cdc6:	d107      	bne.n	1000cdd8 <internal_conn_flush+0x3c>
1000cdc8:	2900      	cmp	r1, #0
1000cdca:	d001      	beq.n	1000cdd0 <internal_conn_flush+0x34>
1000cdcc:	600d      	str	r5, [r1, #0]
1000cdce:	e000      	b.n	1000cdd2 <internal_conn_flush+0x36>
1000cdd0:	1c2f      	adds	r7, r5, #0
1000cdd2:	601c      	str	r4, [r3, #0]
1000cdd4:	1c1c      	adds	r4, r3, #0
1000cdd6:	1c0b      	adds	r3, r1, #0
1000cdd8:	1c19      	adds	r1, r3, #0
1000cdda:	1c2b      	adds	r3, r5, #0
1000cddc:	e7e8      	b.n	1000cdb0 <internal_conn_flush+0x14>
1000cdde:	9b01      	ldr	r3, [sp, #4]
1000cde0:	601f      	str	r7, [r3, #0]
1000cde2:	4663      	mov	r3, ip
1000cde4:	601c      	str	r4, [r3, #0]
1000cde6:	bdf7      	pop	{r0, r1, r2, r4, r5, r6, r7, pc}
1000cde8:	10013908 	.word	0x10013908
1000cdec:	1001390c 	.word	0x1001390c

1000cdf0 <at_ble_device_name_set>:
1000cdf0:	b530      	push	{r4, r5, lr}
1000cdf2:	23cf      	movs	r3, #207	; 0xcf
1000cdf4:	2800      	cmp	r0, #0
1000cdf6:	d010      	beq.n	1000ce1a <at_ble_device_name_set+0x2a>
1000cdf8:	1e4a      	subs	r2, r1, #1
1000cdfa:	2a1f      	cmp	r2, #31
1000cdfc:	d80d      	bhi.n	1000ce1a <at_ble_device_name_set+0x2a>
1000cdfe:	4a08      	ldr	r2, [pc, #32]	; (1000ce20 <at_ble_device_name_set+0x30>)
1000ce00:	1c13      	adds	r3, r2, #0
1000ce02:	33aa      	adds	r3, #170	; 0xaa
1000ce04:	8019      	strh	r1, [r3, #0]
1000ce06:	2300      	movs	r3, #0
1000ce08:	1c1c      	adds	r4, r3, #0
1000ce0a:	5cc5      	ldrb	r5, [r0, r3]
1000ce0c:	34ac      	adds	r4, #172	; 0xac
1000ce0e:	3301      	adds	r3, #1
1000ce10:	5515      	strb	r5, [r2, r4]
1000ce12:	b2dc      	uxtb	r4, r3
1000ce14:	428c      	cmp	r4, r1
1000ce16:	d3f7      	bcc.n	1000ce08 <at_ble_device_name_set+0x18>
1000ce18:	2300      	movs	r3, #0
1000ce1a:	1c18      	adds	r0, r3, #0
1000ce1c:	bd30      	pop	{r4, r5, pc}
1000ce1e:	46c0      	nop			; (mov r8, r8)
1000ce20:	100147f2 	.word	0x100147f2

1000ce24 <at_ble_addr_get>:
1000ce24:	b510      	push	{r4, lr}
1000ce26:	1c04      	adds	r4, r0, #0
1000ce28:	20cf      	movs	r0, #207	; 0xcf
1000ce2a:	2c00      	cmp	r4, #0
1000ce2c:	d006      	beq.n	1000ce3c <at_ble_addr_get+0x18>
1000ce2e:	4b04      	ldr	r3, [pc, #16]	; (1000ce40 <at_ble_addr_get+0x1c>)
1000ce30:	38ce      	subs	r0, #206	; 0xce
1000ce32:	1c21      	adds	r1, r4, #0
1000ce34:	4798      	blx	r3
1000ce36:	4b03      	ldr	r3, [pc, #12]	; (1000ce44 <at_ble_addr_get+0x20>)
1000ce38:	791b      	ldrb	r3, [r3, #4]
1000ce3a:	7023      	strb	r3, [r4, #0]
1000ce3c:	bd10      	pop	{r4, pc}
1000ce3e:	46c0      	nop			; (mov r8, r8)
1000ce40:	1000ed45 	.word	0x1000ed45
1000ce44:	100147f2 	.word	0x100147f2

1000ce48 <at_ble_set_dev_config>:
1000ce48:	b5f0      	push	{r4, r5, r6, r7, lr}
1000ce4a:	7906      	ldrb	r6, [r0, #4]
1000ce4c:	b089      	sub	sp, #36	; 0x24
1000ce4e:	25cf      	movs	r5, #207	; 0xcf
1000ce50:	2e03      	cmp	r6, #3
1000ce52:	d838      	bhi.n	1000cec6 <at_ble_set_dev_config+0x7e>
1000ce54:	7803      	ldrb	r3, [r0, #0]
1000ce56:	3511      	adds	r5, #17
1000ce58:	2b0f      	cmp	r3, #15
1000ce5a:	d834      	bhi.n	1000cec6 <at_ble_set_dev_config+0x7e>
1000ce5c:	2380      	movs	r3, #128	; 0x80
1000ce5e:	8c87      	ldrh	r7, [r0, #36]	; 0x24
1000ce60:	3d11      	subs	r5, #17
1000ce62:	009b      	lsls	r3, r3, #2
1000ce64:	429f      	cmp	r7, r3
1000ce66:	d82e      	bhi.n	1000cec6 <at_ble_set_dev_config+0x7e>
1000ce68:	7fc5      	ldrb	r5, [r0, #31]
1000ce6a:	7f83      	ldrb	r3, [r0, #30]
1000ce6c:	01ad      	lsls	r5, r5, #6
1000ce6e:	015b      	lsls	r3, r3, #5
1000ce70:	431d      	orrs	r5, r3
1000ce72:	7ec3      	ldrb	r3, [r0, #27]
1000ce74:	431d      	orrs	r5, r3
1000ce76:	7f43      	ldrb	r3, [r0, #29]
1000ce78:	011b      	lsls	r3, r3, #4
1000ce7a:	431d      	orrs	r5, r3
1000ce7c:	7f03      	ldrb	r3, [r0, #28]
1000ce7e:	009b      	lsls	r3, r3, #2
1000ce80:	431d      	orrs	r5, r3
1000ce82:	4b12      	ldr	r3, [pc, #72]	; (1000cecc <at_ble_set_dev_config+0x84>)
1000ce84:	b2ed      	uxtb	r5, r5
1000ce86:	711e      	strb	r6, [r3, #4]
1000ce88:	7903      	ldrb	r3, [r0, #4]
1000ce8a:	3b02      	subs	r3, #2
1000ce8c:	2b01      	cmp	r3, #1
1000ce8e:	d801      	bhi.n	1000ce94 <at_ble_set_dev_config+0x4c>
1000ce90:	2302      	movs	r3, #2
1000ce92:	7103      	strb	r3, [r0, #4]
1000ce94:	1c04      	adds	r4, r0, #0
1000ce96:	1c23      	adds	r3, r4, #0
1000ce98:	330b      	adds	r3, #11
1000ce9a:	8861      	ldrh	r1, [r4, #2]
1000ce9c:	9307      	str	r3, [sp, #28]
1000ce9e:	7923      	ldrb	r3, [r4, #4]
1000cea0:	7800      	ldrb	r0, [r0, #0]
1000cea2:	9300      	str	r3, [sp, #0]
1000cea4:	9501      	str	r5, [sp, #4]
1000cea6:	8c25      	ldrh	r5, [r4, #32]
1000cea8:	1d62      	adds	r2, r4, #5
1000ceaa:	9502      	str	r5, [sp, #8]
1000ceac:	8c65      	ldrh	r5, [r4, #34]	; 0x22
1000ceae:	9b07      	ldr	r3, [sp, #28]
1000ceb0:	9503      	str	r5, [sp, #12]
1000ceb2:	9704      	str	r7, [sp, #16]
1000ceb4:	4d06      	ldr	r5, [pc, #24]	; (1000ced0 <at_ble_set_dev_config+0x88>)
1000ceb6:	47a8      	blx	r5
1000ceb8:	7126      	strb	r6, [r4, #4]
1000ceba:	1c05      	adds	r5, r0, #0
1000cebc:	1c21      	adds	r1, r4, #0
1000cebe:	4803      	ldr	r0, [pc, #12]	; (1000cecc <at_ble_set_dev_config+0x84>)
1000cec0:	2226      	movs	r2, #38	; 0x26
1000cec2:	4b04      	ldr	r3, [pc, #16]	; (1000ced4 <at_ble_set_dev_config+0x8c>)
1000cec4:	4798      	blx	r3
1000cec6:	1c28      	adds	r0, r5, #0
1000cec8:	b009      	add	sp, #36	; 0x24
1000ceca:	bdf0      	pop	{r4, r5, r6, r7, pc}
1000cecc:	100147f2 	.word	0x100147f2
1000ced0:	1000ec3d 	.word	0x1000ec3d
1000ced4:	10010b37 	.word	0x10010b37

1000ced8 <at_ble_init>:
1000ced8:	b5f0      	push	{r4, r5, r6, r7, lr}
1000ceda:	b087      	sub	sp, #28
1000cedc:	af03      	add	r7, sp, #12
1000cede:	4954      	ldr	r1, [pc, #336]	; (1000d030 <at_ble_init+0x158>)
1000cee0:	220b      	movs	r2, #11
1000cee2:	4b54      	ldr	r3, [pc, #336]	; (1000d034 <at_ble_init+0x15c>)
1000cee4:	1c04      	adds	r4, r0, #0
1000cee6:	1c38      	adds	r0, r7, #0
1000cee8:	4798      	blx	r3
1000ceea:	2205      	movs	r2, #5
1000ceec:	4b52      	ldr	r3, [pc, #328]	; (1000d038 <at_ble_init+0x160>)
1000ceee:	2640      	movs	r6, #64	; 0x40
1000cef0:	801a      	strh	r2, [r3, #0]
1000cef2:	2300      	movs	r3, #0
1000cef4:	4a51      	ldr	r2, [pc, #324]	; (1000d03c <at_ble_init+0x164>)
1000cef6:	6013      	str	r3, [r2, #0]
1000cef8:	4a51      	ldr	r2, [pc, #324]	; (1000d040 <at_ble_init+0x168>)
1000cefa:	7013      	strb	r3, [r2, #0]
1000cefc:	4a51      	ldr	r2, [pc, #324]	; (1000d044 <at_ble_init+0x16c>)
1000cefe:	7013      	strb	r3, [r2, #0]
1000cf00:	4b51      	ldr	r3, [pc, #324]	; (1000d048 <at_ble_init+0x170>)
1000cf02:	4798      	blx	r3
1000cf04:	4b51      	ldr	r3, [pc, #324]	; (1000d04c <at_ble_init+0x174>)
1000cf06:	4798      	blx	r3
1000cf08:	4b51      	ldr	r3, [pc, #324]	; (1000d050 <at_ble_init+0x178>)
1000cf0a:	4798      	blx	r3
1000cf0c:	4b51      	ldr	r3, [pc, #324]	; (1000d054 <at_ble_init+0x17c>)
1000cf0e:	4798      	blx	r3
1000cf10:	2c00      	cmp	r4, #0
1000cf12:	d100      	bne.n	1000cf16 <at_ble_init+0x3e>
1000cf14:	e089      	b.n	1000d02a <at_ble_init+0x152>
1000cf16:	68a3      	ldr	r3, [r4, #8]
1000cf18:	2b00      	cmp	r3, #0
1000cf1a:	d100      	bne.n	1000cf1e <at_ble_init+0x46>
1000cf1c:	e085      	b.n	1000d02a <at_ble_init+0x152>
1000cf1e:	6923      	ldr	r3, [r4, #16]
1000cf20:	2b00      	cmp	r3, #0
1000cf22:	d100      	bne.n	1000cf26 <at_ble_init+0x4e>
1000cf24:	e081      	b.n	1000d02a <at_ble_init+0x152>
1000cf26:	6820      	ldr	r0, [r4, #0]
1000cf28:	2800      	cmp	r0, #0
1000cf2a:	d102      	bne.n	1000cf32 <at_ble_init+0x5a>
1000cf2c:	6863      	ldr	r3, [r4, #4]
1000cf2e:	2b00      	cmp	r3, #0
1000cf30:	d17b      	bne.n	1000d02a <at_ble_init+0x152>
1000cf32:	4b49      	ldr	r3, [pc, #292]	; (1000d058 <at_ble_init+0x180>)
1000cf34:	6861      	ldr	r1, [r4, #4]
1000cf36:	4798      	blx	r3
1000cf38:	4b48      	ldr	r3, [pc, #288]	; (1000d05c <at_ble_init+0x184>)
1000cf3a:	4798      	blx	r3
1000cf3c:	2801      	cmp	r0, #1
1000cf3e:	d901      	bls.n	1000cf44 <at_ble_init+0x6c>
1000cf40:	26e2      	movs	r6, #226	; 0xe2
1000cf42:	e072      	b.n	1000d02a <at_ble_init+0x152>
1000cf44:	4846      	ldr	r0, [pc, #280]	; (1000d060 <at_ble_init+0x188>)
1000cf46:	4b47      	ldr	r3, [pc, #284]	; (1000d064 <at_ble_init+0x18c>)
1000cf48:	4798      	blx	r3
1000cf4a:	2800      	cmp	r0, #0
1000cf4c:	d1f8      	bne.n	1000cf40 <at_ble_init+0x68>
1000cf4e:	1c20      	adds	r0, r4, #0
1000cf50:	4b45      	ldr	r3, [pc, #276]	; (1000d068 <at_ble_init+0x190>)
1000cf52:	4798      	blx	r3
1000cf54:	68e0      	ldr	r0, [r4, #12]
1000cf56:	68a1      	ldr	r1, [r4, #8]
1000cf58:	4b44      	ldr	r3, [pc, #272]	; (1000d06c <at_ble_init+0x194>)
1000cf5a:	4798      	blx	r3
1000cf5c:	466b      	mov	r3, sp
1000cf5e:	2201      	movs	r2, #1
1000cf60:	1cdc      	adds	r4, r3, #3
1000cf62:	1c20      	adds	r0, r4, #0
1000cf64:	a901      	add	r1, sp, #4
1000cf66:	4252      	negs	r2, r2
1000cf68:	4b41      	ldr	r3, [pc, #260]	; (1000d070 <at_ble_init+0x198>)
1000cf6a:	4798      	blx	r3
1000cf6c:	2800      	cmp	r0, #0
1000cf6e:	d102      	bne.n	1000cf76 <at_ble_init+0x9e>
1000cf70:	7823      	ldrb	r3, [r4, #0]
1000cf72:	2b39      	cmp	r3, #57	; 0x39
1000cf74:	d1f2      	bne.n	1000cf5c <at_ble_init+0x84>
1000cf76:	4b3f      	ldr	r3, [pc, #252]	; (1000d074 <at_ble_init+0x19c>)
1000cf78:	4798      	blx	r3
1000cf7a:	1e06      	subs	r6, r0, #0
1000cf7c:	d155      	bne.n	1000d02a <at_ble_init+0x152>
1000cf7e:	1c03      	adds	r3, r0, #0
1000cf80:	2101      	movs	r1, #1
1000cf82:	4a3d      	ldr	r2, [pc, #244]	; (1000d078 <at_ble_init+0x1a0>)
1000cf84:	4249      	negs	r1, r1
1000cf86:	189a      	adds	r2, r3, r2
1000cf88:	3312      	adds	r3, #18
1000cf8a:	8151      	strh	r1, [r2, #10]
1000cf8c:	2b90      	cmp	r3, #144	; 0x90
1000cf8e:	d1f7      	bne.n	1000cf80 <at_ble_init+0xa8>
1000cf90:	4c3a      	ldr	r4, [pc, #232]	; (1000d07c <at_ble_init+0x1a4>)
1000cf92:	3b81      	subs	r3, #129	; 0x81
1000cf94:	7023      	strb	r3, [r4, #0]
1000cf96:	4b3a      	ldr	r3, [pc, #232]	; (1000d080 <at_ble_init+0x1a8>)
1000cf98:	4a3a      	ldr	r2, [pc, #232]	; (1000d084 <at_ble_init+0x1ac>)
1000cf9a:	8063      	strh	r3, [r4, #2]
1000cf9c:	2300      	movs	r3, #0
1000cf9e:	7123      	strb	r3, [r4, #4]
1000cfa0:	3301      	adds	r3, #1
1000cfa2:	1e58      	subs	r0, r3, #1
1000cfa4:	0119      	lsls	r1, r3, #4
1000cfa6:	4301      	orrs	r1, r0
1000cfa8:	3302      	adds	r3, #2
1000cfaa:	7011      	strb	r1, [r2, #0]
1000cfac:	3201      	adds	r2, #1
1000cfae:	2b21      	cmp	r3, #33	; 0x21
1000cfb0:	d1f7      	bne.n	1000cfa2 <at_ble_init+0xca>
1000cfb2:	33e0      	adds	r3, #224	; 0xe0
1000cfb4:	33ff      	adds	r3, #255	; 0xff
1000cfb6:	84a3      	strh	r3, [r4, #36]	; 0x24
1000cfb8:	1c23      	adds	r3, r4, #0
1000cfba:	2500      	movs	r5, #0
1000cfbc:	3373      	adds	r3, #115	; 0x73
1000cfbe:	701d      	strb	r5, [r3, #0]
1000cfc0:	1c23      	adds	r3, r4, #0
1000cfc2:	3372      	adds	r3, #114	; 0x72
1000cfc4:	701d      	strb	r5, [r3, #0]
1000cfc6:	1c23      	adds	r3, r4, #0
1000cfc8:	3376      	adds	r3, #118	; 0x76
1000cfca:	701d      	strb	r5, [r3, #0]
1000cfcc:	1c23      	adds	r3, r4, #0
1000cfce:	33cc      	adds	r3, #204	; 0xcc
1000cfd0:	801d      	strh	r5, [r3, #0]
1000cfd2:	1c22      	adds	r2, r4, #0
1000cfd4:	23a0      	movs	r3, #160	; 0xa0
1000cfd6:	32d0      	adds	r2, #208	; 0xd0
1000cfd8:	005b      	lsls	r3, r3, #1
1000cfda:	8013      	strh	r3, [r2, #0]
1000cfdc:	1c22      	adds	r2, r4, #0
1000cfde:	32ce      	adds	r2, #206	; 0xce
1000cfe0:	8013      	strh	r3, [r2, #0]
1000cfe2:	1c23      	adds	r3, r4, #0
1000cfe4:	33d2      	adds	r3, #210	; 0xd2
1000cfe6:	801d      	strh	r5, [r3, #0]
1000cfe8:	22fa      	movs	r2, #250	; 0xfa
1000cfea:	1c23      	adds	r3, r4, #0
1000cfec:	0052      	lsls	r2, r2, #1
1000cfee:	33d4      	adds	r3, #212	; 0xd4
1000cff0:	801a      	strh	r2, [r3, #0]
1000cff2:	1c23      	adds	r3, r4, #0
1000cff4:	33d6      	adds	r3, #214	; 0xd6
1000cff6:	701d      	strb	r5, [r3, #0]
1000cff8:	1c20      	adds	r0, r4, #0
1000cffa:	4b23      	ldr	r3, [pc, #140]	; (1000d088 <at_ble_init+0x1b0>)
1000cffc:	76e5      	strb	r5, [r4, #27]
1000cffe:	7725      	strb	r5, [r4, #28]
1000d000:	7765      	strb	r5, [r4, #29]
1000d002:	77a5      	strb	r5, [r4, #30]
1000d004:	77e5      	strb	r5, [r4, #31]
1000d006:	8425      	strh	r5, [r4, #32]
1000d008:	8465      	strh	r5, [r4, #34]	; 0x22
1000d00a:	4798      	blx	r3
1000d00c:	1c23      	adds	r3, r4, #0
1000d00e:	2207      	movs	r2, #7
1000d010:	3374      	adds	r3, #116	; 0x74
1000d012:	701a      	strb	r2, [r3, #0]
1000d014:	1c23      	adds	r3, r4, #0
1000d016:	3204      	adds	r2, #4
1000d018:	33aa      	adds	r3, #170	; 0xaa
1000d01a:	801a      	strh	r2, [r3, #0]
1000d01c:	1c2b      	adds	r3, r5, #0
1000d01e:	5d7a      	ldrb	r2, [r7, r5]
1000d020:	33ac      	adds	r3, #172	; 0xac
1000d022:	3501      	adds	r5, #1
1000d024:	54e2      	strb	r2, [r4, r3]
1000d026:	2d0b      	cmp	r5, #11
1000d028:	d1f8      	bne.n	1000d01c <at_ble_init+0x144>
1000d02a:	1c30      	adds	r0, r6, #0
1000d02c:	b007      	add	sp, #28
1000d02e:	bdf0      	pop	{r4, r5, r6, r7, pc}
1000d030:	10011d6f 	.word	0x10011d6f
1000d034:	10010b37 	.word	0x10010b37
1000d038:	10014760 	.word	0x10014760
1000d03c:	100139b8 	.word	0x100139b8
1000d040:	10013918 	.word	0x10013918
1000d044:	10011e98 	.word	0x10011e98
1000d048:	1000f68d 	.word	0x1000f68d
1000d04c:	1000d349 	.word	0x1000d349
1000d050:	1000d9a9 	.word	0x1000d9a9
1000d054:	1000dc5d 	.word	0x1000dc5d
1000d058:	1000d9e5 	.word	0x1000d9e5
1000d05c:	1000badd 	.word	0x1000badd
1000d060:	1000df5d 	.word	0x1000df5d
1000d064:	1000bd0d 	.word	0x1000bd0d
1000d068:	1000e005 	.word	0x1000e005
1000d06c:	1000c5c5 	.word	0x1000c5c5
1000d070:	1000c681 	.word	0x1000c681
1000d074:	1000ebcd 	.word	0x1000ebcd
1000d078:	10014762 	.word	0x10014762
1000d07c:	100147f2 	.word	0x100147f2
1000d080:	00003a98 	.word	0x00003a98
1000d084:	100147fd 	.word	0x100147fd
1000d088:	1000ce49 	.word	0x1000ce49

1000d08c <at_ble_addr_set>:
1000d08c:	b538      	push	{r3, r4, r5, lr}
1000d08e:	1c45      	adds	r5, r0, #1
1000d090:	1c03      	adds	r3, r0, #0
1000d092:	20cf      	movs	r0, #207	; 0xcf
1000d094:	2d00      	cmp	r5, #0
1000d096:	d018      	beq.n	1000d0ca <at_ble_addr_set+0x3e>
1000d098:	781a      	ldrb	r2, [r3, #0]
1000d09a:	2a03      	cmp	r2, #3
1000d09c:	d815      	bhi.n	1000d0ca <at_ble_addr_set+0x3e>
1000d09e:	2a01      	cmp	r2, #1
1000d0a0:	d102      	bne.n	1000d0a8 <at_ble_addr_set+0x1c>
1000d0a2:	785a      	ldrb	r2, [r3, #1]
1000d0a4:	2a00      	cmp	r2, #0
1000d0a6:	d010      	beq.n	1000d0ca <at_ble_addr_set+0x3e>
1000d0a8:	1c1c      	adds	r4, r3, #0
1000d0aa:	1c29      	adds	r1, r5, #0
1000d0ac:	2206      	movs	r2, #6
1000d0ae:	4b07      	ldr	r3, [pc, #28]	; (1000d0cc <at_ble_addr_set+0x40>)
1000d0b0:	4807      	ldr	r0, [pc, #28]	; (1000d0d0 <at_ble_addr_set+0x44>)
1000d0b2:	4798      	blx	r3
1000d0b4:	7823      	ldrb	r3, [r4, #0]
1000d0b6:	4807      	ldr	r0, [pc, #28]	; (1000d0d4 <at_ble_addr_set+0x48>)
1000d0b8:	7103      	strb	r3, [r0, #4]
1000d0ba:	4b07      	ldr	r3, [pc, #28]	; (1000d0d8 <at_ble_addr_set+0x4c>)
1000d0bc:	4798      	blx	r3
1000d0be:	7823      	ldrb	r3, [r4, #0]
1000d0c0:	2b00      	cmp	r3, #0
1000d0c2:	d102      	bne.n	1000d0ca <at_ble_addr_set+0x3e>
1000d0c4:	1c28      	adds	r0, r5, #0
1000d0c6:	4b05      	ldr	r3, [pc, #20]	; (1000d0dc <at_ble_addr_set+0x50>)
1000d0c8:	4798      	blx	r3
1000d0ca:	bd38      	pop	{r3, r4, r5, pc}
1000d0cc:	10010b37 	.word	0x10010b37
1000d0d0:	100147f7 	.word	0x100147f7
1000d0d4:	100147f2 	.word	0x100147f2
1000d0d8:	1000ce49 	.word	0x1000ce49
1000d0dc:	1000e089 	.word	0x1000e089

1000d0e0 <at_ble_adv_data_set>:
1000d0e0:	b5f8      	push	{r3, r4, r5, r6, r7, lr}
1000d0e2:	4684      	mov	ip, r0
1000d0e4:	1c0f      	adds	r7, r1, #0
1000d0e6:	1c16      	adds	r6, r2, #0
1000d0e8:	1c1c      	adds	r4, r3, #0
1000d0ea:	2800      	cmp	r0, #0
1000d0ec:	d102      	bne.n	1000d0f4 <at_ble_adv_data_set+0x14>
1000d0ee:	20e2      	movs	r0, #226	; 0xe2
1000d0f0:	2a00      	cmp	r2, #0
1000d0f2:	d02b      	beq.n	1000d14c <at_ble_adv_data_set+0x6c>
1000d0f4:	20cf      	movs	r0, #207	; 0xcf
1000d0f6:	2f1f      	cmp	r7, #31
1000d0f8:	d828      	bhi.n	1000d14c <at_ble_adv_data_set+0x6c>
1000d0fa:	2c1f      	cmp	r4, #31
1000d0fc:	d826      	bhi.n	1000d14c <at_ble_adv_data_set+0x6c>
1000d0fe:	4663      	mov	r3, ip
1000d100:	2b00      	cmp	r3, #0
1000d102:	d00e      	beq.n	1000d122 <at_ble_adv_data_set+0x42>
1000d104:	4812      	ldr	r0, [pc, #72]	; (1000d150 <at_ble_adv_data_set+0x70>)
1000d106:	4d13      	ldr	r5, [pc, #76]	; (1000d154 <at_ble_adv_data_set+0x74>)
1000d108:	2f00      	cmp	r7, #0
1000d10a:	d104      	bne.n	1000d116 <at_ble_adv_data_set+0x36>
1000d10c:	1c39      	adds	r1, r7, #0
1000d10e:	221f      	movs	r2, #31
1000d110:	4b11      	ldr	r3, [pc, #68]	; (1000d158 <at_ble_adv_data_set+0x78>)
1000d112:	4798      	blx	r3
1000d114:	e003      	b.n	1000d11e <at_ble_adv_data_set+0x3e>
1000d116:	4661      	mov	r1, ip
1000d118:	1c3a      	adds	r2, r7, #0
1000d11a:	4b10      	ldr	r3, [pc, #64]	; (1000d15c <at_ble_adv_data_set+0x7c>)
1000d11c:	4798      	blx	r3
1000d11e:	3572      	adds	r5, #114	; 0x72
1000d120:	702f      	strb	r7, [r5, #0]
1000d122:	1e30      	subs	r0, r6, #0
1000d124:	d012      	beq.n	1000d14c <at_ble_adv_data_set+0x6c>
1000d126:	4d0b      	ldr	r5, [pc, #44]	; (1000d154 <at_ble_adv_data_set+0x74>)
1000d128:	480d      	ldr	r0, [pc, #52]	; (1000d160 <at_ble_adv_data_set+0x80>)
1000d12a:	2c00      	cmp	r4, #0
1000d12c:	d107      	bne.n	1000d13e <at_ble_adv_data_set+0x5e>
1000d12e:	1c21      	adds	r1, r4, #0
1000d130:	221f      	movs	r2, #31
1000d132:	4b09      	ldr	r3, [pc, #36]	; (1000d158 <at_ble_adv_data_set+0x78>)
1000d134:	3573      	adds	r5, #115	; 0x73
1000d136:	4798      	blx	r3
1000d138:	702c      	strb	r4, [r5, #0]
1000d13a:	1c20      	adds	r0, r4, #0
1000d13c:	e006      	b.n	1000d14c <at_ble_adv_data_set+0x6c>
1000d13e:	1c31      	adds	r1, r6, #0
1000d140:	1c22      	adds	r2, r4, #0
1000d142:	4b06      	ldr	r3, [pc, #24]	; (1000d15c <at_ble_adv_data_set+0x7c>)
1000d144:	4798      	blx	r3
1000d146:	2000      	movs	r0, #0
1000d148:	3573      	adds	r5, #115	; 0x73
1000d14a:	702c      	strb	r4, [r5, #0]
1000d14c:	bdf8      	pop	{r3, r4, r5, r6, r7, pc}
1000d14e:	46c0      	nop			; (mov r8, r8)
1000d150:	10014826 	.word	0x10014826
1000d154:	100147f2 	.word	0x100147f2
1000d158:	10010b49 	.word	0x10010b49
1000d15c:	10010b37 	.word	0x10010b37
1000d160:	10014845 	.word	0x10014845

1000d164 <at_ble_adv_start>:
1000d164:	b5f0      	push	{r4, r5, r6, r7, lr}
1000d166:	b091      	sub	sp, #68	; 0x44
1000d168:	1c1f      	adds	r7, r3, #0
1000d16a:	ab16      	add	r3, sp, #88	; 0x58
1000d16c:	881d      	ldrh	r5, [r3, #0]
1000d16e:	ab17      	add	r3, sp, #92	; 0x5c
1000d170:	881b      	ldrh	r3, [r3, #0]
1000d172:	910d      	str	r1, [sp, #52]	; 0x34
1000d174:	930e      	str	r3, [sp, #56]	; 0x38
1000d176:	ab18      	add	r3, sp, #96	; 0x60
1000d178:	781b      	ldrb	r3, [r3, #0]
1000d17a:	1c04      	adds	r4, r0, #0
1000d17c:	930f      	str	r3, [sp, #60]	; 0x3c
1000d17e:	4b42      	ldr	r3, [pc, #264]	; (1000d288 <at_ble_adv_start+0x124>)
1000d180:	1c16      	adds	r6, r2, #0
1000d182:	3373      	adds	r3, #115	; 0x73
1000d184:	781b      	ldrb	r3, [r3, #0]
1000d186:	20cf      	movs	r0, #207	; 0xcf
1000d188:	930c      	str	r3, [sp, #48]	; 0x30
1000d18a:	2c01      	cmp	r4, #1
1000d18c:	d103      	bne.n	1000d196 <at_ble_adv_start+0x32>
1000d18e:	9b0e      	ldr	r3, [sp, #56]	; 0x38
1000d190:	2b00      	cmp	r3, #0
1000d192:	d176      	bne.n	1000d282 <at_ble_adv_start+0x11e>
1000d194:	e024      	b.n	1000d1e0 <at_ble_adv_start+0x7c>
1000d196:	2c04      	cmp	r4, #4
1000d198:	d873      	bhi.n	1000d282 <at_ble_adv_start+0x11e>
1000d19a:	2380      	movs	r3, #128	; 0x80
1000d19c:	01db      	lsls	r3, r3, #7
1000d19e:	429d      	cmp	r5, r3
1000d1a0:	d86f      	bhi.n	1000d282 <at_ble_adv_start+0x11e>
1000d1a2:	2c00      	cmp	r4, #0
1000d1a4:	d102      	bne.n	1000d1ac <at_ble_adv_start+0x48>
1000d1a6:	2d1f      	cmp	r5, #31
1000d1a8:	d96b      	bls.n	1000d282 <at_ble_adv_start+0x11e>
1000d1aa:	e003      	b.n	1000d1b4 <at_ble_adv_start+0x50>
1000d1ac:	2d9f      	cmp	r5, #159	; 0x9f
1000d1ae:	d801      	bhi.n	1000d1b4 <at_ble_adv_start+0x50>
1000d1b0:	2c01      	cmp	r4, #1
1000d1b2:	d166      	bne.n	1000d282 <at_ble_adv_start+0x11e>
1000d1b4:	2f00      	cmp	r7, #0
1000d1b6:	d009      	beq.n	1000d1cc <at_ble_adv_start+0x68>
1000d1b8:	9b0d      	ldr	r3, [sp, #52]	; 0x34
1000d1ba:	20cf      	movs	r0, #207	; 0xcf
1000d1bc:	3b01      	subs	r3, #1
1000d1be:	2b01      	cmp	r3, #1
1000d1c0:	d95f      	bls.n	1000d282 <at_ble_adv_start+0x11e>
1000d1c2:	2c01      	cmp	r4, #1
1000d1c4:	d102      	bne.n	1000d1cc <at_ble_adv_start+0x68>
1000d1c6:	2d00      	cmp	r5, #0
1000d1c8:	d100      	bne.n	1000d1cc <at_ble_adv_start+0x68>
1000d1ca:	3520      	adds	r5, #32
1000d1cc:	4b2f      	ldr	r3, [pc, #188]	; (1000d28c <at_ble_adv_start+0x128>)
1000d1ce:	4798      	blx	r3
1000d1d0:	1c01      	adds	r1, r0, #0
1000d1d2:	2e00      	cmp	r6, #0
1000d1d4:	d043      	beq.n	1000d25e <at_ble_adv_start+0xfa>
1000d1d6:	7833      	ldrb	r3, [r6, #0]
1000d1d8:	1e60      	subs	r0, r4, #1
1000d1da:	2b00      	cmp	r3, #0
1000d1dc:	d109      	bne.n	1000d1f2 <at_ble_adv_start+0x8e>
1000d1de:	e03b      	b.n	1000d258 <at_ble_adv_start+0xf4>
1000d1e0:	2380      	movs	r3, #128	; 0x80
1000d1e2:	01db      	lsls	r3, r3, #7
1000d1e4:	429d      	cmp	r5, r3
1000d1e6:	d84c      	bhi.n	1000d282 <at_ble_adv_start+0x11e>
1000d1e8:	2e00      	cmp	r6, #0
1000d1ea:	d04a      	beq.n	1000d282 <at_ble_adv_start+0x11e>
1000d1ec:	2f00      	cmp	r7, #0
1000d1ee:	d1e3      	bne.n	1000d1b8 <at_ble_adv_start+0x54>
1000d1f0:	e02b      	b.n	1000d24a <at_ble_adv_start+0xe6>
1000d1f2:	2301      	movs	r3, #1
1000d1f4:	2803      	cmp	r0, #3
1000d1f6:	d93a      	bls.n	1000d26e <at_ble_adv_start+0x10a>
1000d1f8:	200d      	movs	r0, #13
1000d1fa:	1c72      	adds	r2, r6, #1
1000d1fc:	e002      	b.n	1000d204 <at_ble_adv_start+0xa0>
1000d1fe:	200e      	movs	r0, #14
1000d200:	1e32      	subs	r2, r6, #0
1000d202:	d1fa      	bne.n	1000d1fa <at_ble_adv_start+0x96>
1000d204:	4c20      	ldr	r4, [pc, #128]	; (1000d288 <at_ble_adv_start+0x124>)
1000d206:	3474      	adds	r4, #116	; 0x74
1000d208:	7826      	ldrb	r6, [r4, #0]
1000d20a:	2407      	movs	r4, #7
1000d20c:	2e00      	cmp	r6, #0
1000d20e:	d000      	beq.n	1000d212 <at_ble_adv_start+0xae>
1000d210:	1c34      	adds	r4, r6, #0
1000d212:	9200      	str	r2, [sp, #0]
1000d214:	9a0d      	ldr	r2, [sp, #52]	; 0x34
1000d216:	9403      	str	r4, [sp, #12]
1000d218:	9204      	str	r2, [sp, #16]
1000d21a:	4a1b      	ldr	r2, [pc, #108]	; (1000d288 <at_ble_adv_start+0x124>)
1000d21c:	9501      	str	r5, [sp, #4]
1000d21e:	9502      	str	r5, [sp, #8]
1000d220:	9705      	str	r7, [sp, #20]
1000d222:	3272      	adds	r2, #114	; 0x72
1000d224:	7812      	ldrb	r2, [r2, #0]
1000d226:	9c0e      	ldr	r4, [sp, #56]	; 0x38
1000d228:	9206      	str	r2, [sp, #24]
1000d22a:	4a19      	ldr	r2, [pc, #100]	; (1000d290 <at_ble_adv_start+0x12c>)
1000d22c:	9207      	str	r2, [sp, #28]
1000d22e:	9a0c      	ldr	r2, [sp, #48]	; 0x30
1000d230:	9208      	str	r2, [sp, #32]
1000d232:	4a18      	ldr	r2, [pc, #96]	; (1000d294 <at_ble_adv_start+0x130>)
1000d234:	9209      	str	r2, [sp, #36]	; 0x24
1000d236:	2264      	movs	r2, #100	; 0x64
1000d238:	4362      	muls	r2, r4
1000d23a:	b292      	uxth	r2, r2
1000d23c:	920a      	str	r2, [sp, #40]	; 0x28
1000d23e:	9a0f      	ldr	r2, [sp, #60]	; 0x3c
1000d240:	4c15      	ldr	r4, [pc, #84]	; (1000d298 <at_ble_adv_start+0x134>)
1000d242:	920b      	str	r2, [sp, #44]	; 0x2c
1000d244:	4a15      	ldr	r2, [pc, #84]	; (1000d29c <at_ble_adv_start+0x138>)
1000d246:	47a0      	blx	r4
1000d248:	e01b      	b.n	1000d282 <at_ble_adv_start+0x11e>
1000d24a:	2d00      	cmp	r5, #0
1000d24c:	d1be      	bne.n	1000d1cc <at_ble_adv_start+0x68>
1000d24e:	4b0f      	ldr	r3, [pc, #60]	; (1000d28c <at_ble_adv_start+0x128>)
1000d250:	4798      	blx	r3
1000d252:	2520      	movs	r5, #32
1000d254:	1c01      	adds	r1, r0, #0
1000d256:	e7be      	b.n	1000d1d6 <at_ble_adv_start+0x72>
1000d258:	2803      	cmp	r0, #3
1000d25a:	d8cd      	bhi.n	1000d1f8 <at_ble_adv_start+0x94>
1000d25c:	e006      	b.n	1000d26c <at_ble_adv_start+0x108>
1000d25e:	1e60      	subs	r0, r4, #1
1000d260:	2803      	cmp	r0, #3
1000d262:	d903      	bls.n	1000d26c <at_ble_adv_start+0x108>
1000d264:	1c33      	adds	r3, r6, #0
1000d266:	200d      	movs	r0, #13
1000d268:	1c32      	adds	r2, r6, #0
1000d26a:	e7cb      	b.n	1000d204 <at_ble_adv_start+0xa0>
1000d26c:	2300      	movs	r3, #0
1000d26e:	f002 fb7f 	bl	1000f970 <__gnu_thumb1_case_sqi>
1000d272:	06c6      	.short	0x06c6
1000d274:	0204      	.short	0x0204
1000d276:	200f      	movs	r0, #15
1000d278:	e7c2      	b.n	1000d200 <at_ble_adv_start+0x9c>
1000d27a:	2200      	movs	r2, #0
1000d27c:	920c      	str	r2, [sp, #48]	; 0x30
1000d27e:	200c      	movs	r0, #12
1000d280:	e7be      	b.n	1000d200 <at_ble_adv_start+0x9c>
1000d282:	b011      	add	sp, #68	; 0x44
1000d284:	bdf0      	pop	{r4, r5, r6, r7, pc}
1000d286:	46c0      	nop			; (mov r8, r8)
1000d288:	100147f2 	.word	0x100147f2
1000d28c:	1000f119 	.word	0x1000f119
1000d290:	10014826 	.word	0x10014826
1000d294:	10014845 	.word	0x10014845
1000d298:	1000eff9 	.word	0x1000eff9
1000d29c:	00003a98 	.word	0x00003a98

1000d2a0 <at_ble_adv_stop>:
1000d2a0:	b508      	push	{r3, lr}
1000d2a2:	4b01      	ldr	r3, [pc, #4]	; (1000d2a8 <at_ble_adv_stop+0x8>)
1000d2a4:	4798      	blx	r3
1000d2a6:	bd08      	pop	{r3, pc}
1000d2a8:	1000ee25 	.word	0x1000ee25

1000d2ac <at_ble_scan_stop>:
1000d2ac:	b510      	push	{r4, lr}
1000d2ae:	4b05      	ldr	r3, [pc, #20]	; (1000d2c4 <at_ble_scan_stop+0x18>)
1000d2b0:	4798      	blx	r3
1000d2b2:	1e04      	subs	r4, r0, #0
1000d2b4:	d103      	bne.n	1000d2be <at_ble_scan_stop+0x12>
1000d2b6:	20d1      	movs	r0, #209	; 0xd1
1000d2b8:	4b03      	ldr	r3, [pc, #12]	; (1000d2c8 <at_ble_scan_stop+0x1c>)
1000d2ba:	0100      	lsls	r0, r0, #4
1000d2bc:	4798      	blx	r3
1000d2be:	1c20      	adds	r0, r4, #0
1000d2c0:	bd10      	pop	{r4, pc}
1000d2c2:	46c0      	nop			; (mov r8, r8)
1000d2c4:	1000ee25 	.word	0x1000ee25
1000d2c8:	1000cd59 	.word	0x1000cd59

1000d2cc <at_ble_disconnect>:
1000d2cc:	b538      	push	{r3, r4, r5, lr}
1000d2ce:	1c04      	adds	r4, r0, #0
1000d2d0:	4b04      	ldr	r3, [pc, #16]	; (1000d2e4 <at_ble_disconnect+0x18>)
1000d2d2:	1c08      	adds	r0, r1, #0
1000d2d4:	1c21      	adds	r1, r4, #0
1000d2d6:	4798      	blx	r3
1000d2d8:	1c05      	adds	r5, r0, #0
1000d2da:	4b03      	ldr	r3, [pc, #12]	; (1000d2e8 <at_ble_disconnect+0x1c>)
1000d2dc:	1c20      	adds	r0, r4, #0
1000d2de:	4798      	blx	r3
1000d2e0:	1c28      	adds	r0, r5, #0
1000d2e2:	bd38      	pop	{r3, r4, r5, pc}
1000d2e4:	1000e49d 	.word	0x1000e49d
1000d2e8:	1000cd9d 	.word	0x1000cd9d

1000d2ec <at_ble_conn_update_reply>:
1000d2ec:	b510      	push	{r4, lr}
1000d2ee:	4c01      	ldr	r4, [pc, #4]	; (1000d2f4 <at_ble_conn_update_reply+0x8>)
1000d2f0:	47a0      	blx	r4
1000d2f2:	bd10      	pop	{r4, pc}
1000d2f4:	1000e98d 	.word	0x1000e98d

1000d2f8 <at_ble_random_address_resolve>:
1000d2f8:	b510      	push	{r4, lr}
1000d2fa:	23cf      	movs	r3, #207	; 0xcf
1000d2fc:	2800      	cmp	r0, #0
1000d2fe:	d00a      	beq.n	1000d316 <at_ble_random_address_resolve+0x1e>
1000d300:	2900      	cmp	r1, #0
1000d302:	d008      	beq.n	1000d316 <at_ble_random_address_resolve+0x1e>
1000d304:	2a00      	cmp	r2, #0
1000d306:	d006      	beq.n	1000d316 <at_ble_random_address_resolve+0x1e>
1000d308:	780c      	ldrb	r4, [r1, #0]
1000d30a:	2c02      	cmp	r4, #2
1000d30c:	d103      	bne.n	1000d316 <at_ble_random_address_resolve+0x1e>
1000d30e:	4b03      	ldr	r3, [pc, #12]	; (1000d31c <at_ble_random_address_resolve+0x24>)
1000d310:	3101      	adds	r1, #1
1000d312:	4798      	blx	r3
1000d314:	2300      	movs	r3, #0
1000d316:	1c18      	adds	r0, r3, #0
1000d318:	bd10      	pop	{r4, pc}
1000d31a:	46c0      	nop			; (mov r8, r8)
1000d31c:	1000f1b9 	.word	0x1000f1b9

1000d320 <at_ble_uuid_type2len>:
1000d320:	23cf      	movs	r3, #207	; 0xcf
1000d322:	2802      	cmp	r0, #2
1000d324:	d801      	bhi.n	1000d32a <at_ble_uuid_type2len+0xa>
1000d326:	4b02      	ldr	r3, [pc, #8]	; (1000d330 <at_ble_uuid_type2len+0x10>)
1000d328:	5c1b      	ldrb	r3, [r3, r0]
1000d32a:	1c18      	adds	r0, r3, #0
1000d32c:	4770      	bx	lr
1000d32e:	46c0      	nop			; (mov r8, r8)
1000d330:	10011d7a 	.word	0x10011d7a

1000d334 <at_ble_uuid_len2type>:
1000d334:	1e83      	subs	r3, r0, #2
1000d336:	b2db      	uxtb	r3, r3
1000d338:	2003      	movs	r0, #3
1000d33a:	2b0e      	cmp	r3, #14
1000d33c:	d801      	bhi.n	1000d342 <at_ble_uuid_len2type+0xe>
1000d33e:	4a01      	ldr	r2, [pc, #4]	; (1000d344 <at_ble_uuid_len2type+0x10>)
1000d340:	5cd0      	ldrb	r0, [r2, r3]
1000d342:	4770      	bx	lr
1000d344:	10011d7d 	.word	0x10011d7d

1000d348 <init_gatt_client_module>:
1000d348:	2200      	movs	r2, #0
1000d34a:	4b01      	ldr	r3, [pc, #4]	; (1000d350 <init_gatt_client_module+0x8>)
1000d34c:	801a      	strh	r2, [r3, #0]
1000d34e:	4770      	bx	lr
1000d350:	10013910 	.word	0x10013910

1000d354 <db_searchATT>:
1000d354:	b570      	push	{r4, r5, r6, lr}
1000d356:	1c05      	adds	r5, r0, #0
1000d358:	2400      	movs	r4, #0
1000d35a:	4b0c      	ldr	r3, [pc, #48]	; (1000d38c <db_searchATT+0x38>)
1000d35c:	6819      	ldr	r1, [r3, #0]
1000d35e:	4b0c      	ldr	r3, [pc, #48]	; (1000d390 <db_searchATT+0x3c>)
1000d360:	681e      	ldr	r6, [r3, #0]
1000d362:	428c      	cmp	r4, r1
1000d364:	dc10      	bgt.n	1000d388 <db_searchATT+0x34>
1000d366:	200c      	movs	r0, #12
1000d368:	1863      	adds	r3, r4, r1
1000d36a:	0fda      	lsrs	r2, r3, #31
1000d36c:	18d3      	adds	r3, r2, r3
1000d36e:	1c02      	adds	r2, r0, #0
1000d370:	105b      	asrs	r3, r3, #1
1000d372:	435a      	muls	r2, r3
1000d374:	18b0      	adds	r0, r6, r2
1000d376:	8802      	ldrh	r2, [r0, #0]
1000d378:	42aa      	cmp	r2, r5
1000d37a:	d201      	bcs.n	1000d380 <db_searchATT+0x2c>
1000d37c:	1e59      	subs	r1, r3, #1
1000d37e:	e7f0      	b.n	1000d362 <db_searchATT+0xe>
1000d380:	42aa      	cmp	r2, r5
1000d382:	d902      	bls.n	1000d38a <db_searchATT+0x36>
1000d384:	1c5c      	adds	r4, r3, #1
1000d386:	e7ec      	b.n	1000d362 <db_searchATT+0xe>
1000d388:	2000      	movs	r0, #0
1000d38a:	bd70      	pop	{r4, r5, r6, pc}
1000d38c:	10013924 	.word	0x10013924
1000d390:	1001391c 	.word	0x1001391c

1000d394 <att_permissions>:
1000d394:	b530      	push	{r4, r5, lr}
1000d396:	2403      	movs	r4, #3
1000d398:	1c05      	adds	r5, r0, #0
1000d39a:	2301      	movs	r3, #1
1000d39c:	4025      	ands	r5, r4
1000d39e:	42a5      	cmp	r5, r4
1000d3a0:	d009      	beq.n	1000d3b6 <att_permissions+0x22>
1000d3a2:	1c23      	adds	r3, r4, #0
1000d3a4:	1924      	adds	r4, r4, r4
1000d3a6:	4220      	tst	r0, r4
1000d3a8:	d105      	bne.n	1000d3b6 <att_permissions+0x22>
1000d3aa:	3b02      	subs	r3, #2
1000d3ac:	4218      	tst	r0, r3
1000d3ae:	d102      	bne.n	1000d3b6 <att_permissions+0x22>
1000d3b0:	1e4b      	subs	r3, r1, #1
1000d3b2:	4199      	sbcs	r1, r3
1000d3b4:	b28b      	uxth	r3, r1
1000d3b6:	2130      	movs	r1, #48	; 0x30
1000d3b8:	4001      	ands	r1, r0
1000d3ba:	2930      	cmp	r1, #48	; 0x30
1000d3bc:	d007      	beq.n	1000d3ce <att_permissions+0x3a>
1000d3be:	0641      	lsls	r1, r0, #25
1000d3c0:	d401      	bmi.n	1000d3c6 <att_permissions+0x32>
1000d3c2:	0681      	lsls	r1, r0, #26
1000d3c4:	d501      	bpl.n	1000d3ca <att_permissions+0x36>
1000d3c6:	4807      	ldr	r0, [pc, #28]	; (1000d3e4 <att_permissions+0x50>)
1000d3c8:	e009      	b.n	1000d3de <att_permissions+0x4a>
1000d3ca:	06c1      	lsls	r1, r0, #27
1000d3cc:	d501      	bpl.n	1000d3d2 <att_permissions+0x3e>
1000d3ce:	4806      	ldr	r0, [pc, #24]	; (1000d3e8 <att_permissions+0x54>)
1000d3d0:	e005      	b.n	1000d3de <att_permissions+0x4a>
1000d3d2:	2a00      	cmp	r2, #0
1000d3d4:	d001      	beq.n	1000d3da <att_permissions+0x46>
1000d3d6:	2204      	movs	r2, #4
1000d3d8:	4313      	orrs	r3, r2
1000d3da:	2080      	movs	r0, #128	; 0x80
1000d3dc:	0180      	lsls	r0, r0, #6
1000d3de:	4318      	orrs	r0, r3
1000d3e0:	bd30      	pop	{r4, r5, pc}
1000d3e2:	46c0      	nop			; (mov r8, r8)
1000d3e4:	0000200c 	.word	0x0000200c
1000d3e8:	00002004 	.word	0x00002004

1000d3ec <char_permissions>:
1000d3ec:	b530      	push	{r4, r5, lr}
1000d3ee:	2300      	movs	r3, #0
1000d3f0:	0784      	lsls	r4, r0, #30
1000d3f2:	d503      	bpl.n	1000d3fc <char_permissions+0x10>
1000d3f4:	3301      	adds	r3, #1
1000d3f6:	4219      	tst	r1, r3
1000d3f8:	d100      	bne.n	1000d3fc <char_permissions+0x10>
1000d3fa:	3302      	adds	r3, #2
1000d3fc:	0704      	lsls	r4, r0, #28
1000d3fe:	d508      	bpl.n	1000d412 <char_permissions+0x26>
1000d400:	06cc      	lsls	r4, r1, #27
1000d402:	d501      	bpl.n	1000d408 <char_permissions+0x1c>
1000d404:	2404      	movs	r4, #4
1000d406:	e000      	b.n	1000d40a <char_permissions+0x1e>
1000d408:	240c      	movs	r4, #12
1000d40a:	4323      	orrs	r3, r4
1000d40c:	2480      	movs	r4, #128	; 0x80
1000d40e:	01a4      	lsls	r4, r4, #6
1000d410:	4323      	orrs	r3, r4
1000d412:	0684      	lsls	r4, r0, #26
1000d414:	d506      	bpl.n	1000d424 <char_permissions+0x38>
1000d416:	2406      	movs	r4, #6
1000d418:	4221      	tst	r1, r4
1000d41a:	d101      	bne.n	1000d420 <char_permissions+0x34>
1000d41c:	340a      	adds	r4, #10
1000d41e:	e000      	b.n	1000d422 <char_permissions+0x36>
1000d420:	2430      	movs	r4, #48	; 0x30
1000d422:	4323      	orrs	r3, r4
1000d424:	06c4      	lsls	r4, r0, #27
1000d426:	d506      	bpl.n	1000d436 <char_permissions+0x4a>
1000d428:	2406      	movs	r4, #6
1000d42a:	4221      	tst	r1, r4
1000d42c:	d101      	bne.n	1000d432 <char_permissions+0x46>
1000d42e:	343a      	adds	r4, #58	; 0x3a
1000d430:	e000      	b.n	1000d434 <char_permissions+0x48>
1000d432:	24c0      	movs	r4, #192	; 0xc0
1000d434:	4323      	orrs	r3, r4
1000d436:	2480      	movs	r4, #128	; 0x80
1000d438:	0064      	lsls	r4, r4, #1
1000d43a:	4220      	tst	r0, r4
1000d43c:	d000      	beq.n	1000d440 <char_permissions+0x54>
1000d43e:	4323      	orrs	r3, r4
1000d440:	07c4      	lsls	r4, r0, #31
1000d442:	d502      	bpl.n	1000d44a <char_permissions+0x5e>
1000d444:	2480      	movs	r4, #128	; 0x80
1000d446:	00a4      	lsls	r4, r4, #2
1000d448:	4323      	orrs	r3, r4
1000d44a:	2404      	movs	r4, #4
1000d44c:	4220      	tst	r0, r4
1000d44e:	d006      	beq.n	1000d45e <char_permissions+0x72>
1000d450:	06cd      	lsls	r5, r1, #27
1000d452:	d400      	bmi.n	1000d456 <char_permissions+0x6a>
1000d454:	240c      	movs	r4, #12
1000d456:	4323      	orrs	r3, r4
1000d458:	2480      	movs	r4, #128	; 0x80
1000d45a:	0124      	lsls	r4, r4, #4
1000d45c:	4323      	orrs	r3, r4
1000d45e:	0644      	lsls	r4, r0, #25
1000d460:	d501      	bpl.n	1000d466 <char_permissions+0x7a>
1000d462:	4c08      	ldr	r4, [pc, #32]	; (1000d484 <char_permissions+0x98>)
1000d464:	4323      	orrs	r3, r4
1000d466:	0600      	lsls	r0, r0, #24
1000d468:	d507      	bpl.n	1000d47a <char_permissions+0x8e>
1000d46a:	2004      	movs	r0, #4
1000d46c:	06c9      	lsls	r1, r1, #27
1000d46e:	d400      	bmi.n	1000d472 <char_permissions+0x86>
1000d470:	200c      	movs	r0, #12
1000d472:	4303      	orrs	r3, r0
1000d474:	2084      	movs	r0, #132	; 0x84
1000d476:	0180      	lsls	r0, r0, #6
1000d478:	4303      	orrs	r3, r0
1000d47a:	0390      	lsls	r0, r2, #14
1000d47c:	4303      	orrs	r3, r0
1000d47e:	b298      	uxth	r0, r3
1000d480:	bd30      	pop	{r4, r5, pc}
1000d482:	46c0      	nop			; (mov r8, r8)
1000d484:	00001004 	.word	0x00001004

1000d488 <presentation_format_define>:
1000d488:	b507      	push	{r0, r1, r2, lr}
1000d48a:	466a      	mov	r2, sp
1000d48c:	780b      	ldrb	r3, [r1, #0]
1000d48e:	7013      	strb	r3, [r2, #0]
1000d490:	784b      	ldrb	r3, [r1, #1]
1000d492:	7053      	strb	r3, [r2, #1]
1000d494:	884b      	ldrh	r3, [r1, #2]
1000d496:	7093      	strb	r3, [r2, #2]
1000d498:	0a1b      	lsrs	r3, r3, #8
1000d49a:	70d3      	strb	r3, [r2, #3]
1000d49c:	790b      	ldrb	r3, [r1, #4]
1000d49e:	7113      	strb	r3, [r2, #4]
1000d4a0:	88cb      	ldrh	r3, [r1, #6]
1000d4a2:	2107      	movs	r1, #7
1000d4a4:	7153      	strb	r3, [r2, #5]
1000d4a6:	0a1b      	lsrs	r3, r3, #8
1000d4a8:	7193      	strb	r3, [r2, #6]
1000d4aa:	4b01      	ldr	r3, [pc, #4]	; (1000d4b0 <presentation_format_define+0x28>)
1000d4ac:	4798      	blx	r3
1000d4ae:	bd0e      	pop	{r1, r2, r3, pc}
1000d4b0:	1000f81d 	.word	0x1000f81d

1000d4b4 <db_addATT>:
1000d4b4:	b5f7      	push	{r0, r1, r2, r4, r5, r6, r7, lr}
1000d4b6:	4c29      	ldr	r4, [pc, #164]	; (1000d55c <db_addATT+0xa8>)
1000d4b8:	1c1d      	adds	r5, r3, #0
1000d4ba:	6823      	ldr	r3, [r4, #0]
1000d4bc:	9001      	str	r0, [sp, #4]
1000d4be:	26d3      	movs	r6, #211	; 0xd3
1000d4c0:	2b00      	cmp	r3, #0
1000d4c2:	d048      	beq.n	1000d556 <db_addATT+0xa2>
1000d4c4:	1c1e      	adds	r6, r3, #0
1000d4c6:	3e0c      	subs	r6, #12
1000d4c8:	6026      	str	r6, [r4, #0]
1000d4ca:	2900      	cmp	r1, #0
1000d4cc:	d005      	beq.n	1000d4da <db_addATT+0x26>
1000d4ce:	4f24      	ldr	r7, [pc, #144]	; (1000d560 <db_addATT+0xac>)
1000d4d0:	46bc      	mov	ip, r7
1000d4d2:	4660      	mov	r0, ip
1000d4d4:	683f      	ldr	r7, [r7, #0]
1000d4d6:	18bf      	adds	r7, r7, r2
1000d4d8:	6007      	str	r7, [r0, #0]
1000d4da:	4821      	ldr	r0, [pc, #132]	; (1000d560 <db_addATT+0xac>)
1000d4dc:	6807      	ldr	r7, [r0, #0]
1000d4de:	4684      	mov	ip, r0
1000d4e0:	42be      	cmp	r6, r7
1000d4e2:	d932      	bls.n	1000d54a <db_addATT+0x96>
1000d4e4:	4668      	mov	r0, sp
1000d4e6:	8880      	ldrh	r0, [r0, #4]
1000d4e8:	3b0c      	subs	r3, #12
1000d4ea:	8018      	strh	r0, [r3, #0]
1000d4ec:	6823      	ldr	r3, [r4, #0]
1000d4ee:	2900      	cmp	r1, #0
1000d4f0:	d009      	beq.n	1000d506 <db_addATT+0x52>
1000d4f2:	2a00      	cmp	r2, #0
1000d4f4:	d007      	beq.n	1000d506 <db_addATT+0x52>
1000d4f6:	4660      	mov	r0, ip
1000d4f8:	6800      	ldr	r0, [r0, #0]
1000d4fa:	809a      	strh	r2, [r3, #4]
1000d4fc:	1a80      	subs	r0, r0, r2
1000d4fe:	6098      	str	r0, [r3, #8]
1000d500:	4b18      	ldr	r3, [pc, #96]	; (1000d564 <db_addATT+0xb0>)
1000d502:	4798      	blx	r3
1000d504:	e002      	b.n	1000d50c <db_addATT+0x58>
1000d506:	2100      	movs	r1, #0
1000d508:	809a      	strh	r2, [r3, #4]
1000d50a:	6099      	str	r1, [r3, #8]
1000d50c:	2300      	movs	r3, #0
1000d50e:	6822      	ldr	r2, [r4, #0]
1000d510:	7093      	strb	r3, [r2, #2]
1000d512:	3303      	adds	r3, #3
1000d514:	402b      	ands	r3, r5
1000d516:	2b03      	cmp	r3, #3
1000d518:	d001      	beq.n	1000d51e <db_addATT+0x6a>
1000d51a:	076b      	lsls	r3, r5, #29
1000d51c:	d504      	bpl.n	1000d528 <db_addATT+0x74>
1000d51e:	2101      	movs	r1, #1
1000d520:	6822      	ldr	r2, [r4, #0]
1000d522:	7893      	ldrb	r3, [r2, #2]
1000d524:	430b      	orrs	r3, r1
1000d526:	7093      	strb	r3, [r2, #2]
1000d528:	2330      	movs	r3, #48	; 0x30
1000d52a:	402b      	ands	r3, r5
1000d52c:	2b30      	cmp	r3, #48	; 0x30
1000d52e:	d001      	beq.n	1000d534 <db_addATT+0x80>
1000d530:	066b      	lsls	r3, r5, #25
1000d532:	d504      	bpl.n	1000d53e <db_addATT+0x8a>
1000d534:	2102      	movs	r1, #2
1000d536:	6822      	ldr	r2, [r4, #0]
1000d538:	7893      	ldrb	r3, [r2, #2]
1000d53a:	430b      	orrs	r3, r1
1000d53c:	7093      	strb	r3, [r2, #2]
1000d53e:	4a0a      	ldr	r2, [pc, #40]	; (1000d568 <db_addATT+0xb4>)
1000d540:	2600      	movs	r6, #0
1000d542:	6813      	ldr	r3, [r2, #0]
1000d544:	3301      	adds	r3, #1
1000d546:	6013      	str	r3, [r2, #0]
1000d548:	e005      	b.n	1000d556 <db_addATT+0xa2>
1000d54a:	6023      	str	r3, [r4, #0]
1000d54c:	2611      	movs	r6, #17
1000d54e:	2900      	cmp	r1, #0
1000d550:	d001      	beq.n	1000d556 <db_addATT+0xa2>
1000d552:	1aba      	subs	r2, r7, r2
1000d554:	6002      	str	r2, [r0, #0]
1000d556:	1c30      	adds	r0, r6, #0
1000d558:	bdfe      	pop	{r1, r2, r3, r4, r5, r6, r7, pc}
1000d55a:	46c0      	nop			; (mov r8, r8)
1000d55c:	1001391c 	.word	0x1001391c
1000d560:	10013920 	.word	0x10013920
1000d564:	10010b37 	.word	0x10010b37
1000d568:	10013924 	.word	0x10013924

1000d56c <user_description_define>:
1000d56c:	b5f8      	push	{r3, r4, r5, r6, r7, lr}
1000d56e:	1c05      	adds	r5, r0, #0
1000d570:	20cf      	movs	r0, #207	; 0xcf
1000d572:	2a00      	cmp	r2, #0
1000d574:	d01c      	beq.n	1000d5b0 <user_description_define+0x44>
1000d576:	1c14      	adds	r4, r2, #0
1000d578:	2203      	movs	r2, #3
1000d57a:	1c1e      	adds	r6, r3, #0
1000d57c:	400a      	ands	r2, r1
1000d57e:	1c0b      	adds	r3, r1, #0
1000d580:	3a03      	subs	r2, #3
1000d582:	4251      	negs	r1, r2
1000d584:	4151      	adcs	r1, r2
1000d586:	075a      	lsls	r2, r3, #29
1000d588:	0fd2      	lsrs	r2, r2, #31
1000d58a:	430a      	orrs	r2, r1
1000d58c:	03d2      	lsls	r2, r2, #15
1000d58e:	4f09      	ldr	r7, [pc, #36]	; (1000d5b4 <user_description_define+0x48>)
1000d590:	1c28      	adds	r0, r5, #0
1000d592:	2a00      	cmp	r2, #0
1000d594:	d003      	beq.n	1000d59e <user_description_define+0x32>
1000d596:	1c21      	adds	r1, r4, #0
1000d598:	1c32      	adds	r2, r6, #0
1000d59a:	47b8      	blx	r7
1000d59c:	e008      	b.n	1000d5b0 <user_description_define+0x44>
1000d59e:	1c11      	adds	r1, r2, #0
1000d5a0:	47b8      	blx	r7
1000d5a2:	2800      	cmp	r0, #0
1000d5a4:	d104      	bne.n	1000d5b0 <user_description_define+0x44>
1000d5a6:	1c28      	adds	r0, r5, #0
1000d5a8:	1c31      	adds	r1, r6, #0
1000d5aa:	1c22      	adds	r2, r4, #0
1000d5ac:	4b02      	ldr	r3, [pc, #8]	; (1000d5b8 <user_description_define+0x4c>)
1000d5ae:	4798      	blx	r3
1000d5b0:	bdf8      	pop	{r3, r4, r5, r6, r7, pc}
1000d5b2:	46c0      	nop			; (mov r8, r8)
1000d5b4:	1000d4b5 	.word	0x1000d4b5
1000d5b8:	1000f81d 	.word	0x1000f81d

1000d5bc <at_ble_read_authorize_reply.part.1>:
1000d5bc:	b537      	push	{r0, r1, r2, r4, r5, lr}
1000d5be:	4b09      	ldr	r3, [pc, #36]	; (1000d5e4 <at_ble_read_authorize_reply.part.1+0x28>)
1000d5c0:	1c05      	adds	r5, r0, #0
1000d5c2:	1c08      	adds	r0, r1, #0
1000d5c4:	1c0c      	adds	r4, r1, #0
1000d5c6:	4798      	blx	r3
1000d5c8:	2800      	cmp	r0, #0
1000d5ca:	d009      	beq.n	1000d5e0 <at_ble_read_authorize_reply.part.1+0x24>
1000d5cc:	6882      	ldr	r2, [r0, #8]
1000d5ce:	2a00      	cmp	r2, #0
1000d5d0:	d006      	beq.n	1000d5e0 <at_ble_read_authorize_reply.part.1+0x24>
1000d5d2:	8883      	ldrh	r3, [r0, #4]
1000d5d4:	1c29      	adds	r1, r5, #0
1000d5d6:	9200      	str	r2, [sp, #0]
1000d5d8:	1c20      	adds	r0, r4, #0
1000d5da:	2200      	movs	r2, #0
1000d5dc:	4c02      	ldr	r4, [pc, #8]	; (1000d5e8 <at_ble_read_authorize_reply.part.1+0x2c>)
1000d5de:	47a0      	blx	r4
1000d5e0:	bd3e      	pop	{r1, r2, r3, r4, r5, pc}
1000d5e2:	46c0      	nop			; (mov r8, r8)
1000d5e4:	1000d355 	.word	0x1000d355
1000d5e8:	1000f2b5 	.word	0x1000f2b5

1000d5ec <internal_at_ble_service_define>:
1000d5ec:	b5f0      	push	{r4, r5, r6, r7, lr}
1000d5ee:	b08b      	sub	sp, #44	; 0x2c
1000d5f0:	9306      	str	r3, [sp, #24]
1000d5f2:	ab10      	add	r3, sp, #64	; 0x40
1000d5f4:	9202      	str	r2, [sp, #8]
1000d5f6:	cb04      	ldmia	r3!, {r2}
1000d5f8:	1c05      	adds	r5, r0, #0
1000d5fa:	881b      	ldrh	r3, [r3, #0]
1000d5fc:	9105      	str	r1, [sp, #20]
1000d5fe:	9303      	str	r3, [sp, #12]
1000d600:	ab12      	add	r3, sp, #72	; 0x48
1000d602:	781b      	ldrb	r3, [r3, #0]
1000d604:	20cf      	movs	r0, #207	; 0xcf
1000d606:	9304      	str	r3, [sp, #16]
1000d608:	2d00      	cmp	r5, #0
1000d60a:	d100      	bne.n	1000d60e <internal_at_ble_service_define+0x22>
1000d60c:	e1ca      	b.n	1000d9a4 <internal_at_ble_service_define+0x3b8>
1000d60e:	2900      	cmp	r1, #0
1000d610:	d100      	bne.n	1000d614 <internal_at_ble_service_define+0x28>
1000d612:	e1c7      	b.n	1000d9a4 <internal_at_ble_service_define+0x3b8>
1000d614:	2a00      	cmp	r2, #0
1000d616:	d100      	bne.n	1000d61a <internal_at_ble_service_define+0x2e>
1000d618:	e1c4      	b.n	1000d9a4 <internal_at_ble_service_define+0x3b8>
1000d61a:	9b03      	ldr	r3, [sp, #12]
1000d61c:	2b00      	cmp	r3, #0
1000d61e:	d100      	bne.n	1000d622 <internal_at_ble_service_define+0x36>
1000d620:	e1c0      	b.n	1000d9a4 <internal_at_ble_service_define+0x3b8>
1000d622:	4bc9      	ldr	r3, [pc, #804]	; (1000d948 <internal_at_ble_service_define+0x35c>)
1000d624:	3004      	adds	r0, #4
1000d626:	681e      	ldr	r6, [r3, #0]
1000d628:	2e00      	cmp	r6, #0
1000d62a:	d100      	bne.n	1000d62e <internal_at_ble_service_define+0x42>
1000d62c:	e1ba      	b.n	1000d9a4 <internal_at_ble_service_define+0x3b8>
1000d62e:	2400      	movs	r4, #0
1000d630:	4bc6      	ldr	r3, [pc, #792]	; (1000d94c <internal_at_ble_service_define+0x360>)
1000d632:	8034      	strh	r4, [r6, #0]
1000d634:	881b      	ldrh	r3, [r3, #0]
1000d636:	1db7      	adds	r7, r6, #6
1000d638:	1c21      	adds	r1, r4, #0
1000d63a:	2210      	movs	r2, #16
1000d63c:	8073      	strh	r3, [r6, #2]
1000d63e:	1c38      	adds	r0, r7, #0
1000d640:	4bc3      	ldr	r3, [pc, #780]	; (1000d950 <internal_at_ble_service_define+0x364>)
1000d642:	4798      	blx	r3
1000d644:	7828      	ldrb	r0, [r5, #0]
1000d646:	4bc3      	ldr	r3, [pc, #780]	; (1000d954 <internal_at_ble_service_define+0x368>)
1000d648:	4798      	blx	r3
1000d64a:	1c69      	adds	r1, r5, #1
1000d64c:	1c02      	adds	r2, r0, #0
1000d64e:	4bc2      	ldr	r3, [pc, #776]	; (1000d958 <internal_at_ble_service_define+0x36c>)
1000d650:	1c38      	adds	r0, r7, #0
1000d652:	4798      	blx	r3
1000d654:	2204      	movs	r2, #4
1000d656:	782b      	ldrb	r3, [r5, #0]
1000d658:	9d02      	ldr	r5, [sp, #8]
1000d65a:	011b      	lsls	r3, r3, #4
1000d65c:	4313      	orrs	r3, r2
1000d65e:	9a04      	ldr	r2, [sp, #16]
1000d660:	7174      	strb	r4, [r6, #5]
1000d662:	0192      	lsls	r2, r2, #6
1000d664:	4313      	orrs	r3, r2
1000d666:	7133      	strb	r3, [r6, #4]
1000d668:	2316      	movs	r3, #22
1000d66a:	9a06      	ldr	r2, [sp, #24]
1000d66c:	3512      	adds	r5, #18
1000d66e:	4353      	muls	r3, r2
1000d670:	9a02      	ldr	r2, [sp, #8]
1000d672:	3312      	adds	r3, #18
1000d674:	18d7      	adds	r7, r2, r3
1000d676:	42bd      	cmp	r5, r7
1000d678:	d00f      	beq.n	1000d69a <internal_at_ble_service_define+0xae>
1000d67a:	4bb8      	ldr	r3, [pc, #736]	; (1000d95c <internal_at_ble_service_define+0x370>)
1000d67c:	8829      	ldrh	r1, [r5, #0]
1000d67e:	9300      	str	r3, [sp, #0]
1000d680:	230e      	movs	r3, #14
1000d682:	aa06      	add	r2, sp, #24
1000d684:	189b      	adds	r3, r3, r2
1000d686:	9301      	str	r3, [sp, #4]
1000d688:	4cb5      	ldr	r4, [pc, #724]	; (1000d960 <internal_at_ble_service_define+0x374>)
1000d68a:	1c30      	adds	r0, r6, #0
1000d68c:	2201      	movs	r2, #1
1000d68e:	2302      	movs	r3, #2
1000d690:	47a0      	blx	r4
1000d692:	3516      	adds	r5, #22
1000d694:	1e04      	subs	r4, r0, #0
1000d696:	d0ee      	beq.n	1000d676 <internal_at_ble_service_define+0x8a>
1000d698:	e183      	b.n	1000d9a2 <internal_at_ble_service_define+0x3b6>
1000d69a:	9f10      	ldr	r7, [sp, #64]	; 0x40
1000d69c:	2300      	movs	r3, #0
1000d69e:	3714      	adds	r7, #20
1000d6a0:	1c3d      	adds	r5, r7, #0
1000d6a2:	9302      	str	r3, [sp, #8]
1000d6a4:	9b02      	ldr	r3, [sp, #8]
1000d6a6:	9a03      	ldr	r2, [sp, #12]
1000d6a8:	4293      	cmp	r3, r2
1000d6aa:	db00      	blt.n	1000d6ae <internal_at_ble_service_define+0xc2>
1000d6ac:	e0bf      	b.n	1000d82e <internal_at_ble_service_define+0x242>
1000d6ae:	4bad      	ldr	r3, [pc, #692]	; (1000d964 <internal_at_ble_service_define+0x378>)
1000d6b0:	aa06      	add	r2, sp, #24
1000d6b2:	9300      	str	r3, [sp, #0]
1000d6b4:	230e      	movs	r3, #14
1000d6b6:	189b      	adds	r3, r3, r2
1000d6b8:	9301      	str	r3, [sp, #4]
1000d6ba:	4ca9      	ldr	r4, [pc, #676]	; (1000d960 <internal_at_ble_service_define+0x374>)
1000d6bc:	1c30      	adds	r0, r6, #0
1000d6be:	2104      	movs	r1, #4
1000d6c0:	2201      	movs	r2, #1
1000d6c2:	2302      	movs	r3, #2
1000d6c4:	47a0      	blx	r4
1000d6c6:	1e04      	subs	r4, r0, #0
1000d6c8:	d000      	beq.n	1000d6cc <internal_at_ble_service_define+0xe0>
1000d6ca:	e16a      	b.n	1000d9a2 <internal_at_ble_service_define+0x3b6>
1000d6cc:	1c2b      	adds	r3, r5, #0
1000d6ce:	3b12      	subs	r3, #18
1000d6d0:	7b2c      	ldrb	r4, [r5, #12]
1000d6d2:	781b      	ldrb	r3, [r3, #0]
1000d6d4:	1c21      	adds	r1, r4, #0
1000d6d6:	1c1a      	adds	r2, r3, #0
1000d6d8:	9304      	str	r3, [sp, #16]
1000d6da:	8828      	ldrh	r0, [r5, #0]
1000d6dc:	4ba2      	ldr	r3, [pc, #648]	; (1000d968 <internal_at_ble_service_define+0x37c>)
1000d6de:	4798      	blx	r3
1000d6e0:	2303      	movs	r3, #3
1000d6e2:	4023      	ands	r3, r4
1000d6e4:	3b03      	subs	r3, #3
1000d6e6:	4259      	negs	r1, r3
1000d6e8:	4159      	adcs	r1, r3
1000d6ea:	2301      	movs	r3, #1
1000d6ec:	08a4      	lsrs	r4, r4, #2
1000d6ee:	401c      	ands	r4, r3
1000d6f0:	430c      	orrs	r4, r1
1000d6f2:	896b      	ldrh	r3, [r5, #10]
1000d6f4:	03e4      	lsls	r4, r4, #15
1000d6f6:	431c      	orrs	r4, r3
1000d6f8:	9007      	str	r0, [sp, #28]
1000d6fa:	4b96      	ldr	r3, [pc, #600]	; (1000d954 <internal_at_ble_service_define+0x368>)
1000d6fc:	9804      	ldr	r0, [sp, #16]
1000d6fe:	4798      	blx	r3
1000d700:	1c2a      	adds	r2, r5, #0
1000d702:	3a11      	subs	r2, #17
1000d704:	9200      	str	r2, [sp, #0]
1000d706:	3a03      	subs	r2, #3
1000d708:	1c03      	adds	r3, r0, #0
1000d70a:	9201      	str	r2, [sp, #4]
1000d70c:	1c21      	adds	r1, r4, #0
1000d70e:	1c30      	adds	r0, r6, #0
1000d710:	4c93      	ldr	r4, [pc, #588]	; (1000d960 <internal_at_ble_service_define+0x374>)
1000d712:	9a07      	ldr	r2, [sp, #28]
1000d714:	47a0      	blx	r4
1000d716:	1e04      	subs	r4, r0, #0
1000d718:	d000      	beq.n	1000d71c <internal_at_ble_service_define+0x130>
1000d71a:	e142      	b.n	1000d9a2 <internal_at_ble_service_define+0x3b6>
1000d71c:	22c0      	movs	r2, #192	; 0xc0
1000d71e:	882b      	ldrh	r3, [r5, #0]
1000d720:	0052      	lsls	r2, r2, #1
1000d722:	4213      	tst	r3, r2
1000d724:	d104      	bne.n	1000d730 <internal_at_ble_service_define+0x144>
1000d726:	8aab      	ldrh	r3, [r5, #20]
1000d728:	9304      	str	r3, [sp, #16]
1000d72a:	2b00      	cmp	r3, #0
1000d72c:	d116      	bne.n	1000d75c <internal_at_ble_service_define+0x170>
1000d72e:	e03a      	b.n	1000d7a6 <internal_at_ble_service_define+0x1ba>
1000d730:	2201      	movs	r2, #1
1000d732:	09d9      	lsrs	r1, r3, #7
1000d734:	4011      	ands	r1, r2
1000d736:	05db      	lsls	r3, r3, #23
1000d738:	d501      	bpl.n	1000d73e <internal_at_ble_service_define+0x152>
1000d73a:	2302      	movs	r3, #2
1000d73c:	4319      	orrs	r1, r3
1000d73e:	4b8b      	ldr	r3, [pc, #556]	; (1000d96c <internal_at_ble_service_define+0x380>)
1000d740:	aa06      	add	r2, sp, #24
1000d742:	9300      	str	r3, [sp, #0]
1000d744:	230e      	movs	r3, #14
1000d746:	189b      	adds	r3, r3, r2
1000d748:	9301      	str	r3, [sp, #4]
1000d74a:	4c85      	ldr	r4, [pc, #532]	; (1000d960 <internal_at_ble_service_define+0x374>)
1000d74c:	0209      	lsls	r1, r1, #8
1000d74e:	1c30      	adds	r0, r6, #0
1000d750:	2201      	movs	r2, #1
1000d752:	2302      	movs	r3, #2
1000d754:	47a0      	blx	r4
1000d756:	1e04      	subs	r4, r0, #0
1000d758:	d0e5      	beq.n	1000d726 <internal_at_ble_service_define+0x13a>
1000d75a:	e122      	b.n	1000d9a2 <internal_at_ble_service_define+0x3b6>
1000d75c:	2380      	movs	r3, #128	; 0x80
1000d75e:	882a      	ldrh	r2, [r5, #0]
1000d760:	7f2c      	ldrb	r4, [r5, #28]
1000d762:	005b      	lsls	r3, r3, #1
1000d764:	401a      	ands	r2, r3
1000d766:	1c20      	adds	r0, r4, #0
1000d768:	2101      	movs	r1, #1
1000d76a:	2a00      	cmp	r2, #0
1000d76c:	d000      	beq.n	1000d770 <internal_at_ble_service_define+0x184>
1000d76e:	1c0a      	adds	r2, r1, #0
1000d770:	4b7f      	ldr	r3, [pc, #508]	; (1000d970 <internal_at_ble_service_define+0x384>)
1000d772:	4798      	blx	r3
1000d774:	2203      	movs	r2, #3
1000d776:	4022      	ands	r2, r4
1000d778:	3a03      	subs	r2, #3
1000d77a:	4251      	negs	r1, r2
1000d77c:	4151      	adcs	r1, r2
1000d77e:	4b7d      	ldr	r3, [pc, #500]	; (1000d974 <internal_at_ble_service_define+0x388>)
1000d780:	1c0a      	adds	r2, r1, #0
1000d782:	9300      	str	r3, [sp, #0]
1000d784:	1c2b      	adds	r3, r5, #0
1000d786:	0764      	lsls	r4, r4, #29
1000d788:	0fe4      	lsrs	r4, r4, #31
1000d78a:	4322      	orrs	r2, r4
1000d78c:	03d2      	lsls	r2, r2, #15
1000d78e:	4310      	orrs	r0, r2
1000d790:	3320      	adds	r3, #32
1000d792:	b282      	uxth	r2, r0
1000d794:	9301      	str	r3, [sp, #4]
1000d796:	4c72      	ldr	r4, [pc, #456]	; (1000d960 <internal_at_ble_service_define+0x374>)
1000d798:	1c30      	adds	r0, r6, #0
1000d79a:	9904      	ldr	r1, [sp, #16]
1000d79c:	2302      	movs	r3, #2
1000d79e:	47a0      	blx	r4
1000d7a0:	1e04      	subs	r4, r0, #0
1000d7a2:	d000      	beq.n	1000d7a6 <internal_at_ble_service_define+0x1ba>
1000d7a4:	e0fd      	b.n	1000d9a2 <internal_at_ble_service_define+0x3b6>
1000d7a6:	2101      	movs	r1, #1
1000d7a8:	882b      	ldrh	r3, [r5, #0]
1000d7aa:	420b      	tst	r3, r1
1000d7ac:	d011      	beq.n	1000d7d2 <internal_at_ble_service_define+0x1e6>
1000d7ae:	7fa8      	ldrb	r0, [r5, #30]
1000d7b0:	4b6f      	ldr	r3, [pc, #444]	; (1000d970 <internal_at_ble_service_define+0x384>)
1000d7b2:	2200      	movs	r2, #0
1000d7b4:	4798      	blx	r3
1000d7b6:	4b70      	ldr	r3, [pc, #448]	; (1000d978 <internal_at_ble_service_define+0x38c>)
1000d7b8:	1c02      	adds	r2, r0, #0
1000d7ba:	9300      	str	r3, [sp, #0]
1000d7bc:	1c2b      	adds	r3, r5, #0
1000d7be:	3324      	adds	r3, #36	; 0x24
1000d7c0:	9301      	str	r3, [sp, #4]
1000d7c2:	4c67      	ldr	r4, [pc, #412]	; (1000d960 <internal_at_ble_service_define+0x374>)
1000d7c4:	1c30      	adds	r0, r6, #0
1000d7c6:	496d      	ldr	r1, [pc, #436]	; (1000d97c <internal_at_ble_service_define+0x390>)
1000d7c8:	2302      	movs	r3, #2
1000d7ca:	47a0      	blx	r4
1000d7cc:	1e04      	subs	r4, r0, #0
1000d7ce:	d000      	beq.n	1000d7d2 <internal_at_ble_service_define+0x1e6>
1000d7d0:	e0e7      	b.n	1000d9a2 <internal_at_ble_service_define+0x3b6>
1000d7d2:	2330      	movs	r3, #48	; 0x30
1000d7d4:	882a      	ldrh	r2, [r5, #0]
1000d7d6:	421a      	tst	r2, r3
1000d7d8:	d012      	beq.n	1000d800 <internal_at_ble_service_define+0x214>
1000d7da:	2101      	movs	r1, #1
1000d7dc:	7f68      	ldrb	r0, [r5, #29]
1000d7de:	1c0a      	adds	r2, r1, #0
1000d7e0:	4b63      	ldr	r3, [pc, #396]	; (1000d970 <internal_at_ble_service_define+0x384>)
1000d7e2:	4798      	blx	r3
1000d7e4:	4b66      	ldr	r3, [pc, #408]	; (1000d980 <internal_at_ble_service_define+0x394>)
1000d7e6:	1c02      	adds	r2, r0, #0
1000d7e8:	9300      	str	r3, [sp, #0]
1000d7ea:	1c2b      	adds	r3, r5, #0
1000d7ec:	3322      	adds	r3, #34	; 0x22
1000d7ee:	9301      	str	r3, [sp, #4]
1000d7f0:	4c5b      	ldr	r4, [pc, #364]	; (1000d960 <internal_at_ble_service_define+0x374>)
1000d7f2:	1c30      	adds	r0, r6, #0
1000d7f4:	4961      	ldr	r1, [pc, #388]	; (1000d97c <internal_at_ble_service_define+0x390>)
1000d7f6:	2302      	movs	r3, #2
1000d7f8:	47a0      	blx	r4
1000d7fa:	1e04      	subs	r4, r0, #0
1000d7fc:	d000      	beq.n	1000d800 <internal_at_ble_service_define+0x214>
1000d7fe:	e0d0      	b.n	1000d9a2 <internal_at_ble_service_define+0x3b6>
1000d800:	69ab      	ldr	r3, [r5, #24]
1000d802:	2b00      	cmp	r3, #0
1000d804:	d00e      	beq.n	1000d824 <internal_at_ble_service_define+0x238>
1000d806:	4b5f      	ldr	r3, [pc, #380]	; (1000d984 <internal_at_ble_service_define+0x398>)
1000d808:	aa06      	add	r2, sp, #24
1000d80a:	9300      	str	r3, [sp, #0]
1000d80c:	230e      	movs	r3, #14
1000d80e:	189b      	adds	r3, r3, r2
1000d810:	9301      	str	r3, [sp, #4]
1000d812:	4c53      	ldr	r4, [pc, #332]	; (1000d960 <internal_at_ble_service_define+0x374>)
1000d814:	1c30      	adds	r0, r6, #0
1000d816:	2107      	movs	r1, #7
1000d818:	2201      	movs	r2, #1
1000d81a:	2302      	movs	r3, #2
1000d81c:	47a0      	blx	r4
1000d81e:	1e04      	subs	r4, r0, #0
1000d820:	d000      	beq.n	1000d824 <internal_at_ble_service_define+0x238>
1000d822:	e0be      	b.n	1000d9a2 <internal_at_ble_service_define+0x3b6>
1000d824:	9b02      	ldr	r3, [sp, #8]
1000d826:	353c      	adds	r5, #60	; 0x3c
1000d828:	3301      	adds	r3, #1
1000d82a:	9302      	str	r3, [sp, #8]
1000d82c:	e73a      	b.n	1000d6a4 <internal_at_ble_service_define+0xb8>
1000d82e:	1c30      	adds	r0, r6, #0
1000d830:	4b55      	ldr	r3, [pc, #340]	; (1000d988 <internal_at_ble_service_define+0x39c>)
1000d832:	4798      	blx	r3
1000d834:	1e04      	subs	r4, r0, #0
1000d836:	d000      	beq.n	1000d83a <internal_at_ble_service_define+0x24e>
1000d838:	e0b3      	b.n	1000d9a2 <internal_at_ble_service_define+0x3b6>
1000d83a:	8833      	ldrh	r3, [r6, #0]
1000d83c:	9a05      	ldr	r2, [sp, #20]
1000d83e:	8013      	strh	r3, [r2, #0]
1000d840:	8836      	ldrh	r6, [r6, #0]
1000d842:	9b06      	ldr	r3, [sp, #24]
1000d844:	9a03      	ldr	r2, [sp, #12]
1000d846:	18f6      	adds	r6, r6, r3
1000d848:	b2b3      	uxth	r3, r6
1000d84a:	9302      	str	r3, [sp, #8]
1000d84c:	233c      	movs	r3, #60	; 0x3c
1000d84e:	4353      	muls	r3, r2
1000d850:	9a10      	ldr	r2, [sp, #64]	; 0x40
1000d852:	3314      	adds	r3, #20
1000d854:	18d3      	adds	r3, r2, r3
1000d856:	9304      	str	r3, [sp, #16]
1000d858:	9b04      	ldr	r3, [sp, #16]
1000d85a:	429f      	cmp	r7, r3
1000d85c:	d100      	bne.n	1000d860 <internal_at_ble_service_define+0x274>
1000d85e:	e0a0      	b.n	1000d9a2 <internal_at_ble_service_define+0x3b6>
1000d860:	9b02      	ldr	r3, [sp, #8]
1000d862:	1c9d      	adds	r5, r3, #2
1000d864:	1c3b      	adds	r3, r7, #0
1000d866:	b2ad      	uxth	r5, r5
1000d868:	3b14      	subs	r3, #20
1000d86a:	801d      	strh	r5, [r3, #0]
1000d86c:	9303      	str	r3, [sp, #12]
1000d86e:	893b      	ldrh	r3, [r7, #8]
1000d870:	2b00      	cmp	r3, #0
1000d872:	d108      	bne.n	1000d886 <internal_at_ble_service_define+0x29a>
1000d874:	23c0      	movs	r3, #192	; 0xc0
1000d876:	883a      	ldrh	r2, [r7, #0]
1000d878:	005b      	lsls	r3, r3, #1
1000d87a:	421a      	tst	r2, r3
1000d87c:	d026      	beq.n	1000d8cc <internal_at_ble_service_define+0x2e0>
1000d87e:	9e02      	ldr	r6, [sp, #8]
1000d880:	3603      	adds	r6, #3
1000d882:	b2b5      	uxth	r5, r6
1000d884:	e022      	b.n	1000d8cc <internal_at_ble_service_define+0x2e0>
1000d886:	2103      	movs	r1, #3
1000d888:	7b3b      	ldrb	r3, [r7, #12]
1000d88a:	4019      	ands	r1, r3
1000d88c:	3903      	subs	r1, #3
1000d88e:	424a      	negs	r2, r1
1000d890:	414a      	adcs	r2, r1
1000d892:	0759      	lsls	r1, r3, #29
1000d894:	0fc9      	lsrs	r1, r1, #31
1000d896:	4311      	orrs	r1, r2
1000d898:	03c9      	lsls	r1, r1, #15
1000d89a:	897a      	ldrh	r2, [r7, #10]
1000d89c:	2900      	cmp	r1, #0
1000d89e:	d007      	beq.n	1000d8b0 <internal_at_ble_service_define+0x2c4>
1000d8a0:	6879      	ldr	r1, [r7, #4]
1000d8a2:	2900      	cmp	r1, #0
1000d8a4:	d100      	bne.n	1000d8a8 <internal_at_ble_service_define+0x2bc>
1000d8a6:	4939      	ldr	r1, [pc, #228]	; (1000d98c <internal_at_ble_service_define+0x3a0>)
1000d8a8:	1c28      	adds	r0, r5, #0
1000d8aa:	4e39      	ldr	r6, [pc, #228]	; (1000d990 <internal_at_ble_service_define+0x3a4>)
1000d8ac:	47b0      	blx	r6
1000d8ae:	e00a      	b.n	1000d8c6 <internal_at_ble_service_define+0x2da>
1000d8b0:	1c28      	adds	r0, r5, #0
1000d8b2:	4e37      	ldr	r6, [pc, #220]	; (1000d990 <internal_at_ble_service_define+0x3a4>)
1000d8b4:	47b0      	blx	r6
1000d8b6:	2800      	cmp	r0, #0
1000d8b8:	d172      	bne.n	1000d9a0 <internal_at_ble_service_define+0x3b4>
1000d8ba:	9b03      	ldr	r3, [sp, #12]
1000d8bc:	8939      	ldrh	r1, [r7, #8]
1000d8be:	8818      	ldrh	r0, [r3, #0]
1000d8c0:	687a      	ldr	r2, [r7, #4]
1000d8c2:	4b34      	ldr	r3, [pc, #208]	; (1000d994 <internal_at_ble_service_define+0x3a8>)
1000d8c4:	4798      	blx	r3
1000d8c6:	2800      	cmp	r0, #0
1000d8c8:	d0d4      	beq.n	1000d874 <internal_at_ble_service_define+0x288>
1000d8ca:	e069      	b.n	1000d9a0 <internal_at_ble_service_define+0x3b4>
1000d8cc:	8abb      	ldrh	r3, [r7, #20]
1000d8ce:	2b00      	cmp	r3, #0
1000d8d0:	d00a      	beq.n	1000d8e8 <internal_at_ble_service_define+0x2fc>
1000d8d2:	3501      	adds	r5, #1
1000d8d4:	b2ad      	uxth	r5, r5
1000d8d6:	843d      	strh	r5, [r7, #32]
1000d8d8:	7f39      	ldrb	r1, [r7, #28]
1000d8da:	8afb      	ldrh	r3, [r7, #22]
1000d8dc:	1c28      	adds	r0, r5, #0
1000d8de:	693a      	ldr	r2, [r7, #16]
1000d8e0:	4e2d      	ldr	r6, [pc, #180]	; (1000d998 <internal_at_ble_service_define+0x3ac>)
1000d8e2:	47b0      	blx	r6
1000d8e4:	2800      	cmp	r0, #0
1000d8e6:	d15b      	bne.n	1000d9a0 <internal_at_ble_service_define+0x3b4>
1000d8e8:	883b      	ldrh	r3, [r7, #0]
1000d8ea:	07db      	lsls	r3, r3, #31
1000d8ec:	d50d      	bpl.n	1000d90a <internal_at_ble_service_define+0x31e>
1000d8ee:	2200      	movs	r2, #0
1000d8f0:	3501      	adds	r5, #1
1000d8f2:	b2ad      	uxth	r5, r5
1000d8f4:	a909      	add	r1, sp, #36	; 0x24
1000d8f6:	84bd      	strh	r5, [r7, #36]	; 0x24
1000d8f8:	7fbb      	ldrb	r3, [r7, #30]
1000d8fa:	1c28      	adds	r0, r5, #0
1000d8fc:	700a      	strb	r2, [r1, #0]
1000d8fe:	704a      	strb	r2, [r1, #1]
1000d900:	4e23      	ldr	r6, [pc, #140]	; (1000d990 <internal_at_ble_service_define+0x3a4>)
1000d902:	3202      	adds	r2, #2
1000d904:	47b0      	blx	r6
1000d906:	2800      	cmp	r0, #0
1000d908:	d14a      	bne.n	1000d9a0 <internal_at_ble_service_define+0x3b4>
1000d90a:	2330      	movs	r3, #48	; 0x30
1000d90c:	883a      	ldrh	r2, [r7, #0]
1000d90e:	421a      	tst	r2, r3
1000d910:	d00d      	beq.n	1000d92e <internal_at_ble_service_define+0x342>
1000d912:	2200      	movs	r2, #0
1000d914:	3501      	adds	r5, #1
1000d916:	b2ad      	uxth	r5, r5
1000d918:	a909      	add	r1, sp, #36	; 0x24
1000d91a:	847d      	strh	r5, [r7, #34]	; 0x22
1000d91c:	7f7b      	ldrb	r3, [r7, #29]
1000d91e:	1c28      	adds	r0, r5, #0
1000d920:	700a      	strb	r2, [r1, #0]
1000d922:	704a      	strb	r2, [r1, #1]
1000d924:	4e1a      	ldr	r6, [pc, #104]	; (1000d990 <internal_at_ble_service_define+0x3a4>)
1000d926:	3202      	adds	r2, #2
1000d928:	47b0      	blx	r6
1000d92a:	2800      	cmp	r0, #0
1000d92c:	d138      	bne.n	1000d9a0 <internal_at_ble_service_define+0x3b4>
1000d92e:	69b9      	ldr	r1, [r7, #24]
1000d930:	2900      	cmp	r1, #0
1000d932:	d006      	beq.n	1000d942 <internal_at_ble_service_define+0x356>
1000d934:	3501      	adds	r5, #1
1000d936:	b2ad      	uxth	r5, r5
1000d938:	1c28      	adds	r0, r5, #0
1000d93a:	4b18      	ldr	r3, [pc, #96]	; (1000d99c <internal_at_ble_service_define+0x3b0>)
1000d93c:	4798      	blx	r3
1000d93e:	2800      	cmp	r0, #0
1000d940:	d12e      	bne.n	1000d9a0 <internal_at_ble_service_define+0x3b4>
1000d942:	373c      	adds	r7, #60	; 0x3c
1000d944:	9502      	str	r5, [sp, #8]
1000d946:	e787      	b.n	1000d858 <internal_at_ble_service_define+0x26c>
1000d948:	1001392c 	.word	0x1001392c
1000d94c:	10014760 	.word	0x10014760
1000d950:	10010b49 	.word	0x10010b49
1000d954:	1000d321 	.word	0x1000d321
1000d958:	10010b37 	.word	0x10010b37
1000d95c:	10011d96 	.word	0x10011d96
1000d960:	1000f7ad 	.word	0x1000f7ad
1000d964:	10011d98 	.word	0x10011d98
1000d968:	1000d3ed 	.word	0x1000d3ed
1000d96c:	10011d94 	.word	0x10011d94
1000d970:	1000d395 	.word	0x1000d395
1000d974:	10011d90 	.word	0x10011d90
1000d978:	10011d92 	.word	0x10011d92
1000d97c:	00008002 	.word	0x00008002
1000d980:	10011d8c 	.word	0x10011d8c
1000d984:	10011d8e 	.word	0x10011d8e
1000d988:	1000f6a1 	.word	0x1000f6a1
1000d98c:	10013918 	.word	0x10013918
1000d990:	1000d4b5 	.word	0x1000d4b5
1000d994:	1000f81d 	.word	0x1000f81d
1000d998:	1000d56d 	.word	0x1000d56d
1000d99c:	1000d489 	.word	0x1000d489
1000d9a0:	1c04      	adds	r4, r0, #0
1000d9a2:	1c20      	adds	r0, r4, #0
1000d9a4:	b00b      	add	sp, #44	; 0x2c
1000d9a6:	bdf0      	pop	{r4, r5, r6, r7, pc}

1000d9a8 <initi_gatt_server_module>:
1000d9a8:	2300      	movs	r3, #0
1000d9aa:	4a07      	ldr	r2, [pc, #28]	; (1000d9c8 <initi_gatt_server_module+0x20>)
1000d9ac:	7013      	strb	r3, [r2, #0]
1000d9ae:	4a07      	ldr	r2, [pc, #28]	; (1000d9cc <initi_gatt_server_module+0x24>)
1000d9b0:	6013      	str	r3, [r2, #0]
1000d9b2:	4a07      	ldr	r2, [pc, #28]	; (1000d9d0 <initi_gatt_server_module+0x28>)
1000d9b4:	6013      	str	r3, [r2, #0]
1000d9b6:	4a07      	ldr	r2, [pc, #28]	; (1000d9d4 <initi_gatt_server_module+0x2c>)
1000d9b8:	6013      	str	r3, [r2, #0]
1000d9ba:	4a07      	ldr	r2, [pc, #28]	; (1000d9d8 <initi_gatt_server_module+0x30>)
1000d9bc:	6013      	str	r3, [r2, #0]
1000d9be:	4a07      	ldr	r2, [pc, #28]	; (1000d9dc <initi_gatt_server_module+0x34>)
1000d9c0:	6013      	str	r3, [r2, #0]
1000d9c2:	4a07      	ldr	r2, [pc, #28]	; (1000d9e0 <initi_gatt_server_module+0x38>)
1000d9c4:	6013      	str	r3, [r2, #0]
1000d9c6:	4770      	bx	lr
1000d9c8:	10013918 	.word	0x10013918
1000d9cc:	10013928 	.word	0x10013928
1000d9d0:	10013924 	.word	0x10013924
1000d9d4:	10013914 	.word	0x10013914
1000d9d8:	10013920 	.word	0x10013920
1000d9dc:	1001391c 	.word	0x1001391c
1000d9e0:	1001392c 	.word	0x1001392c

1000d9e4 <db_init>:
1000d9e4:	4b0a      	ldr	r3, [pc, #40]	; (1000da10 <db_init+0x2c>)
1000d9e6:	4a0b      	ldr	r2, [pc, #44]	; (1000da14 <db_init+0x30>)
1000d9e8:	6018      	str	r0, [r3, #0]
1000d9ea:	084b      	lsrs	r3, r1, #1
1000d9ec:	6013      	str	r3, [r2, #0]
1000d9ee:	4a0a      	ldr	r2, [pc, #40]	; (1000da18 <db_init+0x34>)
1000d9f0:	18c3      	adds	r3, r0, r3
1000d9f2:	6013      	str	r3, [r2, #0]
1000d9f4:	4a09      	ldr	r2, [pc, #36]	; (1000da1c <db_init+0x38>)
1000d9f6:	1841      	adds	r1, r0, r1
1000d9f8:	6013      	str	r3, [r2, #0]
1000d9fa:	2303      	movs	r3, #3
1000d9fc:	2200      	movs	r2, #0
1000d9fe:	3103      	adds	r1, #3
1000da00:	4399      	bics	r1, r3
1000da02:	4b07      	ldr	r3, [pc, #28]	; (1000da20 <db_init+0x3c>)
1000da04:	3904      	subs	r1, #4
1000da06:	6019      	str	r1, [r3, #0]
1000da08:	4b06      	ldr	r3, [pc, #24]	; (1000da24 <db_init+0x40>)
1000da0a:	601a      	str	r2, [r3, #0]
1000da0c:	4770      	bx	lr
1000da0e:	46c0      	nop			; (mov r8, r8)
1000da10:	1001392c 	.word	0x1001392c
1000da14:	10013928 	.word	0x10013928
1000da18:	10013914 	.word	0x10013914
1000da1c:	10013920 	.word	0x10013920
1000da20:	1001391c 	.word	0x1001391c
1000da24:	10013924 	.word	0x10013924

1000da28 <at_ble_primary_service_define>:
1000da28:	b530      	push	{r4, r5, lr}
1000da2a:	b085      	sub	sp, #20
1000da2c:	ac08      	add	r4, sp, #32
1000da2e:	cc20      	ldmia	r4!, {r5}
1000da30:	8824      	ldrh	r4, [r4, #0]
1000da32:	9500      	str	r5, [sp, #0]
1000da34:	9401      	str	r4, [sp, #4]
1000da36:	2401      	movs	r4, #1
1000da38:	9402      	str	r4, [sp, #8]
1000da3a:	4c02      	ldr	r4, [pc, #8]	; (1000da44 <at_ble_primary_service_define+0x1c>)
1000da3c:	47a0      	blx	r4
1000da3e:	b005      	add	sp, #20
1000da40:	bd30      	pop	{r4, r5, pc}
1000da42:	46c0      	nop			; (mov r8, r8)
1000da44:	1000d5ed 	.word	0x1000d5ed

1000da48 <at_ble_characteristic_value_set>:
1000da48:	b570      	push	{r4, r5, r6, lr}
1000da4a:	4b0b      	ldr	r3, [pc, #44]	; (1000da78 <at_ble_characteristic_value_set+0x30>)
1000da4c:	1c06      	adds	r6, r0, #0
1000da4e:	1c0c      	adds	r4, r1, #0
1000da50:	1c15      	adds	r5, r2, #0
1000da52:	4798      	blx	r3
1000da54:	2800      	cmp	r0, #0
1000da56:	d008      	beq.n	1000da6a <at_ble_characteristic_value_set+0x22>
1000da58:	6880      	ldr	r0, [r0, #8]
1000da5a:	2800      	cmp	r0, #0
1000da5c:	d005      	beq.n	1000da6a <at_ble_characteristic_value_set+0x22>
1000da5e:	1c21      	adds	r1, r4, #0
1000da60:	1c2a      	adds	r2, r5, #0
1000da62:	4b06      	ldr	r3, [pc, #24]	; (1000da7c <at_ble_characteristic_value_set+0x34>)
1000da64:	4798      	blx	r3
1000da66:	2000      	movs	r0, #0
1000da68:	e004      	b.n	1000da74 <at_ble_characteristic_value_set+0x2c>
1000da6a:	1c30      	adds	r0, r6, #0
1000da6c:	1c29      	adds	r1, r5, #0
1000da6e:	1c22      	adds	r2, r4, #0
1000da70:	4b03      	ldr	r3, [pc, #12]	; (1000da80 <at_ble_characteristic_value_set+0x38>)
1000da72:	4798      	blx	r3
1000da74:	bd70      	pop	{r4, r5, r6, pc}
1000da76:	46c0      	nop			; (mov r8, r8)
1000da78:	1000d355 	.word	0x1000d355
1000da7c:	10010b37 	.word	0x10010b37
1000da80:	1000f81d 	.word	0x1000f81d

1000da84 <at_ble_characteristic_value_get>:
1000da84:	b570      	push	{r4, r5, r6, lr}
1000da86:	4b0c      	ldr	r3, [pc, #48]	; (1000dab8 <at_ble_characteristic_value_get+0x34>)
1000da88:	1c06      	adds	r6, r0, #0
1000da8a:	1c0c      	adds	r4, r1, #0
1000da8c:	1c15      	adds	r5, r2, #0
1000da8e:	4798      	blx	r3
1000da90:	2800      	cmp	r0, #0
1000da92:	d00b      	beq.n	1000daac <at_ble_characteristic_value_get+0x28>
1000da94:	6883      	ldr	r3, [r0, #8]
1000da96:	2b00      	cmp	r3, #0
1000da98:	d008      	beq.n	1000daac <at_ble_characteristic_value_get+0x28>
1000da9a:	8883      	ldrh	r3, [r0, #4]
1000da9c:	802b      	strh	r3, [r5, #0]
1000da9e:	8882      	ldrh	r2, [r0, #4]
1000daa0:	6881      	ldr	r1, [r0, #8]
1000daa2:	4b06      	ldr	r3, [pc, #24]	; (1000dabc <at_ble_characteristic_value_get+0x38>)
1000daa4:	1c20      	adds	r0, r4, #0
1000daa6:	4798      	blx	r3
1000daa8:	2000      	movs	r0, #0
1000daaa:	e004      	b.n	1000dab6 <at_ble_characteristic_value_get+0x32>
1000daac:	1c30      	adds	r0, r6, #0
1000daae:	1c29      	adds	r1, r5, #0
1000dab0:	1c22      	adds	r2, r4, #0
1000dab2:	4b03      	ldr	r3, [pc, #12]	; (1000dac0 <at_ble_characteristic_value_get+0x3c>)
1000dab4:	4798      	blx	r3
1000dab6:	bd70      	pop	{r4, r5, r6, pc}
1000dab8:	1000d355 	.word	0x1000d355
1000dabc:	10010b37 	.word	0x10010b37
1000dac0:	1000f8a9 	.word	0x1000f8a9

1000dac4 <at_ble_write_authorize_reply>:
1000dac4:	b5f0      	push	{r4, r5, r6, r7, lr}
1000dac6:	b085      	sub	sp, #20
1000dac8:	1c04      	adds	r4, r0, #0
1000daca:	9101      	str	r1, [sp, #4]
1000dacc:	2900      	cmp	r1, #0
1000dace:	d128      	bne.n	1000db22 <at_ble_write_authorize_reply+0x5e>
1000dad0:	8843      	ldrh	r3, [r0, #2]
1000dad2:	1c27      	adds	r7, r4, #0
1000dad4:	9300      	str	r3, [sp, #0]
1000dad6:	1c18      	adds	r0, r3, #0
1000dad8:	4b16      	ldr	r3, [pc, #88]	; (1000db34 <at_ble_write_authorize_reply+0x70>)
1000dada:	4798      	blx	r3
1000dadc:	3708      	adds	r7, #8
1000dade:	2800      	cmp	r0, #0
1000dae0:	d009      	beq.n	1000daf6 <at_ble_write_authorize_reply+0x32>
1000dae2:	6880      	ldr	r0, [r0, #8]
1000dae4:	2800      	cmp	r0, #0
1000dae6:	d006      	beq.n	1000daf6 <at_ble_write_authorize_reply+0x32>
1000dae8:	88a3      	ldrh	r3, [r4, #4]
1000daea:	88e2      	ldrh	r2, [r4, #6]
1000daec:	18c0      	adds	r0, r0, r3
1000daee:	1c39      	adds	r1, r7, #0
1000daf0:	4b11      	ldr	r3, [pc, #68]	; (1000db38 <at_ble_write_authorize_reply+0x74>)
1000daf2:	4798      	blx	r3
1000daf4:	e015      	b.n	1000db22 <at_ble_write_authorize_reply+0x5e>
1000daf6:	ab02      	add	r3, sp, #8
1000daf8:	1d9e      	adds	r6, r3, #6
1000dafa:	2300      	movs	r3, #0
1000dafc:	4d0f      	ldr	r5, [pc, #60]	; (1000db3c <at_ble_write_authorize_reply+0x78>)
1000dafe:	8033      	strh	r3, [r6, #0]
1000db00:	6829      	ldr	r1, [r5, #0]
1000db02:	1c32      	adds	r2, r6, #0
1000db04:	4b0e      	ldr	r3, [pc, #56]	; (1000db40 <at_ble_write_authorize_reply+0x7c>)
1000db06:	9800      	ldr	r0, [sp, #0]
1000db08:	4798      	blx	r3
1000db0a:	682b      	ldr	r3, [r5, #0]
1000db0c:	88a0      	ldrh	r0, [r4, #4]
1000db0e:	88e2      	ldrh	r2, [r4, #6]
1000db10:	1818      	adds	r0, r3, r0
1000db12:	1c39      	adds	r1, r7, #0
1000db14:	4b08      	ldr	r3, [pc, #32]	; (1000db38 <at_ble_write_authorize_reply+0x74>)
1000db16:	4798      	blx	r3
1000db18:	8860      	ldrh	r0, [r4, #2]
1000db1a:	8832      	ldrh	r2, [r6, #0]
1000db1c:	6829      	ldr	r1, [r5, #0]
1000db1e:	4b09      	ldr	r3, [pc, #36]	; (1000db44 <at_ble_write_authorize_reply+0x80>)
1000db20:	4798      	blx	r3
1000db22:	8860      	ldrh	r0, [r4, #2]
1000db24:	8821      	ldrh	r1, [r4, #0]
1000db26:	9a01      	ldr	r2, [sp, #4]
1000db28:	4b07      	ldr	r3, [pc, #28]	; (1000db48 <at_ble_write_authorize_reply+0x84>)
1000db2a:	4798      	blx	r3
1000db2c:	2000      	movs	r0, #0
1000db2e:	b005      	add	sp, #20
1000db30:	bdf0      	pop	{r4, r5, r6, r7, pc}
1000db32:	46c0      	nop			; (mov r8, r8)
1000db34:	1000d355 	.word	0x1000d355
1000db38:	10010b37 	.word	0x10010b37
1000db3c:	10011e9c 	.word	0x10011e9c
1000db40:	1000da85 	.word	0x1000da85
1000db44:	1000da49 	.word	0x1000da49
1000db48:	1000f321 	.word	0x1000f321

1000db4c <gatts_handle_read_req>:
1000db4c:	b538      	push	{r3, r4, r5, lr}
1000db4e:	1c0c      	adds	r4, r1, #0
1000db50:	4b07      	ldr	r3, [pc, #28]	; (1000db70 <gatts_handle_read_req+0x24>)
1000db52:	4798      	blx	r3
1000db54:	8865      	ldrh	r5, [r4, #2]
1000db56:	4b07      	ldr	r3, [pc, #28]	; (1000db74 <gatts_handle_read_req+0x28>)
1000db58:	1c28      	adds	r0, r5, #0
1000db5a:	4798      	blx	r3
1000db5c:	7883      	ldrb	r3, [r0, #2]
1000db5e:	2026      	movs	r0, #38	; 0x26
1000db60:	07db      	lsls	r3, r3, #31
1000db62:	d404      	bmi.n	1000db6e <gatts_handle_read_req+0x22>
1000db64:	8820      	ldrh	r0, [r4, #0]
1000db66:	1c29      	adds	r1, r5, #0
1000db68:	4b03      	ldr	r3, [pc, #12]	; (1000db78 <gatts_handle_read_req+0x2c>)
1000db6a:	4798      	blx	r3
1000db6c:	203b      	movs	r0, #59	; 0x3b
1000db6e:	bd38      	pop	{r3, r4, r5, pc}
1000db70:	1000f265 	.word	0x1000f265
1000db74:	1000d355 	.word	0x1000d355
1000db78:	1000d5bd 	.word	0x1000d5bd

1000db7c <gatts_handle_att_info_req>:
1000db7c:	b538      	push	{r3, r4, r5, lr}
1000db7e:	1c0d      	adds	r5, r1, #0
1000db80:	4b0a      	ldr	r3, [pc, #40]	; (1000dbac <gatts_handle_att_info_req+0x30>)
1000db82:	1c14      	adds	r4, r2, #0
1000db84:	4798      	blx	r3
1000db86:	882d      	ldrh	r5, [r5, #0]
1000db88:	4b09      	ldr	r3, [pc, #36]	; (1000dbb0 <gatts_handle_att_info_req+0x34>)
1000db8a:	1c28      	adds	r0, r5, #0
1000db8c:	4798      	blx	r3
1000db8e:	0a22      	lsrs	r2, r4, #8
1000db90:	1c03      	adds	r3, r0, #0
1000db92:	4c08      	ldr	r4, [pc, #32]	; (1000dbb4 <gatts_handle_att_info_req+0x38>)
1000db94:	b291      	uxth	r1, r2
1000db96:	2800      	cmp	r0, #0
1000db98:	d003      	beq.n	1000dba2 <gatts_handle_att_info_req+0x26>
1000db9a:	8882      	ldrh	r2, [r0, #4]
1000db9c:	2300      	movs	r3, #0
1000db9e:	1c28      	adds	r0, r5, #0
1000dba0:	e001      	b.n	1000dba6 <gatts_handle_att_info_req+0x2a>
1000dba2:	1c28      	adds	r0, r5, #0
1000dba4:	2201      	movs	r2, #1
1000dba6:	47a0      	blx	r4
1000dba8:	203b      	movs	r0, #59	; 0x3b
1000dbaa:	bd38      	pop	{r3, r4, r5, pc}
1000dbac:	1000f2a9 	.word	0x1000f2a9
1000dbb0:	1000d355 	.word	0x1000d355
1000dbb4:	1000f365 	.word	0x1000f365

1000dbb8 <gatts_handle_write_req>:
1000dbb8:	b510      	push	{r4, lr}
1000dbba:	1c14      	adds	r4, r2, #0
1000dbbc:	4b07      	ldr	r3, [pc, #28]	; (1000dbdc <gatts_handle_write_req+0x24>)
1000dbbe:	4798      	blx	r3
1000dbc0:	4b07      	ldr	r3, [pc, #28]	; (1000dbe0 <gatts_handle_write_req+0x28>)
1000dbc2:	8860      	ldrh	r0, [r4, #2]
1000dbc4:	4798      	blx	r3
1000dbc6:	2302      	movs	r3, #2
1000dbc8:	7881      	ldrb	r1, [r0, #2]
1000dbca:	2022      	movs	r0, #34	; 0x22
1000dbcc:	4019      	ands	r1, r3
1000dbce:	d103      	bne.n	1000dbd8 <gatts_handle_write_req+0x20>
1000dbd0:	1c20      	adds	r0, r4, #0
1000dbd2:	4b04      	ldr	r3, [pc, #16]	; (1000dbe4 <gatts_handle_write_req+0x2c>)
1000dbd4:	4798      	blx	r3
1000dbd6:	201f      	movs	r0, #31
1000dbd8:	bd10      	pop	{r4, pc}
1000dbda:	46c0      	nop			; (mov r8, r8)
1000dbdc:	1000f271 	.word	0x1000f271
1000dbe0:	1000d355 	.word	0x1000d355
1000dbe4:	1000dac5 	.word	0x1000dac5

1000dbe8 <at_ble_notification_send>:
1000dbe8:	b5f0      	push	{r4, r5, r6, r7, lr}
1000dbea:	4d17      	ldr	r5, [pc, #92]	; (1000dc48 <at_ble_notification_send+0x60>)
1000dbec:	4c17      	ldr	r4, [pc, #92]	; (1000dc4c <at_ble_notification_send+0x64>)
1000dbee:	682a      	ldr	r2, [r5, #0]
1000dbf0:	44a5      	add	sp, r4
1000dbf2:	23d2      	movs	r3, #210	; 0xd2
1000dbf4:	2a04      	cmp	r2, #4
1000dbf6:	d822      	bhi.n	1000dc3e <at_ble_notification_send+0x56>
1000dbf8:	1c06      	adds	r6, r0, #0
1000dbfa:	4b15      	ldr	r3, [pc, #84]	; (1000dc50 <at_ble_notification_send+0x68>)
1000dbfc:	1c08      	adds	r0, r1, #0
1000dbfe:	1c0c      	adds	r4, r1, #0
1000dc00:	4798      	blx	r3
1000dc02:	2800      	cmp	r0, #0
1000dc04:	d008      	beq.n	1000dc18 <at_ble_notification_send+0x30>
1000dc06:	6883      	ldr	r3, [r0, #8]
1000dc08:	2b00      	cmp	r3, #0
1000dc0a:	d005      	beq.n	1000dc18 <at_ble_notification_send+0x30>
1000dc0c:	8882      	ldrh	r2, [r0, #4]
1000dc0e:	1c21      	adds	r1, r4, #0
1000dc10:	9200      	str	r2, [sp, #0]
1000dc12:	2012      	movs	r0, #18
1000dc14:	1c32      	adds	r2, r6, #0
1000dc16:	e00c      	b.n	1000dc32 <at_ble_notification_send+0x4a>
1000dc18:	270e      	movs	r7, #14
1000dc1a:	446f      	add	r7, sp
1000dc1c:	1c39      	adds	r1, r7, #0
1000dc1e:	aa04      	add	r2, sp, #16
1000dc20:	4b0c      	ldr	r3, [pc, #48]	; (1000dc54 <at_ble_notification_send+0x6c>)
1000dc22:	1c20      	adds	r0, r4, #0
1000dc24:	4798      	blx	r3
1000dc26:	2012      	movs	r0, #18
1000dc28:	1c21      	adds	r1, r4, #0
1000dc2a:	1c32      	adds	r2, r6, #0
1000dc2c:	883b      	ldrh	r3, [r7, #0]
1000dc2e:	9300      	str	r3, [sp, #0]
1000dc30:	ab04      	add	r3, sp, #16
1000dc32:	4c09      	ldr	r4, [pc, #36]	; (1000dc58 <at_ble_notification_send+0x70>)
1000dc34:	47a0      	blx	r4
1000dc36:	682b      	ldr	r3, [r5, #0]
1000dc38:	3301      	adds	r3, #1
1000dc3a:	602b      	str	r3, [r5, #0]
1000dc3c:	2300      	movs	r3, #0
1000dc3e:	1c18      	adds	r0, r3, #0
1000dc40:	2385      	movs	r3, #133	; 0x85
1000dc42:	009b      	lsls	r3, r3, #2
1000dc44:	449d      	add	sp, r3
1000dc46:	bdf0      	pop	{r4, r5, r6, r7, pc}
1000dc48:	100139b8 	.word	0x100139b8
1000dc4c:	fffffdec 	.word	0xfffffdec
1000dc50:	1000d355 	.word	0x1000d355
1000dc54:	1000f8a9 	.word	0x1000f8a9
1000dc58:	1000f3ad 	.word	0x1000f3ad

1000dc5c <init_l2cc_task_module>:
1000dc5c:	220a      	movs	r2, #10
1000dc5e:	4b01      	ldr	r3, [pc, #4]	; (1000dc64 <init_l2cc_task_module+0x8>)
1000dc60:	701a      	strb	r2, [r3, #0]
1000dc62:	4770      	bx	lr
1000dc64:	10011e98 	.word	0x10011e98

1000dc68 <l2cc_data_send_rsp_handler>:
1000dc68:	b510      	push	{r4, lr}
1000dc6a:	7802      	ldrb	r2, [r0, #0]
1000dc6c:	700a      	strb	r2, [r1, #0]
1000dc6e:	7883      	ldrb	r3, [r0, #2]
1000dc70:	7844      	ldrb	r4, [r0, #1]
1000dc72:	021b      	lsls	r3, r3, #8
1000dc74:	4323      	orrs	r3, r4
1000dc76:	804b      	strh	r3, [r1, #2]
1000dc78:	7903      	ldrb	r3, [r0, #4]
1000dc7a:	78c0      	ldrb	r0, [r0, #3]
1000dc7c:	021b      	lsls	r3, r3, #8
1000dc7e:	4303      	orrs	r3, r0
1000dc80:	808b      	strh	r3, [r1, #4]
1000dc82:	2a00      	cmp	r2, #0
1000dc84:	d103      	bne.n	1000dc8e <l2cc_data_send_rsp_handler+0x26>
1000dc86:	4a02      	ldr	r2, [pc, #8]	; (1000dc90 <l2cc_data_send_rsp_handler+0x28>)
1000dc88:	7813      	ldrb	r3, [r2, #0]
1000dc8a:	3301      	adds	r3, #1
1000dc8c:	7013      	strb	r3, [r2, #0]
1000dc8e:	bd10      	pop	{r4, pc}
1000dc90:	10011e98 	.word	0x10011e98

1000dc94 <l2cc_data_received_handler>:
1000dc94:	b508      	push	{r3, lr}
1000dc96:	1c03      	adds	r3, r0, #0
1000dc98:	7842      	ldrb	r2, [r0, #1]
1000dc9a:	7800      	ldrb	r0, [r0, #0]
1000dc9c:	0212      	lsls	r2, r2, #8
1000dc9e:	4302      	orrs	r2, r0
1000dca0:	800a      	strh	r2, [r1, #0]
1000dca2:	78da      	ldrb	r2, [r3, #3]
1000dca4:	7898      	ldrb	r0, [r3, #2]
1000dca6:	0212      	lsls	r2, r2, #8
1000dca8:	4302      	orrs	r2, r0
1000dcaa:	804a      	strh	r2, [r1, #2]
1000dcac:	795a      	ldrb	r2, [r3, #5]
1000dcae:	7918      	ldrb	r0, [r3, #4]
1000dcb0:	0212      	lsls	r2, r2, #8
1000dcb2:	4302      	orrs	r2, r0
1000dcb4:	808a      	strh	r2, [r1, #4]
1000dcb6:	1d88      	adds	r0, r1, #6
1000dcb8:	1d99      	adds	r1, r3, #6
1000dcba:	4b01      	ldr	r3, [pc, #4]	; (1000dcc0 <l2cc_data_received_handler+0x2c>)
1000dcbc:	4798      	blx	r3
1000dcbe:	bd08      	pop	{r3, pc}
1000dcc0:	10010b37 	.word	0x10010b37

1000dcc4 <at_ble_authenticate>:
1000dcc4:	b5f0      	push	{r4, r5, r6, r7, lr}
1000dcc6:	1c0c      	adds	r4, r1, #0
1000dcc8:	211f      	movs	r1, #31
1000dcca:	b08b      	sub	sp, #44	; 0x2c
1000dccc:	9307      	str	r3, [sp, #28]
1000dcce:	ab02      	add	r3, sp, #8
1000dcd0:	18c9      	adds	r1, r1, r3
1000dcd2:	230f      	movs	r3, #15
1000dcd4:	700b      	strb	r3, [r1, #0]
1000dcd6:	4b40      	ldr	r3, [pc, #256]	; (1000ddd8 <at_ble_authenticate+0x114>)
1000dcd8:	1c05      	adds	r5, r0, #0
1000dcda:	1c16      	adds	r6, r2, #0
1000dcdc:	4798      	blx	r3
1000dcde:	1c07      	adds	r7, r0, #0
1000dce0:	2001      	movs	r0, #1
1000dce2:	2f07      	cmp	r7, #7
1000dce4:	d875      	bhi.n	1000ddd2 <at_ble_authenticate+0x10e>
1000dce6:	2c00      	cmp	r4, #0
1000dce8:	d113      	bne.n	1000dd12 <at_ble_authenticate+0x4e>
1000dcea:	2312      	movs	r3, #18
1000dcec:	435f      	muls	r7, r3
1000dcee:	4b3b      	ldr	r3, [pc, #236]	; (1000dddc <at_ble_authenticate+0x118>)
1000dcf0:	5cfb      	ldrb	r3, [r7, r3]
1000dcf2:	4283      	cmp	r3, r0
1000dcf4:	d001      	beq.n	1000dcfa <at_ble_authenticate+0x36>
1000dcf6:	20cf      	movs	r0, #207	; 0xcf
1000dcf8:	e06b      	b.n	1000ddd2 <at_ble_authenticate+0x10e>
1000dcfa:	9504      	str	r5, [sp, #16]
1000dcfc:	9400      	str	r4, [sp, #0]
1000dcfe:	9401      	str	r4, [sp, #4]
1000dd00:	9402      	str	r4, [sp, #8]
1000dd02:	9403      	str	r4, [sp, #12]
1000dd04:	1c20      	adds	r0, r4, #0
1000dd06:	1c21      	adds	r1, r4, #0
1000dd08:	1c22      	adds	r2, r4, #0
1000dd0a:	1c23      	adds	r3, r4, #0
1000dd0c:	4d34      	ldr	r5, [pc, #208]	; (1000dde0 <at_ble_authenticate+0x11c>)
1000dd0e:	47a8      	blx	r5
1000dd10:	e05e      	b.n	1000ddd0 <at_ble_authenticate+0x10c>
1000dd12:	7922      	ldrb	r2, [r4, #4]
1000dd14:	2a06      	cmp	r2, #6
1000dd16:	d9ee      	bls.n	1000dcf6 <at_ble_authenticate+0x32>
1000dd18:	7963      	ldrb	r3, [r4, #5]
1000dd1a:	2b10      	cmp	r3, #16
1000dd1c:	d8eb      	bhi.n	1000dcf6 <at_ble_authenticate+0x32>
1000dd1e:	429a      	cmp	r2, r3
1000dd20:	d8e9      	bhi.n	1000dcf6 <at_ble_authenticate+0x32>
1000dd22:	7a23      	ldrb	r3, [r4, #8]
1000dd24:	2b04      	cmp	r3, #4
1000dd26:	d8e6      	bhi.n	1000dcf6 <at_ble_authenticate+0x32>
1000dd28:	79a3      	ldrb	r3, [r4, #6]
1000dd2a:	2b07      	cmp	r3, #7
1000dd2c:	d8e3      	bhi.n	1000dcf6 <at_ble_authenticate+0x32>
1000dd2e:	79e3      	ldrb	r3, [r4, #7]
1000dd30:	2b07      	cmp	r3, #7
1000dd32:	d8e0      	bhi.n	1000dcf6 <at_ble_authenticate+0x32>
1000dd34:	78a3      	ldrb	r3, [r4, #2]
1000dd36:	2b00      	cmp	r3, #0
1000dd38:	d006      	beq.n	1000dd48 <at_ble_authenticate+0x84>
1000dd3a:	2e00      	cmp	r6, #0
1000dd3c:	d0db      	beq.n	1000dcf6 <at_ble_authenticate+0x32>
1000dd3e:	4829      	ldr	r0, [pc, #164]	; (1000dde4 <at_ble_authenticate+0x120>)
1000dd40:	1c31      	adds	r1, r6, #0
1000dd42:	221c      	movs	r2, #28
1000dd44:	4b28      	ldr	r3, [pc, #160]	; (1000dde8 <at_ble_authenticate+0x124>)
1000dd46:	4798      	blx	r3
1000dd48:	9b07      	ldr	r3, [sp, #28]
1000dd4a:	2b00      	cmp	r3, #0
1000dd4c:	d005      	beq.n	1000dd5a <at_ble_authenticate+0x96>
1000dd4e:	4827      	ldr	r0, [pc, #156]	; (1000ddec <at_ble_authenticate+0x128>)
1000dd50:	1c19      	adds	r1, r3, #0
1000dd52:	309a      	adds	r0, #154	; 0x9a
1000dd54:	2210      	movs	r2, #16
1000dd56:	4b24      	ldr	r3, [pc, #144]	; (1000dde8 <at_ble_authenticate+0x124>)
1000dd58:	4798      	blx	r3
1000dd5a:	7863      	ldrb	r3, [r4, #1]
1000dd5c:	78a2      	ldrb	r2, [r4, #2]
1000dd5e:	009b      	lsls	r3, r3, #2
1000dd60:	4313      	orrs	r3, r2
1000dd62:	2212      	movs	r2, #18
1000dd64:	4357      	muls	r7, r2
1000dd66:	4a1d      	ldr	r2, [pc, #116]	; (1000dddc <at_ble_authenticate+0x118>)
1000dd68:	b2db      	uxtb	r3, r3
1000dd6a:	5cba      	ldrb	r2, [r7, r2]
1000dd6c:	2a00      	cmp	r2, #0
1000dd6e:	d116      	bne.n	1000dd9e <at_ble_authenticate+0xda>
1000dd70:	79a0      	ldrb	r0, [r4, #6]
1000dd72:	0742      	lsls	r2, r0, #29
1000dd74:	d502      	bpl.n	1000dd7c <at_ble_authenticate+0xb8>
1000dd76:	9a07      	ldr	r2, [sp, #28]
1000dd78:	2a00      	cmp	r2, #0
1000dd7a:	d0bc      	beq.n	1000dcf6 <at_ble_authenticate+0x32>
1000dd7c:	07c2      	lsls	r2, r0, #31
1000dd7e:	d501      	bpl.n	1000dd84 <at_ble_authenticate+0xc0>
1000dd80:	2e00      	cmp	r6, #0
1000dd82:	d0b8      	beq.n	1000dcf6 <at_ble_authenticate+0x32>
1000dd84:	7966      	ldrb	r6, [r4, #5]
1000dd86:	7821      	ldrb	r1, [r4, #0]
1000dd88:	78e2      	ldrb	r2, [r4, #3]
1000dd8a:	9600      	str	r6, [sp, #0]
1000dd8c:	9001      	str	r0, [sp, #4]
1000dd8e:	79e0      	ldrb	r0, [r4, #7]
1000dd90:	9002      	str	r0, [sp, #8]
1000dd92:	7a20      	ldrb	r0, [r4, #8]
1000dd94:	4c16      	ldr	r4, [pc, #88]	; (1000ddf0 <at_ble_authenticate+0x12c>)
1000dd96:	9003      	str	r0, [sp, #12]
1000dd98:	1c28      	adds	r0, r5, #0
1000dd9a:	47a0      	blx	r4
1000dd9c:	e018      	b.n	1000ddd0 <at_ble_authenticate+0x10c>
1000dd9e:	2a01      	cmp	r2, #1
1000dda0:	d1a9      	bne.n	1000dcf6 <at_ble_authenticate+0x32>
1000dda2:	79e0      	ldrb	r0, [r4, #7]
1000dda4:	0742      	lsls	r2, r0, #29
1000dda6:	d502      	bpl.n	1000ddae <at_ble_authenticate+0xea>
1000dda8:	9a07      	ldr	r2, [sp, #28]
1000ddaa:	2a00      	cmp	r2, #0
1000ddac:	d0a3      	beq.n	1000dcf6 <at_ble_authenticate+0x32>
1000ddae:	07c2      	lsls	r2, r0, #31
1000ddb0:	d501      	bpl.n	1000ddb6 <at_ble_authenticate+0xf2>
1000ddb2:	2e00      	cmp	r6, #0
1000ddb4:	d09f      	beq.n	1000dcf6 <at_ble_authenticate+0x32>
1000ddb6:	7966      	ldrb	r6, [r4, #5]
1000ddb8:	7821      	ldrb	r1, [r4, #0]
1000ddba:	78e2      	ldrb	r2, [r4, #3]
1000ddbc:	9600      	str	r6, [sp, #0]
1000ddbe:	79a6      	ldrb	r6, [r4, #6]
1000ddc0:	9002      	str	r0, [sp, #8]
1000ddc2:	9601      	str	r6, [sp, #4]
1000ddc4:	7a20      	ldrb	r0, [r4, #8]
1000ddc6:	9504      	str	r5, [sp, #16]
1000ddc8:	9003      	str	r0, [sp, #12]
1000ddca:	4c05      	ldr	r4, [pc, #20]	; (1000dde0 <at_ble_authenticate+0x11c>)
1000ddcc:	2001      	movs	r0, #1
1000ddce:	47a0      	blx	r4
1000ddd0:	2000      	movs	r0, #0
1000ddd2:	b00b      	add	sp, #44	; 0x2c
1000ddd4:	bdf0      	pop	{r4, r5, r6, r7, pc}
1000ddd6:	46c0      	nop			; (mov r8, r8)
1000ddd8:	1000e1c5 	.word	0x1000e1c5
1000dddc:	10014762 	.word	0x10014762
1000dde0:	1000e735 	.word	0x1000e735
1000dde4:	10014870 	.word	0x10014870
1000dde8:	10010b37 	.word	0x10010b37
1000ddec:	100147f2 	.word	0x100147f2
1000ddf0:	1000e515 	.word	0x1000e515

1000ddf4 <at_ble_pair_key_reply>:
1000ddf4:	b5f0      	push	{r4, r5, r6, r7, lr}
1000ddf6:	b085      	sub	sp, #20
1000ddf8:	1c05      	adds	r5, r0, #0
1000ddfa:	1c0c      	adds	r4, r1, #0
1000ddfc:	1c16      	adds	r6, r2, #0
1000ddfe:	2100      	movs	r1, #0
1000de00:	4668      	mov	r0, sp
1000de02:	2210      	movs	r2, #16
1000de04:	4b18      	ldr	r3, [pc, #96]	; (1000de68 <at_ble_pair_key_reply+0x74>)
1000de06:	4798      	blx	r3
1000de08:	2101      	movs	r1, #1
1000de0a:	2e00      	cmp	r6, #0
1000de0c:	d101      	bne.n	1000de12 <at_ble_pair_key_reply+0x1e>
1000de0e:	1c31      	adds	r1, r6, #0
1000de10:	466e      	mov	r6, sp
1000de12:	2c00      	cmp	r4, #0
1000de14:	d116      	bne.n	1000de44 <at_ble_pair_key_reply+0x50>
1000de16:	2701      	movs	r7, #1
1000de18:	1c23      	adds	r3, r4, #0
1000de1a:	1d70      	adds	r0, r6, #5
1000de1c:	3e01      	subs	r6, #1
1000de1e:	7802      	ldrb	r2, [r0, #0]
1000de20:	3801      	subs	r0, #1
1000de22:	3a30      	subs	r2, #48	; 0x30
1000de24:	437a      	muls	r2, r7
1000de26:	189b      	adds	r3, r3, r2
1000de28:	220a      	movs	r2, #10
1000de2a:	4357      	muls	r7, r2
1000de2c:	42b0      	cmp	r0, r6
1000de2e:	d1f6      	bne.n	1000de1e <at_ble_pair_key_reply+0x2a>
1000de30:	466a      	mov	r2, sp
1000de32:	4668      	mov	r0, sp
1000de34:	7013      	strb	r3, [r2, #0]
1000de36:	0a1a      	lsrs	r2, r3, #8
1000de38:	7042      	strb	r2, [r0, #1]
1000de3a:	0c1a      	lsrs	r2, r3, #16
1000de3c:	0e1b      	lsrs	r3, r3, #24
1000de3e:	7082      	strb	r2, [r0, #2]
1000de40:	70c3      	strb	r3, [r0, #3]
1000de42:	e009      	b.n	1000de58 <at_ble_pair_key_reply+0x64>
1000de44:	20cf      	movs	r0, #207	; 0xcf
1000de46:	2c01      	cmp	r4, #1
1000de48:	d10c      	bne.n	1000de64 <at_ble_pair_key_reply+0x70>
1000de4a:	2300      	movs	r3, #0
1000de4c:	4668      	mov	r0, sp
1000de4e:	5cf2      	ldrb	r2, [r6, r3]
1000de50:	54c2      	strb	r2, [r0, r3]
1000de52:	3301      	adds	r3, #1
1000de54:	2b10      	cmp	r3, #16
1000de56:	d1f9      	bne.n	1000de4c <at_ble_pair_key_reply+0x58>
1000de58:	2004      	movs	r0, #4
1000de5a:	466a      	mov	r2, sp
1000de5c:	1c2b      	adds	r3, r5, #0
1000de5e:	4c03      	ldr	r4, [pc, #12]	; (1000de6c <at_ble_pair_key_reply+0x78>)
1000de60:	47a0      	blx	r4
1000de62:	2000      	movs	r0, #0
1000de64:	b005      	add	sp, #20
1000de66:	bdf0      	pop	{r4, r5, r6, r7, pc}
1000de68:	10010b49 	.word	0x10010b49
1000de6c:	1000e7b1 	.word	0x1000e7b1

1000de70 <at_ble_send_slave_sec_request>:
1000de70:	b570      	push	{r4, r5, r6, lr}
1000de72:	4b0c      	ldr	r3, [pc, #48]	; (1000dea4 <at_ble_send_slave_sec_request+0x34>)
1000de74:	1c0e      	adds	r6, r1, #0
1000de76:	2100      	movs	r1, #0
1000de78:	1c05      	adds	r5, r0, #0
1000de7a:	1c14      	adds	r4, r2, #0
1000de7c:	4798      	blx	r3
1000de7e:	2301      	movs	r3, #1
1000de80:	2807      	cmp	r0, #7
1000de82:	d80d      	bhi.n	1000dea0 <at_ble_send_slave_sec_request+0x30>
1000de84:	3311      	adds	r3, #17
1000de86:	4358      	muls	r0, r3
1000de88:	4b07      	ldr	r3, [pc, #28]	; (1000dea8 <at_ble_send_slave_sec_request+0x38>)
1000de8a:	5cc2      	ldrb	r2, [r0, r3]
1000de8c:	23e0      	movs	r3, #224	; 0xe0
1000de8e:	2a01      	cmp	r2, #1
1000de90:	d106      	bne.n	1000dea0 <at_ble_send_slave_sec_request+0x30>
1000de92:	00b1      	lsls	r1, r6, #2
1000de94:	430c      	orrs	r4, r1
1000de96:	4b05      	ldr	r3, [pc, #20]	; (1000deac <at_ble_send_slave_sec_request+0x3c>)
1000de98:	b2e1      	uxtb	r1, r4
1000de9a:	1c28      	adds	r0, r5, #0
1000de9c:	4798      	blx	r3
1000de9e:	2300      	movs	r3, #0
1000dea0:	1c18      	adds	r0, r3, #0
1000dea2:	bd70      	pop	{r4, r5, r6, pc}
1000dea4:	1000e1c5 	.word	0x1000e1c5
1000dea8:	10014762 	.word	0x10014762
1000deac:	1000e801 	.word	0x1000e801

1000deb0 <at_ble_encryption_start>:
1000deb0:	b5f7      	push	{r0, r1, r2, r4, r5, r6, r7, lr}
1000deb2:	23cf      	movs	r3, #207	; 0xcf
1000deb4:	2900      	cmp	r1, #0
1000deb6:	d02b      	beq.n	1000df10 <at_ble_encryption_start+0x60>
1000deb8:	2a05      	cmp	r2, #5
1000deba:	d829      	bhi.n	1000df10 <at_ble_encryption_start+0x60>
1000debc:	2701      	movs	r7, #1
1000debe:	1c3d      	adds	r5, r7, #0
1000dec0:	2433      	movs	r4, #51	; 0x33
1000dec2:	4095      	lsls	r5, r2
1000dec4:	4225      	tst	r5, r4
1000dec6:	d023      	beq.n	1000df10 <at_ble_encryption_start+0x60>
1000dec8:	7e8c      	ldrb	r4, [r1, #26]
1000deca:	3c07      	subs	r4, #7
1000decc:	2c09      	cmp	r4, #9
1000dece:	d81f      	bhi.n	1000df10 <at_ble_encryption_start+0x60>
1000ded0:	4b10      	ldr	r3, [pc, #64]	; (1000df14 <at_ble_encryption_start+0x64>)
1000ded2:	1c0c      	adds	r4, r1, #0
1000ded4:	2100      	movs	r1, #0
1000ded6:	1c15      	adds	r5, r2, #0
1000ded8:	1c06      	adds	r6, r0, #0
1000deda:	4798      	blx	r3
1000dedc:	1c3b      	adds	r3, r7, #0
1000dede:	2807      	cmp	r0, #7
1000dee0:	d816      	bhi.n	1000df10 <at_ble_encryption_start+0x60>
1000dee2:	2312      	movs	r3, #18
1000dee4:	4358      	muls	r0, r3
1000dee6:	4b0c      	ldr	r3, [pc, #48]	; (1000df18 <at_ble_encryption_start+0x68>)
1000dee8:	5cc7      	ldrb	r7, [r0, r3]
1000deea:	23e0      	movs	r3, #224	; 0xe0
1000deec:	2f00      	cmp	r7, #0
1000deee:	d10f      	bne.n	1000df10 <at_ble_encryption_start+0x60>
1000def0:	1c21      	adds	r1, r4, #0
1000def2:	221c      	movs	r2, #28
1000def4:	4b09      	ldr	r3, [pc, #36]	; (1000df1c <at_ble_encryption_start+0x6c>)
1000def6:	480a      	ldr	r0, [pc, #40]	; (1000df20 <at_ble_encryption_start+0x70>)
1000def8:	4798      	blx	r3
1000defa:	1c23      	adds	r3, r4, #0
1000defc:	7ea1      	ldrb	r1, [r4, #26]
1000defe:	8a22      	ldrh	r2, [r4, #16]
1000df00:	3312      	adds	r3, #18
1000df02:	9100      	str	r1, [sp, #0]
1000df04:	9501      	str	r5, [sp, #4]
1000df06:	1c21      	adds	r1, r4, #0
1000df08:	1c30      	adds	r0, r6, #0
1000df0a:	4c06      	ldr	r4, [pc, #24]	; (1000df24 <at_ble_encryption_start+0x74>)
1000df0c:	47a0      	blx	r4
1000df0e:	1c3b      	adds	r3, r7, #0
1000df10:	1c18      	adds	r0, r3, #0
1000df12:	bdfe      	pop	{r1, r2, r3, r4, r5, r6, r7, pc}
1000df14:	1000e1c5 	.word	0x1000e1c5
1000df18:	10014762 	.word	0x10014762
1000df1c:	10010b37 	.word	0x10010b37
1000df20:	10014870 	.word	0x10014870
1000df24:	1000e841 	.word	0x1000e841

1000df28 <at_ble_encryption_request_reply>:
1000df28:	b573      	push	{r0, r1, r4, r5, r6, lr}
1000df2a:	24cf      	movs	r4, #207	; 0xcf
1000df2c:	2b00      	cmp	r3, #0
1000df2e:	d011      	beq.n	1000df54 <at_ble_encryption_request_reply+0x2c>
1000df30:	2a00      	cmp	r2, #0
1000df32:	d00a      	beq.n	1000df4a <at_ble_encryption_request_reply+0x22>
1000df34:	2905      	cmp	r1, #5
1000df36:	d80d      	bhi.n	1000df54 <at_ble_encryption_request_reply+0x2c>
1000df38:	2501      	movs	r5, #1
1000df3a:	2633      	movs	r6, #51	; 0x33
1000df3c:	408d      	lsls	r5, r1
1000df3e:	4235      	tst	r5, r6
1000df40:	d008      	beq.n	1000df54 <at_ble_encryption_request_reply+0x2c>
1000df42:	7e9d      	ldrb	r5, [r3, #26]
1000df44:	3d07      	subs	r5, #7
1000df46:	2d09      	cmp	r5, #9
1000df48:	d804      	bhi.n	1000df54 <at_ble_encryption_request_reply+0x2c>
1000df4a:	7e9c      	ldrb	r4, [r3, #26]
1000df4c:	9400      	str	r4, [sp, #0]
1000df4e:	4c02      	ldr	r4, [pc, #8]	; (1000df58 <at_ble_encryption_request_reply+0x30>)
1000df50:	47a0      	blx	r4
1000df52:	2400      	movs	r4, #0
1000df54:	1c20      	adds	r0, r4, #0
1000df56:	bd76      	pop	{r1, r2, r4, r5, r6, pc}
1000df58:	1000e8fd 	.word	0x1000e8fd

1000df5c <rx_callback>:
1000df5c:	b5f7      	push	{r0, r1, r2, r4, r5, r6, r7, lr}
1000df5e:	8883      	ldrh	r3, [r0, #4]
1000df60:	1c01      	adds	r1, r0, #0
1000df62:	9301      	str	r3, [sp, #4]
1000df64:	88c5      	ldrh	r5, [r0, #6]
1000df66:	8806      	ldrh	r6, [r0, #0]
1000df68:	2d00      	cmp	r5, #0
1000df6a:	d10f      	bne.n	1000df8c <rx_callback+0x30>
1000df6c:	1c19      	adds	r1, r3, #0
1000df6e:	1c30      	adds	r0, r6, #0
1000df70:	4b19      	ldr	r3, [pc, #100]	; (1000dfd8 <rx_callback+0x7c>)
1000df72:	1c2a      	adds	r2, r5, #0
1000df74:	4798      	blx	r3
1000df76:	1e03      	subs	r3, r0, #0
1000df78:	d105      	bne.n	1000df86 <rx_callback+0x2a>
1000df7a:	1c30      	adds	r0, r6, #0
1000df7c:	9901      	ldr	r1, [sp, #4]
1000df7e:	1c1a      	adds	r2, r3, #0
1000df80:	4c16      	ldr	r4, [pc, #88]	; (1000dfdc <rx_callback+0x80>)
1000df82:	47a0      	blx	r4
1000df84:	e027      	b.n	1000dfd6 <rx_callback+0x7a>
1000df86:	4b16      	ldr	r3, [pc, #88]	; (1000dfe0 <rx_callback+0x84>)
1000df88:	4798      	blx	r3
1000df8a:	e024      	b.n	1000dfd6 <rx_callback+0x7a>
1000df8c:	4c15      	ldr	r4, [pc, #84]	; (1000dfe4 <rx_callback+0x88>)
1000df8e:	4a16      	ldr	r2, [pc, #88]	; (1000dfe8 <rx_callback+0x8c>)
1000df90:	6823      	ldr	r3, [r4, #0]
1000df92:	6812      	ldr	r2, [r2, #0]
1000df94:	18eb      	adds	r3, r5, r3
1000df96:	4293      	cmp	r3, r2
1000df98:	d901      	bls.n	1000df9e <rx_callback+0x42>
1000df9a:	2300      	movs	r3, #0
1000df9c:	6023      	str	r3, [r4, #0]
1000df9e:	4f13      	ldr	r7, [pc, #76]	; (1000dfec <rx_callback+0x90>)
1000dfa0:	6822      	ldr	r2, [r4, #0]
1000dfa2:	683b      	ldr	r3, [r7, #0]
1000dfa4:	3108      	adds	r1, #8
1000dfa6:	1898      	adds	r0, r3, r2
1000dfa8:	1c2a      	adds	r2, r5, #0
1000dfaa:	4b11      	ldr	r3, [pc, #68]	; (1000dff0 <rx_callback+0x94>)
1000dfac:	4798      	blx	r3
1000dfae:	683b      	ldr	r3, [r7, #0]
1000dfb0:	6822      	ldr	r2, [r4, #0]
1000dfb2:	1c30      	adds	r0, r6, #0
1000dfb4:	189a      	adds	r2, r3, r2
1000dfb6:	9901      	ldr	r1, [sp, #4]
1000dfb8:	4b07      	ldr	r3, [pc, #28]	; (1000dfd8 <rx_callback+0x7c>)
1000dfba:	4798      	blx	r3
1000dfbc:	2800      	cmp	r0, #0
1000dfbe:	d1e2      	bne.n	1000df86 <rx_callback+0x2a>
1000dfc0:	6823      	ldr	r3, [r4, #0]
1000dfc2:	683a      	ldr	r2, [r7, #0]
1000dfc4:	1c30      	adds	r0, r6, #0
1000dfc6:	18d2      	adds	r2, r2, r3
1000dfc8:	9901      	ldr	r1, [sp, #4]
1000dfca:	1c2b      	adds	r3, r5, #0
1000dfcc:	4e03      	ldr	r6, [pc, #12]	; (1000dfdc <rx_callback+0x80>)
1000dfce:	47b0      	blx	r6
1000dfd0:	6823      	ldr	r3, [r4, #0]
1000dfd2:	18ed      	adds	r5, r5, r3
1000dfd4:	6025      	str	r5, [r4, #0]
1000dfd6:	bdf7      	pop	{r0, r1, r2, r4, r5, r6, r7, pc}
1000dfd8:	1000c5f1 	.word	0x1000c5f1
1000dfdc:	1000c569 	.word	0x1000c569
1000dfe0:	1000bfc5 	.word	0x1000bfc5
1000dfe4:	100148cc 	.word	0x100148cc
1000dfe8:	10013934 	.word	0x10013934
1000dfec:	10013930 	.word	0x10013930
1000dff0:	10010b37 	.word	0x10010b37

1000dff4 <interface_send>:
1000dff4:	b508      	push	{r3, lr}
1000dff6:	4b02      	ldr	r3, [pc, #8]	; (1000e000 <interface_send+0xc>)
1000dff8:	4798      	blx	r3
1000dffa:	2000      	movs	r0, #0
1000dffc:	bd08      	pop	{r3, pc}
1000dffe:	46c0      	nop			; (mov r8, r8)
1000e000:	1000bd29 	.word	0x1000bd29

1000e004 <interface_init>:
1000e004:	2280      	movs	r2, #128	; 0x80
1000e006:	b510      	push	{r4, lr}
1000e008:	2100      	movs	r1, #0
1000e00a:	1c04      	adds	r4, r0, #0
1000e00c:	0092      	lsls	r2, r2, #2
1000e00e:	4b08      	ldr	r3, [pc, #32]	; (1000e030 <interface_init+0x2c>)
1000e010:	4808      	ldr	r0, [pc, #32]	; (1000e034 <interface_init+0x30>)
1000e012:	4798      	blx	r3
1000e014:	2200      	movs	r2, #0
1000e016:	4b08      	ldr	r3, [pc, #32]	; (1000e038 <interface_init+0x34>)
1000e018:	601a      	str	r2, [r3, #0]
1000e01a:	4a08      	ldr	r2, [pc, #32]	; (1000e03c <interface_init+0x38>)
1000e01c:	4b08      	ldr	r3, [pc, #32]	; (1000e040 <interface_init+0x3c>)
1000e01e:	601a      	str	r2, [r3, #0]
1000e020:	4b08      	ldr	r3, [pc, #32]	; (1000e044 <interface_init+0x40>)
1000e022:	6922      	ldr	r2, [r4, #16]
1000e024:	601a      	str	r2, [r3, #0]
1000e026:	6962      	ldr	r2, [r4, #20]
1000e028:	4b07      	ldr	r3, [pc, #28]	; (1000e048 <interface_init+0x44>)
1000e02a:	601a      	str	r2, [r3, #0]
1000e02c:	bd10      	pop	{r4, pc}
1000e02e:	46c0      	nop			; (mov r8, r8)
1000e030:	10010b49 	.word	0x10010b49
1000e034:	10014ad0 	.word	0x10014ad0
1000e038:	100148cc 	.word	0x100148cc
1000e03c:	100148d0 	.word	0x100148d0
1000e040:	10011e9c 	.word	0x10011e9c
1000e044:	10013930 	.word	0x10013930
1000e048:	10013934 	.word	0x10013934

1000e04c <platform_cmd_cmpl_signal>:
1000e04c:	2201      	movs	r2, #1
1000e04e:	4b01      	ldr	r3, [pc, #4]	; (1000e054 <platform_cmd_cmpl_signal+0x8>)
1000e050:	601a      	str	r2, [r3, #0]
1000e052:	4770      	bx	lr
1000e054:	10013938 	.word	0x10013938

1000e058 <platform_cmd_cmpl_wait>:
1000e058:	b510      	push	{r4, lr}
1000e05a:	1c04      	adds	r4, r0, #0
1000e05c:	4b07      	ldr	r3, [pc, #28]	; (1000e07c <platform_cmd_cmpl_wait+0x24>)
1000e05e:	681a      	ldr	r2, [r3, #0]
1000e060:	2a01      	cmp	r2, #1
1000e062:	d003      	beq.n	1000e06c <platform_cmd_cmpl_wait+0x14>
1000e064:	4b06      	ldr	r3, [pc, #24]	; (1000e080 <platform_cmd_cmpl_wait+0x28>)
1000e066:	2000      	movs	r0, #0
1000e068:	4798      	blx	r3
1000e06a:	e7f7      	b.n	1000e05c <platform_cmd_cmpl_wait+0x4>
1000e06c:	6819      	ldr	r1, [r3, #0]
1000e06e:	2901      	cmp	r1, #1
1000e070:	d102      	bne.n	1000e078 <platform_cmd_cmpl_wait+0x20>
1000e072:	2200      	movs	r2, #0
1000e074:	601a      	str	r2, [r3, #0]
1000e076:	e000      	b.n	1000e07a <platform_cmd_cmpl_wait+0x22>
1000e078:	7022      	strb	r2, [r4, #0]
1000e07a:	bd10      	pop	{r4, pc}
1000e07c:	10013938 	.word	0x10013938
1000e080:	1000bdb1 	.word	0x1000bdb1

1000e084 <start_timer>:
1000e084:	4770      	bx	lr

1000e086 <stop_timer>:
1000e086:	4770      	bx	lr

1000e088 <dbg_le_set_bd_addr_req_handler>:
1000e088:	b5f7      	push	{r0, r1, r2, r4, r5, r6, r7, lr}
1000e08a:	466b      	mov	r3, sp
1000e08c:	1dde      	adds	r6, r3, #7
1000e08e:	2300      	movs	r3, #0
1000e090:	7033      	strb	r3, [r6, #0]
1000e092:	230f      	movs	r3, #15
1000e094:	4c13      	ldr	r4, [pc, #76]	; (1000e0e4 <dbg_le_set_bd_addr_req_handler+0x5c>)
1000e096:	2703      	movs	r7, #3
1000e098:	7023      	strb	r3, [r4, #0]
1000e09a:	2300      	movs	r3, #0
1000e09c:	70e3      	strb	r3, [r4, #3]
1000e09e:	4b12      	ldr	r3, [pc, #72]	; (1000e0e8 <dbg_le_set_bd_addr_req_handler+0x60>)
1000e0a0:	1c01      	adds	r1, r0, #0
1000e0a2:	881a      	ldrh	r2, [r3, #0]
1000e0a4:	881b      	ldrh	r3, [r3, #0]
1000e0a6:	7122      	strb	r2, [r4, #4]
1000e0a8:	0a1b      	lsrs	r3, r3, #8
1000e0aa:	2206      	movs	r2, #6
1000e0ac:	7163      	strb	r3, [r4, #5]
1000e0ae:	480f      	ldr	r0, [pc, #60]	; (1000e0ec <dbg_le_set_bd_addr_req_handler+0x64>)
1000e0b0:	4b0f      	ldr	r3, [pc, #60]	; (1000e0f0 <dbg_le_set_bd_addr_req_handler+0x68>)
1000e0b2:	7067      	strb	r7, [r4, #1]
1000e0b4:	70a7      	strb	r7, [r4, #2]
1000e0b6:	4798      	blx	r3
1000e0b8:	4d0e      	ldr	r5, [pc, #56]	; (1000e0f4 <dbg_le_set_bd_addr_req_handler+0x6c>)
1000e0ba:	4b0f      	ldr	r3, [pc, #60]	; (1000e0f8 <dbg_le_set_bd_addr_req_handler+0x70>)
1000e0bc:	210e      	movs	r1, #14
1000e0be:	802b      	strh	r3, [r5, #0]
1000e0c0:	2306      	movs	r3, #6
1000e0c2:	71a3      	strb	r3, [r4, #6]
1000e0c4:	2300      	movs	r3, #0
1000e0c6:	1c20      	adds	r0, r4, #0
1000e0c8:	71e3      	strb	r3, [r4, #7]
1000e0ca:	4b0c      	ldr	r3, [pc, #48]	; (1000e0fc <dbg_le_set_bd_addr_req_handler+0x74>)
1000e0cc:	80af      	strh	r7, [r5, #4]
1000e0ce:	4798      	blx	r3
1000e0d0:	1c30      	adds	r0, r6, #0
1000e0d2:	4b0b      	ldr	r3, [pc, #44]	; (1000e100 <dbg_le_set_bd_addr_req_handler+0x78>)
1000e0d4:	4798      	blx	r3
1000e0d6:	7833      	ldrb	r3, [r6, #0]
1000e0d8:	20e2      	movs	r0, #226	; 0xe2
1000e0da:	2b00      	cmp	r3, #0
1000e0dc:	d101      	bne.n	1000e0e2 <dbg_le_set_bd_addr_req_handler+0x5a>
1000e0de:	68ab      	ldr	r3, [r5, #8]
1000e0e0:	7818      	ldrb	r0, [r3, #0]
1000e0e2:	bdfe      	pop	{r1, r2, r3, r4, r5, r6, r7, pc}
1000e0e4:	10014ad0 	.word	0x10014ad0
1000e0e8:	10014760 	.word	0x10014760
1000e0ec:	10014ad8 	.word	0x10014ad8
1000e0f0:	10010b37 	.word	0x10010b37
1000e0f4:	10014754 	.word	0x10014754
1000e0f8:	00000329 	.word	0x00000329
1000e0fc:	1000dff5 	.word	0x1000dff5
1000e100:	1000e059 	.word	0x1000e059

1000e104 <gapc_get_dev_info_cfm.constprop.1>:
1000e104:	b538      	push	{r3, r4, r5, lr}
1000e106:	230b      	movs	r3, #11
1000e108:	4c27      	ldr	r4, [pc, #156]	; (1000e1a8 <gapc_get_dev_info_cfm.constprop.1+0xa4>)
1000e10a:	7023      	strb	r3, [r4, #0]
1000e10c:	3303      	adds	r3, #3
1000e10e:	7063      	strb	r3, [r4, #1]
1000e110:	3329      	adds	r3, #41	; 0x29
1000e112:	70a3      	strb	r3, [r4, #2]
1000e114:	4b25      	ldr	r3, [pc, #148]	; (1000e1ac <gapc_get_dev_info_cfm.constprop.1+0xa8>)
1000e116:	70e1      	strb	r1, [r4, #3]
1000e118:	881a      	ldrh	r2, [r3, #0]
1000e11a:	881b      	ldrh	r3, [r3, #0]
1000e11c:	7122      	strb	r2, [r4, #4]
1000e11e:	0a1b      	lsrs	r3, r3, #8
1000e120:	7163      	strb	r3, [r4, #5]
1000e122:	2300      	movs	r3, #0
1000e124:	7220      	strb	r0, [r4, #8]
1000e126:	7263      	strb	r3, [r4, #9]
1000e128:	2801      	cmp	r0, #1
1000e12a:	d02b      	beq.n	1000e184 <gapc_get_dev_info_cfm.constprop.1+0x80>
1000e12c:	4298      	cmp	r0, r3
1000e12e:	d01b      	beq.n	1000e168 <gapc_get_dev_info_cfm.constprop.1+0x64>
1000e130:	2802      	cmp	r0, #2
1000e132:	d12f      	bne.n	1000e194 <gapc_get_dev_info_cfm.constprop.1+0x90>
1000e134:	4b1e      	ldr	r3, [pc, #120]	; (1000e1b0 <gapc_get_dev_info_cfm.constprop.1+0xac>)
1000e136:	2112      	movs	r1, #18
1000e138:	1c1a      	adds	r2, r3, #0
1000e13a:	32ce      	adds	r2, #206	; 0xce
1000e13c:	8812      	ldrh	r2, [r2, #0]
1000e13e:	72a2      	strb	r2, [r4, #10]
1000e140:	0a12      	lsrs	r2, r2, #8
1000e142:	72e2      	strb	r2, [r4, #11]
1000e144:	1c1a      	adds	r2, r3, #0
1000e146:	32d0      	adds	r2, #208	; 0xd0
1000e148:	8812      	ldrh	r2, [r2, #0]
1000e14a:	7322      	strb	r2, [r4, #12]
1000e14c:	0a12      	lsrs	r2, r2, #8
1000e14e:	7362      	strb	r2, [r4, #13]
1000e150:	1c1a      	adds	r2, r3, #0
1000e152:	32d2      	adds	r2, #210	; 0xd2
1000e154:	8812      	ldrh	r2, [r2, #0]
1000e156:	33d4      	adds	r3, #212	; 0xd4
1000e158:	73a2      	strb	r2, [r4, #14]
1000e15a:	0a12      	lsrs	r2, r2, #8
1000e15c:	73e2      	strb	r2, [r4, #15]
1000e15e:	881b      	ldrh	r3, [r3, #0]
1000e160:	7423      	strb	r3, [r4, #16]
1000e162:	0a1b      	lsrs	r3, r3, #8
1000e164:	7463      	strb	r3, [r4, #17]
1000e166:	e016      	b.n	1000e196 <gapc_get_dev_info_cfm.constprop.1+0x92>
1000e168:	4b11      	ldr	r3, [pc, #68]	; (1000e1b0 <gapc_get_dev_info_cfm.constprop.1+0xac>)
1000e16a:	4912      	ldr	r1, [pc, #72]	; (1000e1b4 <gapc_get_dev_info_cfm.constprop.1+0xb0>)
1000e16c:	33aa      	adds	r3, #170	; 0xaa
1000e16e:	881d      	ldrh	r5, [r3, #0]
1000e170:	4811      	ldr	r0, [pc, #68]	; (1000e1b8 <gapc_get_dev_info_cfm.constprop.1+0xb4>)
1000e172:	0a2b      	lsrs	r3, r5, #8
1000e174:	72a5      	strb	r5, [r4, #10]
1000e176:	72e3      	strb	r3, [r4, #11]
1000e178:	1c2a      	adds	r2, r5, #0
1000e17a:	4b10      	ldr	r3, [pc, #64]	; (1000e1bc <gapc_get_dev_info_cfm.constprop.1+0xb8>)
1000e17c:	350c      	adds	r5, #12
1000e17e:	4798      	blx	r3
1000e180:	b2a9      	uxth	r1, r5
1000e182:	e008      	b.n	1000e196 <gapc_get_dev_info_cfm.constprop.1+0x92>
1000e184:	4b0a      	ldr	r3, [pc, #40]	; (1000e1b0 <gapc_get_dev_info_cfm.constprop.1+0xac>)
1000e186:	210c      	movs	r1, #12
1000e188:	33cc      	adds	r3, #204	; 0xcc
1000e18a:	881b      	ldrh	r3, [r3, #0]
1000e18c:	72a3      	strb	r3, [r4, #10]
1000e18e:	0a1b      	lsrs	r3, r3, #8
1000e190:	72e3      	strb	r3, [r4, #11]
1000e192:	e000      	b.n	1000e196 <gapc_get_dev_info_cfm.constprop.1+0x92>
1000e194:	210a      	movs	r1, #10
1000e196:	1c0b      	adds	r3, r1, #0
1000e198:	3b08      	subs	r3, #8
1000e19a:	71a3      	strb	r3, [r4, #6]
1000e19c:	121b      	asrs	r3, r3, #8
1000e19e:	71e3      	strb	r3, [r4, #7]
1000e1a0:	1c20      	adds	r0, r4, #0
1000e1a2:	4b07      	ldr	r3, [pc, #28]	; (1000e1c0 <gapc_get_dev_info_cfm.constprop.1+0xbc>)
1000e1a4:	4798      	blx	r3
1000e1a6:	bd38      	pop	{r3, r4, r5, pc}
1000e1a8:	10014ad0 	.word	0x10014ad0
1000e1ac:	10014760 	.word	0x10014760
1000e1b0:	100147f2 	.word	0x100147f2
1000e1b4:	1001489e 	.word	0x1001489e
1000e1b8:	10014adc 	.word	0x10014adc
1000e1bc:	10010b37 	.word	0x10010b37
1000e1c0:	1000dff5 	.word	0x1000dff5

1000e1c4 <check_ConnData_idx_role>:
1000e1c4:	4b0c      	ldr	r3, [pc, #48]	; (1000e1f8 <check_ConnData_idx_role+0x34>)
1000e1c6:	b570      	push	{r4, r5, r6, lr}
1000e1c8:	1c04      	adds	r4, r0, #0
1000e1ca:	2008      	movs	r0, #8
1000e1cc:	429c      	cmp	r4, r3
1000e1ce:	d011      	beq.n	1000e1f4 <check_ConnData_idx_role+0x30>
1000e1d0:	2300      	movs	r3, #0
1000e1d2:	2212      	movs	r2, #18
1000e1d4:	435a      	muls	r2, r3
1000e1d6:	4d09      	ldr	r5, [pc, #36]	; (1000e1fc <check_ConnData_idx_role+0x38>)
1000e1d8:	b2d8      	uxtb	r0, r3
1000e1da:	1956      	adds	r6, r2, r5
1000e1dc:	8976      	ldrh	r6, [r6, #10]
1000e1de:	42a6      	cmp	r6, r4
1000e1e0:	d104      	bne.n	1000e1ec <check_ConnData_idx_role+0x28>
1000e1e2:	2900      	cmp	r1, #0
1000e1e4:	d006      	beq.n	1000e1f4 <check_ConnData_idx_role+0x30>
1000e1e6:	5d53      	ldrb	r3, [r2, r5]
1000e1e8:	700b      	strb	r3, [r1, #0]
1000e1ea:	e003      	b.n	1000e1f4 <check_ConnData_idx_role+0x30>
1000e1ec:	3301      	adds	r3, #1
1000e1ee:	2b08      	cmp	r3, #8
1000e1f0:	d1ef      	bne.n	1000e1d2 <check_ConnData_idx_role+0xe>
1000e1f2:	1c18      	adds	r0, r3, #0
1000e1f4:	bd70      	pop	{r4, r5, r6, pc}
1000e1f6:	46c0      	nop			; (mov r8, r8)
1000e1f8:	0000ffff 	.word	0x0000ffff
1000e1fc:	10014762 	.word	0x10014762

1000e200 <check_ConnData_emptyEntry>:
1000e200:	2300      	movs	r3, #0
1000e202:	2212      	movs	r2, #18
1000e204:	435a      	muls	r2, r3
1000e206:	4906      	ldr	r1, [pc, #24]	; (1000e220 <check_ConnData_emptyEntry+0x20>)
1000e208:	b2d8      	uxtb	r0, r3
1000e20a:	1852      	adds	r2, r2, r1
1000e20c:	8951      	ldrh	r1, [r2, #10]
1000e20e:	4a05      	ldr	r2, [pc, #20]	; (1000e224 <check_ConnData_emptyEntry+0x24>)
1000e210:	4291      	cmp	r1, r2
1000e212:	d003      	beq.n	1000e21c <check_ConnData_emptyEntry+0x1c>
1000e214:	3301      	adds	r3, #1
1000e216:	2b08      	cmp	r3, #8
1000e218:	d1f3      	bne.n	1000e202 <check_ConnData_emptyEntry+0x2>
1000e21a:	1c18      	adds	r0, r3, #0
1000e21c:	4770      	bx	lr
1000e21e:	46c0      	nop			; (mov r8, r8)
1000e220:	10014762 	.word	0x10014762
1000e224:	0000ffff 	.word	0x0000ffff

1000e228 <gapc_cmp_evt>:
1000e228:	b5f7      	push	{r0, r1, r2, r4, r5, r6, r7, lr}
1000e22a:	780b      	ldrb	r3, [r1, #0]
1000e22c:	1c05      	adds	r5, r0, #0
1000e22e:	1e58      	subs	r0, r3, #1
1000e230:	784e      	ldrb	r6, [r1, #1]
1000e232:	280f      	cmp	r0, #15
1000e234:	d85a      	bhi.n	1000e2ec <gapc_cmp_evt+0xc4>
1000e236:	1c14      	adds	r4, r2, #0
1000e238:	f001 fba4 	bl	1000f984 <__gnu_thumb1_case_uqi>
1000e23c:	5858440a 	.word	0x5858440a
1000e240:	4b584444 	.word	0x4b584444
1000e244:	0825122d 	.word	0x0825122d
1000e248:	3e395858 	.word	0x3e395858
1000e24c:	203b      	movs	r0, #59	; 0x3b
1000e24e:	e04e      	b.n	1000e2ee <gapc_cmp_evt+0xc6>
1000e250:	203b      	movs	r0, #59	; 0x3b
1000e252:	2e00      	cmp	r6, #0
1000e254:	d04b      	beq.n	1000e2ee <gapc_cmp_evt+0xc6>
1000e256:	0a2d      	lsrs	r5, r5, #8
1000e258:	8015      	strh	r5, [r2, #0]
1000e25a:	7096      	strb	r6, [r2, #2]
1000e25c:	3835      	subs	r0, #53	; 0x35
1000e25e:	e046      	b.n	1000e2ee <gapc_cmp_evt+0xc6>
1000e260:	466b      	mov	r3, sp
1000e262:	1ddf      	adds	r7, r3, #7
1000e264:	2301      	movs	r3, #1
1000e266:	0a2d      	lsrs	r5, r5, #8
1000e268:	703b      	strb	r3, [r7, #0]
1000e26a:	1c28      	adds	r0, r5, #0
1000e26c:	1c39      	adds	r1, r7, #0
1000e26e:	4b20      	ldr	r3, [pc, #128]	; (1000e2f0 <gapc_cmp_evt+0xc8>)
1000e270:	4798      	blx	r3
1000e272:	2807      	cmp	r0, #7
1000e274:	d803      	bhi.n	1000e27e <gapc_cmp_evt+0x56>
1000e276:	783b      	ldrb	r3, [r7, #0]
1000e278:	203b      	movs	r0, #59	; 0x3b
1000e27a:	2b00      	cmp	r3, #0
1000e27c:	d037      	beq.n	1000e2ee <gapc_cmp_evt+0xc6>
1000e27e:	8065      	strh	r5, [r4, #2]
1000e280:	7126      	strb	r6, [r4, #4]
1000e282:	2009      	movs	r0, #9
1000e284:	e033      	b.n	1000e2ee <gapc_cmp_evt+0xc6>
1000e286:	203b      	movs	r0, #59	; 0x3b
1000e288:	2e00      	cmp	r6, #0
1000e28a:	d030      	beq.n	1000e2ee <gapc_cmp_evt+0xc6>
1000e28c:	0a2d      	lsrs	r5, r5, #8
1000e28e:	8015      	strh	r5, [r2, #0]
1000e290:	7096      	strb	r6, [r2, #2]
1000e292:	382d      	subs	r0, #45	; 0x2d
1000e294:	e02b      	b.n	1000e2ee <gapc_cmp_evt+0xc6>
1000e296:	203b      	movs	r0, #59	; 0x3b
1000e298:	2e00      	cmp	r6, #0
1000e29a:	d028      	beq.n	1000e2ee <gapc_cmp_evt+0xc6>
1000e29c:	2300      	movs	r3, #0
1000e29e:	0a2d      	lsrs	r5, r5, #8
1000e2a0:	8015      	strh	r5, [r2, #0]
1000e2a2:	7096      	strb	r6, [r2, #2]
1000e2a4:	8093      	strh	r3, [r2, #4]
1000e2a6:	80d3      	strh	r3, [r2, #6]
1000e2a8:	8113      	strh	r3, [r2, #8]
1000e2aa:	3834      	subs	r0, #52	; 0x34
1000e2ac:	e01f      	b.n	1000e2ee <gapc_cmp_evt+0xc6>
1000e2ae:	203b      	movs	r0, #59	; 0x3b
1000e2b0:	2e00      	cmp	r6, #0
1000e2b2:	d01c      	beq.n	1000e2ee <gapc_cmp_evt+0xc6>
1000e2b4:	7216      	strb	r6, [r2, #8]
1000e2b6:	e003      	b.n	1000e2c0 <gapc_cmp_evt+0x98>
1000e2b8:	203b      	movs	r0, #59	; 0x3b
1000e2ba:	2e00      	cmp	r6, #0
1000e2bc:	d017      	beq.n	1000e2ee <gapc_cmp_evt+0xc6>
1000e2be:	7116      	strb	r6, [r2, #4]
1000e2c0:	3812      	subs	r0, #18
1000e2c2:	e014      	b.n	1000e2ee <gapc_cmp_evt+0xc6>
1000e2c4:	203b      	movs	r0, #59	; 0x3b
1000e2c6:	2e00      	cmp	r6, #0
1000e2c8:	d011      	beq.n	1000e2ee <gapc_cmp_evt+0xc6>
1000e2ca:	7093      	strb	r3, [r2, #2]
1000e2cc:	70d6      	strb	r6, [r2, #3]
1000e2ce:	382a      	subs	r0, #42	; 0x2a
1000e2d0:	e00d      	b.n	1000e2ee <gapc_cmp_evt+0xc6>
1000e2d2:	203b      	movs	r0, #59	; 0x3b
1000e2d4:	2e00      	cmp	r6, #0
1000e2d6:	d00a      	beq.n	1000e2ee <gapc_cmp_evt+0xc6>
1000e2d8:	0a2d      	lsrs	r5, r5, #8
1000e2da:	7016      	strb	r6, [r2, #0]
1000e2dc:	8055      	strh	r5, [r2, #2]
1000e2de:	1d10      	adds	r0, r2, #4
1000e2e0:	2100      	movs	r1, #0
1000e2e2:	2205      	movs	r2, #5
1000e2e4:	4b03      	ldr	r3, [pc, #12]	; (1000e2f4 <gapc_cmp_evt+0xcc>)
1000e2e6:	4798      	blx	r3
1000e2e8:	2012      	movs	r0, #18
1000e2ea:	e000      	b.n	1000e2ee <gapc_cmp_evt+0xc6>
1000e2ec:	2000      	movs	r0, #0
1000e2ee:	bdfe      	pop	{r1, r2, r3, r4, r5, r6, r7, pc}
1000e2f0:	1000e1c5 	.word	0x1000e1c5
1000e2f4:	10010b49 	.word	0x10010b49

1000e2f8 <gapc_connection_cfm_handler>:
1000e2f8:	b5f0      	push	{r4, r5, r6, r7, lr}
1000e2fa:	b085      	sub	sp, #20
1000e2fc:	1c1d      	adds	r5, r3, #0
1000e2fe:	ab0a      	add	r3, sp, #40	; 0x28
1000e300:	781b      	ldrb	r3, [r3, #0]
1000e302:	9201      	str	r2, [sp, #4]
1000e304:	9302      	str	r3, [sp, #8]
1000e306:	ab0b      	add	r3, sp, #44	; 0x2c
1000e308:	781b      	ldrb	r3, [r3, #0]
1000e30a:	1c07      	adds	r7, r0, #0
1000e30c:	9303      	str	r3, [sp, #12]
1000e30e:	ab0c      	add	r3, sp, #48	; 0x30
1000e310:	881a      	ldrh	r2, [r3, #0]
1000e312:	2302      	movs	r3, #2
1000e314:	1c0e      	adds	r6, r1, #0
1000e316:	4c23      	ldr	r4, [pc, #140]	; (1000e3a4 <gapc_connection_cfm_handler+0xac>)
1000e318:	1c39      	adds	r1, r7, #0
1000e31a:	7023      	strb	r3, [r4, #0]
1000e31c:	330c      	adds	r3, #12
1000e31e:	7063      	strb	r3, [r4, #1]
1000e320:	70a3      	strb	r3, [r4, #2]
1000e322:	4b21      	ldr	r3, [pc, #132]	; (1000e3a8 <gapc_connection_cfm_handler+0xb0>)
1000e324:	70e2      	strb	r2, [r4, #3]
1000e326:	881a      	ldrh	r2, [r3, #0]
1000e328:	881b      	ldrh	r3, [r3, #0]
1000e32a:	7122      	strb	r2, [r4, #4]
1000e32c:	0a1b      	lsrs	r3, r3, #8
1000e32e:	4f1f      	ldr	r7, [pc, #124]	; (1000e3ac <gapc_connection_cfm_handler+0xb4>)
1000e330:	2210      	movs	r2, #16
1000e332:	481f      	ldr	r0, [pc, #124]	; (1000e3b0 <gapc_connection_cfm_handler+0xb8>)
1000e334:	7163      	strb	r3, [r4, #5]
1000e336:	47b8      	blx	r7
1000e338:	0a33      	lsrs	r3, r6, #8
1000e33a:	7626      	strb	r6, [r4, #24]
1000e33c:	7663      	strb	r3, [r4, #25]
1000e33e:	9901      	ldr	r1, [sp, #4]
1000e340:	0c33      	lsrs	r3, r6, #16
1000e342:	2210      	movs	r2, #16
1000e344:	0e36      	lsrs	r6, r6, #24
1000e346:	481b      	ldr	r0, [pc, #108]	; (1000e3b4 <gapc_connection_cfm_handler+0xbc>)
1000e348:	76a3      	strb	r3, [r4, #26]
1000e34a:	76e6      	strb	r6, [r4, #27]
1000e34c:	47b8      	blx	r7
1000e34e:	1c23      	adds	r3, r4, #0
1000e350:	332c      	adds	r3, #44	; 0x2c
1000e352:	701d      	strb	r5, [r3, #0]
1000e354:	1c23      	adds	r3, r4, #0
1000e356:	0a2a      	lsrs	r2, r5, #8
1000e358:	332d      	adds	r3, #45	; 0x2d
1000e35a:	701a      	strb	r2, [r3, #0]
1000e35c:	1c23      	adds	r3, r4, #0
1000e35e:	0c2a      	lsrs	r2, r5, #16
1000e360:	332e      	adds	r3, #46	; 0x2e
1000e362:	701a      	strb	r2, [r3, #0]
1000e364:	1c23      	adds	r3, r4, #0
1000e366:	0e2d      	lsrs	r5, r5, #24
1000e368:	332f      	adds	r3, #47	; 0x2f
1000e36a:	466a      	mov	r2, sp
1000e36c:	701d      	strb	r5, [r3, #0]
1000e36e:	1c23      	adds	r3, r4, #0
1000e370:	7a12      	ldrb	r2, [r2, #8]
1000e372:	3330      	adds	r3, #48	; 0x30
1000e374:	701a      	strb	r2, [r3, #0]
1000e376:	1c23      	adds	r3, r4, #0
1000e378:	2500      	movs	r5, #0
1000e37a:	3331      	adds	r3, #49	; 0x31
1000e37c:	466a      	mov	r2, sp
1000e37e:	701d      	strb	r5, [r3, #0]
1000e380:	1c23      	adds	r3, r4, #0
1000e382:	7b12      	ldrb	r2, [r2, #12]
1000e384:	3332      	adds	r3, #50	; 0x32
1000e386:	701a      	strb	r2, [r3, #0]
1000e388:	1c23      	adds	r3, r4, #0
1000e38a:	3333      	adds	r3, #51	; 0x33
1000e38c:	701d      	strb	r5, [r3, #0]
1000e38e:	232c      	movs	r3, #44	; 0x2c
1000e390:	1c20      	adds	r0, r4, #0
1000e392:	71a3      	strb	r3, [r4, #6]
1000e394:	2134      	movs	r1, #52	; 0x34
1000e396:	4b08      	ldr	r3, [pc, #32]	; (1000e3b8 <gapc_connection_cfm_handler+0xc0>)
1000e398:	71e5      	strb	r5, [r4, #7]
1000e39a:	4798      	blx	r3
1000e39c:	1c28      	adds	r0, r5, #0
1000e39e:	b005      	add	sp, #20
1000e3a0:	bdf0      	pop	{r4, r5, r6, r7, pc}
1000e3a2:	46c0      	nop			; (mov r8, r8)
1000e3a4:	10014ad0 	.word	0x10014ad0
1000e3a8:	10014760 	.word	0x10014760
1000e3ac:	10010b37 	.word	0x10010b37
1000e3b0:	10014ad8 	.word	0x10014ad8
1000e3b4:	10014aec 	.word	0x10014aec
1000e3b8:	1000dff5 	.word	0x1000dff5

1000e3bc <gapc_con_req_ind>:
1000e3bc:	b5f0      	push	{r4, r5, r6, r7, lr}
1000e3be:	7845      	ldrb	r5, [r0, #1]
1000e3c0:	7803      	ldrb	r3, [r0, #0]
1000e3c2:	4c30      	ldr	r4, [pc, #192]	; (1000e484 <gapc_con_req_ind+0xc8>)
1000e3c4:	022d      	lsls	r5, r5, #8
1000e3c6:	431d      	orrs	r5, r3
1000e3c8:	85a5      	strh	r5, [r4, #44]	; 0x2c
1000e3ca:	78c3      	ldrb	r3, [r0, #3]
1000e3cc:	7882      	ldrb	r2, [r0, #2]
1000e3ce:	b08b      	sub	sp, #44	; 0x2c
1000e3d0:	021b      	lsls	r3, r3, #8
1000e3d2:	431a      	orrs	r2, r3
1000e3d4:	466b      	mov	r3, sp
1000e3d6:	9205      	str	r2, [sp, #20]
1000e3d8:	8a9b      	ldrh	r3, [r3, #20]
1000e3da:	2120      	movs	r1, #32
1000e3dc:	85e3      	strh	r3, [r4, #46]	; 0x2e
1000e3de:	7943      	ldrb	r3, [r0, #5]
1000e3e0:	7902      	ldrb	r2, [r0, #4]
1000e3e2:	021b      	lsls	r3, r3, #8
1000e3e4:	431a      	orrs	r2, r3
1000e3e6:	466b      	mov	r3, sp
1000e3e8:	9206      	str	r2, [sp, #24]
1000e3ea:	8b1b      	ldrh	r3, [r3, #24]
1000e3ec:	1c06      	adds	r6, r0, #0
1000e3ee:	8623      	strh	r3, [r4, #48]	; 0x30
1000e3f0:	79c3      	ldrb	r3, [r0, #7]
1000e3f2:	7982      	ldrb	r2, [r0, #6]
1000e3f4:	021b      	lsls	r3, r3, #8
1000e3f6:	431a      	orrs	r2, r3
1000e3f8:	466b      	mov	r3, sp
1000e3fa:	9207      	str	r2, [sp, #28]
1000e3fc:	466a      	mov	r2, sp
1000e3fe:	8b9b      	ldrh	r3, [r3, #28]
1000e400:	1852      	adds	r2, r2, r1
1000e402:	8663      	strh	r3, [r4, #50]	; 0x32
1000e404:	7a43      	ldrb	r3, [r0, #9]
1000e406:	1c01      	adds	r1, r0, #0
1000e408:	9308      	str	r3, [sp, #32]
1000e40a:	1c23      	adds	r3, r4, #0
1000e40c:	7812      	ldrb	r2, [r2, #0]
1000e40e:	3377      	adds	r3, #119	; 0x77
1000e410:	3478      	adds	r4, #120	; 0x78
1000e412:	701a      	strb	r2, [r3, #0]
1000e414:	310a      	adds	r1, #10
1000e416:	2206      	movs	r2, #6
1000e418:	4b1b      	ldr	r3, [pc, #108]	; (1000e488 <gapc_con_req_ind+0xcc>)
1000e41a:	1c20      	adds	r0, r4, #0
1000e41c:	4798      	blx	r3
1000e41e:	7c33      	ldrb	r3, [r6, #16]
1000e420:	9309      	str	r3, [sp, #36]	; 0x24
1000e422:	4b1a      	ldr	r3, [pc, #104]	; (1000e48c <gapc_con_req_ind+0xd0>)
1000e424:	4798      	blx	r3
1000e426:	4e1a      	ldr	r6, [pc, #104]	; (1000e490 <gapc_con_req_ind+0xd4>)
1000e428:	1e07      	subs	r7, r0, #0
1000e42a:	2f07      	cmp	r7, #7
1000e42c:	d81b      	bhi.n	1000e466 <gapc_con_req_ind+0xaa>
1000e42e:	2312      	movs	r3, #18
1000e430:	4343      	muls	r3, r0
1000e432:	18f0      	adds	r0, r6, r3
1000e434:	8145      	strh	r5, [r0, #10]
1000e436:	4669      	mov	r1, sp
1000e438:	2524      	movs	r5, #36	; 0x24
1000e43a:	1949      	adds	r1, r1, r5
1000e43c:	7809      	ldrb	r1, [r1, #0]
1000e43e:	2206      	movs	r2, #6
1000e440:	54f1      	strb	r1, [r6, r3]
1000e442:	2120      	movs	r1, #32
1000e444:	466b      	mov	r3, sp
1000e446:	185b      	adds	r3, r3, r1
1000e448:	781b      	ldrb	r3, [r3, #0]
1000e44a:	1c21      	adds	r1, r4, #0
1000e44c:	7043      	strb	r3, [r0, #1]
1000e44e:	466b      	mov	r3, sp
1000e450:	8a9b      	ldrh	r3, [r3, #20]
1000e452:	3002      	adds	r0, #2
1000e454:	8143      	strh	r3, [r0, #10]
1000e456:	466b      	mov	r3, sp
1000e458:	8b1b      	ldrh	r3, [r3, #24]
1000e45a:	8183      	strh	r3, [r0, #12]
1000e45c:	466b      	mov	r3, sp
1000e45e:	8b9b      	ldrh	r3, [r3, #28]
1000e460:	81c3      	strh	r3, [r0, #14]
1000e462:	4b09      	ldr	r3, [pc, #36]	; (1000e488 <gapc_con_req_ind+0xcc>)
1000e464:	4798      	blx	r3
1000e466:	2112      	movs	r1, #18
1000e468:	2300      	movs	r3, #0
1000e46a:	434f      	muls	r7, r1
1000e46c:	9300      	str	r3, [sp, #0]
1000e46e:	9301      	str	r3, [sp, #4]
1000e470:	19f6      	adds	r6, r6, r7
1000e472:	8971      	ldrh	r1, [r6, #10]
1000e474:	4a07      	ldr	r2, [pc, #28]	; (1000e494 <gapc_con_req_ind+0xd8>)
1000e476:	9102      	str	r1, [sp, #8]
1000e478:	1c10      	adds	r0, r2, #0
1000e47a:	1c19      	adds	r1, r3, #0
1000e47c:	4c06      	ldr	r4, [pc, #24]	; (1000e498 <gapc_con_req_ind+0xdc>)
1000e47e:	47a0      	blx	r4
1000e480:	b00b      	add	sp, #44	; 0x2c
1000e482:	bdf0      	pop	{r4, r5, r6, r7, pc}
1000e484:	100147f2 	.word	0x100147f2
1000e488:	10010b37 	.word	0x10010b37
1000e48c:	1000e201 	.word	0x1000e201
1000e490:	10014762 	.word	0x10014762
1000e494:	1001393c 	.word	0x1001393c
1000e498:	1000e2f9 	.word	0x1000e2f9

1000e49c <gapc_disconnect_cmd_handler>:
1000e49c:	2204      	movs	r2, #4
1000e49e:	b510      	push	{r4, lr}
1000e4a0:	4b0c      	ldr	r3, [pc, #48]	; (1000e4d4 <gapc_disconnect_cmd_handler+0x38>)
1000e4a2:	2400      	movs	r4, #0
1000e4a4:	701a      	strb	r2, [r3, #0]
1000e4a6:	320a      	adds	r2, #10
1000e4a8:	705a      	strb	r2, [r3, #1]
1000e4aa:	709a      	strb	r2, [r3, #2]
1000e4ac:	4a0a      	ldr	r2, [pc, #40]	; (1000e4d8 <gapc_disconnect_cmd_handler+0x3c>)
1000e4ae:	70d9      	strb	r1, [r3, #3]
1000e4b0:	8811      	ldrh	r1, [r2, #0]
1000e4b2:	8812      	ldrh	r2, [r2, #0]
1000e4b4:	7119      	strb	r1, [r3, #4]
1000e4b6:	0a12      	lsrs	r2, r2, #8
1000e4b8:	715a      	strb	r2, [r3, #5]
1000e4ba:	2201      	movs	r2, #1
1000e4bc:	721a      	strb	r2, [r3, #8]
1000e4be:	1892      	adds	r2, r2, r2
1000e4c0:	7258      	strb	r0, [r3, #9]
1000e4c2:	719a      	strb	r2, [r3, #6]
1000e4c4:	71dc      	strb	r4, [r3, #7]
1000e4c6:	1c18      	adds	r0, r3, #0
1000e4c8:	210a      	movs	r1, #10
1000e4ca:	4b04      	ldr	r3, [pc, #16]	; (1000e4dc <gapc_disconnect_cmd_handler+0x40>)
1000e4cc:	4798      	blx	r3
1000e4ce:	1c20      	adds	r0, r4, #0
1000e4d0:	bd10      	pop	{r4, pc}
1000e4d2:	46c0      	nop			; (mov r8, r8)
1000e4d4:	10014ad0 	.word	0x10014ad0
1000e4d8:	10014760 	.word	0x10014760
1000e4dc:	1000dff5 	.word	0x1000dff5

1000e4e0 <gapc_disconnect_ind>:
1000e4e0:	1c02      	adds	r2, r0, #0
1000e4e2:	b508      	push	{r3, lr}
1000e4e4:	7843      	ldrb	r3, [r0, #1]
1000e4e6:	7800      	ldrb	r0, [r0, #0]
1000e4e8:	021b      	lsls	r3, r3, #8
1000e4ea:	4318      	orrs	r0, r3
1000e4ec:	8008      	strh	r0, [r1, #0]
1000e4ee:	7893      	ldrb	r3, [r2, #2]
1000e4f0:	708b      	strb	r3, [r1, #2]
1000e4f2:	2100      	movs	r1, #0
1000e4f4:	4b05      	ldr	r3, [pc, #20]	; (1000e50c <gapc_disconnect_ind+0x2c>)
1000e4f6:	4798      	blx	r3
1000e4f8:	2807      	cmp	r0, #7
1000e4fa:	d806      	bhi.n	1000e50a <gapc_disconnect_ind+0x2a>
1000e4fc:	2312      	movs	r3, #18
1000e4fe:	4358      	muls	r0, r3
1000e500:	4b03      	ldr	r3, [pc, #12]	; (1000e510 <gapc_disconnect_ind+0x30>)
1000e502:	1818      	adds	r0, r3, r0
1000e504:	2301      	movs	r3, #1
1000e506:	425b      	negs	r3, r3
1000e508:	8143      	strh	r3, [r0, #10]
1000e50a:	bd08      	pop	{r3, pc}
1000e50c:	1000e1c5 	.word	0x1000e1c5
1000e510:	10014762 	.word	0x10014762

1000e514 <gapc_bond_cmd_handler>:
1000e514:	b5f7      	push	{r0, r1, r2, r4, r5, r6, r7, lr}
1000e516:	9300      	str	r3, [sp, #0]
1000e518:	2312      	movs	r3, #18
1000e51a:	1c04      	adds	r4, r0, #0
1000e51c:	a808      	add	r0, sp, #32
1000e51e:	7807      	ldrb	r7, [r0, #0]
1000e520:	a809      	add	r0, sp, #36	; 0x24
1000e522:	7806      	ldrb	r6, [r0, #0]
1000e524:	a80a      	add	r0, sp, #40	; 0x28
1000e526:	7805      	ldrb	r5, [r0, #0]
1000e528:	a80b      	add	r0, sp, #44	; 0x2c
1000e52a:	7800      	ldrb	r0, [r0, #0]
1000e52c:	9001      	str	r0, [sp, #4]
1000e52e:	4810      	ldr	r0, [pc, #64]	; (1000e570 <gapc_bond_cmd_handler+0x5c>)
1000e530:	7003      	strb	r3, [r0, #0]
1000e532:	230e      	movs	r3, #14
1000e534:	70c4      	strb	r4, [r0, #3]
1000e536:	4c0f      	ldr	r4, [pc, #60]	; (1000e574 <gapc_bond_cmd_handler+0x60>)
1000e538:	7043      	strb	r3, [r0, #1]
1000e53a:	7083      	strb	r3, [r0, #2]
1000e53c:	8823      	ldrh	r3, [r4, #0]
1000e53e:	8824      	ldrh	r4, [r4, #0]
1000e540:	7103      	strb	r3, [r0, #4]
1000e542:	466b      	mov	r3, sp
1000e544:	781b      	ldrb	r3, [r3, #0]
1000e546:	0a24      	lsrs	r4, r4, #8
1000e548:	72c3      	strb	r3, [r0, #11]
1000e54a:	466b      	mov	r3, sp
1000e54c:	791b      	ldrb	r3, [r3, #4]
1000e54e:	7144      	strb	r4, [r0, #5]
1000e550:	73c3      	strb	r3, [r0, #15]
1000e552:	2308      	movs	r3, #8
1000e554:	7183      	strb	r3, [r0, #6]
1000e556:	2300      	movs	r3, #0
1000e558:	240a      	movs	r4, #10
1000e55a:	7241      	strb	r1, [r0, #9]
1000e55c:	71c3      	strb	r3, [r0, #7]
1000e55e:	2110      	movs	r1, #16
1000e560:	4b05      	ldr	r3, [pc, #20]	; (1000e578 <gapc_bond_cmd_handler+0x64>)
1000e562:	7307      	strb	r7, [r0, #12]
1000e564:	7346      	strb	r6, [r0, #13]
1000e566:	7385      	strb	r5, [r0, #14]
1000e568:	7204      	strb	r4, [r0, #8]
1000e56a:	7282      	strb	r2, [r0, #10]
1000e56c:	4798      	blx	r3
1000e56e:	bdf7      	pop	{r0, r1, r2, r4, r5, r6, r7, pc}
1000e570:	10014ad0 	.word	0x10014ad0
1000e574:	10014760 	.word	0x10014760
1000e578:	1000dff5 	.word	0x1000dff5

1000e57c <gapc_bond_ind>:
1000e57c:	b5f8      	push	{r3, r4, r5, r6, r7, lr}
1000e57e:	780e      	ldrb	r6, [r1, #0]
1000e580:	1c03      	adds	r3, r0, #0
1000e582:	1eb0      	subs	r0, r6, #2
1000e584:	2805      	cmp	r0, #5
1000e586:	d85d      	bhi.n	1000e644 <gapc_bond_ind+0xc8>
1000e588:	1c15      	adds	r5, r2, #0
1000e58a:	1c0c      	adds	r4, r1, #0
1000e58c:	f001 f9fa 	bl	1000f984 <__gnu_thumb1_case_uqi>
1000e590:	2f5a030d 	.word	0x2f5a030d
1000e594:	4740      	.short	0x4740
1000e596:	2009      	movs	r0, #9
1000e598:	2a00      	cmp	r2, #0
1000e59a:	d054      	beq.n	1000e646 <gapc_bond_ind+0xca>
1000e59c:	0a1b      	lsrs	r3, r3, #8
1000e59e:	8053      	strh	r3, [r2, #2]
1000e5a0:	788b      	ldrb	r3, [r1, #2]
1000e5a2:	4829      	ldr	r0, [pc, #164]	; (1000e648 <gapc_bond_ind+0xcc>)
1000e5a4:	7113      	strb	r3, [r2, #4]
1000e5a6:	2100      	movs	r1, #0
1000e5a8:	e01c      	b.n	1000e5e4 <gapc_bond_ind+0x68>
1000e5aa:	2009      	movs	r0, #9
1000e5ac:	2a00      	cmp	r2, #0
1000e5ae:	d04a      	beq.n	1000e646 <gapc_bond_ind+0xca>
1000e5b0:	4c25      	ldr	r4, [pc, #148]	; (1000e648 <gapc_bond_ind+0xcc>)
1000e5b2:	0a1b      	lsrs	r3, r3, #8
1000e5b4:	8053      	strh	r3, [r2, #2]
1000e5b6:	788b      	ldrb	r3, [r1, #2]
1000e5b8:	2700      	movs	r7, #0
1000e5ba:	1c10      	adds	r0, r2, #0
1000e5bc:	1c21      	adds	r1, r4, #0
1000e5be:	7013      	strb	r3, [r2, #0]
1000e5c0:	4e22      	ldr	r6, [pc, #136]	; (1000e64c <gapc_bond_ind+0xd0>)
1000e5c2:	7117      	strb	r7, [r2, #4]
1000e5c4:	312e      	adds	r1, #46	; 0x2e
1000e5c6:	2217      	movs	r2, #23
1000e5c8:	3032      	adds	r0, #50	; 0x32
1000e5ca:	47b0      	blx	r6
1000e5cc:	1c28      	adds	r0, r5, #0
1000e5ce:	1c21      	adds	r1, r4, #0
1000e5d0:	2210      	movs	r2, #16
1000e5d2:	311e      	adds	r1, #30
1000e5d4:	3022      	adds	r0, #34	; 0x22
1000e5d6:	47b0      	blx	r6
1000e5d8:	1ca1      	adds	r1, r4, #2
1000e5da:	1da8      	adds	r0, r5, #6
1000e5dc:	221c      	movs	r2, #28
1000e5de:	47b0      	blx	r6
1000e5e0:	1c20      	adds	r0, r4, #0
1000e5e2:	1c39      	adds	r1, r7, #0
1000e5e4:	2246      	movs	r2, #70	; 0x46
1000e5e6:	4b1a      	ldr	r3, [pc, #104]	; (1000e650 <gapc_bond_ind+0xd4>)
1000e5e8:	4798      	blx	r3
1000e5ea:	2009      	movs	r0, #9
1000e5ec:	e02b      	b.n	1000e646 <gapc_bond_ind+0xca>
1000e5ee:	4d16      	ldr	r5, [pc, #88]	; (1000e648 <gapc_bond_ind+0xcc>)
1000e5f0:	3102      	adds	r1, #2
1000e5f2:	1c28      	adds	r0, r5, #0
1000e5f4:	2210      	movs	r2, #16
1000e5f6:	4e15      	ldr	r6, [pc, #84]	; (1000e64c <gapc_bond_ind+0xd0>)
1000e5f8:	302e      	adds	r0, #46	; 0x2e
1000e5fa:	47b0      	blx	r6
1000e5fc:	1c28      	adds	r0, r5, #0
1000e5fe:	1c21      	adds	r1, r4, #0
1000e600:	303f      	adds	r0, #63	; 0x3f
1000e602:	3112      	adds	r1, #18
1000e604:	2206      	movs	r2, #6
1000e606:	47b0      	blx	r6
1000e608:	7e23      	ldrb	r3, [r4, #24]
1000e60a:	353e      	adds	r5, #62	; 0x3e
1000e60c:	702b      	strb	r3, [r5, #0]
1000e60e:	e019      	b.n	1000e644 <gapc_bond_ind+0xc8>
1000e610:	480d      	ldr	r0, [pc, #52]	; (1000e648 <gapc_bond_ind+0xcc>)
1000e612:	3102      	adds	r1, #2
1000e614:	2210      	movs	r2, #16
1000e616:	4b0d      	ldr	r3, [pc, #52]	; (1000e64c <gapc_bond_ind+0xd0>)
1000e618:	301e      	adds	r0, #30
1000e61a:	4798      	blx	r3
1000e61c:	e012      	b.n	1000e644 <gapc_bond_ind+0xc8>
1000e61e:	4d0a      	ldr	r5, [pc, #40]	; (1000e648 <gapc_bond_ind+0xcc>)
1000e620:	3102      	adds	r1, #2
1000e622:	2210      	movs	r2, #16
1000e624:	4e09      	ldr	r6, [pc, #36]	; (1000e64c <gapc_bond_ind+0xd0>)
1000e626:	1ca8      	adds	r0, r5, #2
1000e628:	47b0      	blx	r6
1000e62a:	1c28      	adds	r0, r5, #0
1000e62c:	1c21      	adds	r1, r4, #0
1000e62e:	7ce3      	ldrb	r3, [r4, #19]
1000e630:	7ca2      	ldrb	r2, [r4, #18]
1000e632:	021b      	lsls	r3, r3, #8
1000e634:	4313      	orrs	r3, r2
1000e636:	3014      	adds	r0, #20
1000e638:	3114      	adds	r1, #20
1000e63a:	2208      	movs	r2, #8
1000e63c:	826b      	strh	r3, [r5, #18]
1000e63e:	47b0      	blx	r6
1000e640:	7f23      	ldrb	r3, [r4, #28]
1000e642:	772b      	strb	r3, [r5, #28]
1000e644:	2000      	movs	r0, #0
1000e646:	bdf8      	pop	{r3, r4, r5, r6, r7, pc}
1000e648:	1001396c 	.word	0x1001396c
1000e64c:	10010b37 	.word	0x10010b37
1000e650:	10010b49 	.word	0x10010b49

1000e654 <gapc_bond_req_ind>:
1000e654:	b570      	push	{r4, r5, r6, lr}
1000e656:	780c      	ldrb	r4, [r1, #0]
1000e658:	1c03      	adds	r3, r0, #0
1000e65a:	7849      	ldrb	r1, [r1, #1]
1000e65c:	2c07      	cmp	r4, #7
1000e65e:	d85c      	bhi.n	1000e71a <gapc_bond_req_ind+0xc6>
1000e660:	1c20      	adds	r0, r4, #0
1000e662:	f001 f98f 	bl	1000f984 <__gnu_thumb1_case_uqi>
1000e666:	5a04      	.short	0x5a04
1000e668:	5a0b5a5a 	.word	0x5a0b5a5a
1000e66c:	1f1f      	.short	0x1f1f
1000e66e:	200a      	movs	r0, #10
1000e670:	2a00      	cmp	r2, #0
1000e672:	d053      	beq.n	1000e71c <gapc_bond_req_ind+0xc8>
1000e674:	0a1b      	lsrs	r3, r3, #8
1000e676:	8013      	strh	r3, [r2, #0]
1000e678:	7091      	strb	r1, [r2, #2]
1000e67a:	e04f      	b.n	1000e71c <gapc_bond_req_ind+0xc8>
1000e67c:	2a00      	cmp	r2, #0
1000e67e:	d00b      	beq.n	1000e698 <gapc_bond_req_ind+0x44>
1000e680:	0a1b      	lsrs	r3, r3, #8
1000e682:	8013      	strh	r3, [r2, #0]
1000e684:	2900      	cmp	r1, #0
1000e686:	d102      	bne.n	1000e68e <gapc_bond_req_ind+0x3a>
1000e688:	2301      	movs	r3, #1
1000e68a:	7093      	strb	r3, [r2, #2]
1000e68c:	e004      	b.n	1000e698 <gapc_bond_req_ind+0x44>
1000e68e:	2300      	movs	r3, #0
1000e690:	7093      	strb	r3, [r2, #2]
1000e692:	2902      	cmp	r1, #2
1000e694:	d102      	bne.n	1000e69c <gapc_bond_req_ind+0x48>
1000e696:	70d3      	strb	r3, [r2, #3]
1000e698:	200c      	movs	r0, #12
1000e69a:	e03f      	b.n	1000e71c <gapc_bond_req_ind+0xc8>
1000e69c:	2901      	cmp	r1, #1
1000e69e:	d1fb      	bne.n	1000e698 <gapc_bond_req_ind+0x44>
1000e6a0:	70d1      	strb	r1, [r2, #3]
1000e6a2:	e7f9      	b.n	1000e698 <gapc_bond_req_ind+0x44>
1000e6a4:	2214      	movs	r2, #20
1000e6a6:	481e      	ldr	r0, [pc, #120]	; (1000e720 <gapc_bond_req_ind+0xcc>)
1000e6a8:	0a1b      	lsrs	r3, r3, #8
1000e6aa:	70c3      	strb	r3, [r0, #3]
1000e6ac:	4b1d      	ldr	r3, [pc, #116]	; (1000e724 <gapc_bond_req_ind+0xd0>)
1000e6ae:	7002      	strb	r2, [r0, #0]
1000e6b0:	3a06      	subs	r2, #6
1000e6b2:	7042      	strb	r2, [r0, #1]
1000e6b4:	7082      	strb	r2, [r0, #2]
1000e6b6:	881a      	ldrh	r2, [r3, #0]
1000e6b8:	881b      	ldrh	r3, [r3, #0]
1000e6ba:	4e1b      	ldr	r6, [pc, #108]	; (1000e728 <gapc_bond_req_ind+0xd4>)
1000e6bc:	0a1b      	lsrs	r3, r3, #8
1000e6be:	7143      	strb	r3, [r0, #5]
1000e6c0:	2301      	movs	r3, #1
1000e6c2:	7102      	strb	r2, [r0, #4]
1000e6c4:	7204      	strb	r4, [r0, #8]
1000e6c6:	7243      	strb	r3, [r0, #9]
1000e6c8:	1c05      	adds	r5, r0, #0
1000e6ca:	1c31      	adds	r1, r6, #0
1000e6cc:	300a      	adds	r0, #10
1000e6ce:	2c07      	cmp	r4, #7
1000e6d0:	d116      	bne.n	1000e700 <gapc_bond_req_ind+0xac>
1000e6d2:	317e      	adds	r1, #126	; 0x7e
1000e6d4:	2210      	movs	r2, #16
1000e6d6:	4c15      	ldr	r4, [pc, #84]	; (1000e72c <gapc_bond_req_ind+0xd8>)
1000e6d8:	47a0      	blx	r4
1000e6da:	1c33      	adds	r3, r6, #0
1000e6dc:	1c31      	adds	r1, r6, #0
1000e6de:	1c28      	adds	r0, r5, #0
1000e6e0:	338e      	adds	r3, #142	; 0x8e
1000e6e2:	881b      	ldrh	r3, [r3, #0]
1000e6e4:	3190      	adds	r1, #144	; 0x90
1000e6e6:	76ab      	strb	r3, [r5, #26]
1000e6e8:	2208      	movs	r2, #8
1000e6ea:	0a1b      	lsrs	r3, r3, #8
1000e6ec:	301c      	adds	r0, #28
1000e6ee:	76eb      	strb	r3, [r5, #27]
1000e6f0:	47a0      	blx	r4
1000e6f2:	1c31      	adds	r1, r6, #0
1000e6f4:	3198      	adds	r1, #152	; 0x98
1000e6f6:	780a      	ldrb	r2, [r1, #0]
1000e6f8:	1d6b      	adds	r3, r5, #5
1000e6fa:	77da      	strb	r2, [r3, #31]
1000e6fc:	2125      	movs	r1, #37	; 0x25
1000e6fe:	e004      	b.n	1000e70a <gapc_bond_req_ind+0xb6>
1000e700:	319a      	adds	r1, #154	; 0x9a
1000e702:	2210      	movs	r2, #16
1000e704:	4b09      	ldr	r3, [pc, #36]	; (1000e72c <gapc_bond_req_ind+0xd8>)
1000e706:	4798      	blx	r3
1000e708:	211a      	movs	r1, #26
1000e70a:	1c0b      	adds	r3, r1, #0
1000e70c:	2400      	movs	r4, #0
1000e70e:	3b08      	subs	r3, #8
1000e710:	71ab      	strb	r3, [r5, #6]
1000e712:	1c28      	adds	r0, r5, #0
1000e714:	4b06      	ldr	r3, [pc, #24]	; (1000e730 <gapc_bond_req_ind+0xdc>)
1000e716:	71ec      	strb	r4, [r5, #7]
1000e718:	4798      	blx	r3
1000e71a:	2000      	movs	r0, #0
1000e71c:	bd70      	pop	{r4, r5, r6, pc}
1000e71e:	46c0      	nop			; (mov r8, r8)
1000e720:	10014ad0 	.word	0x10014ad0
1000e724:	10014760 	.word	0x10014760
1000e728:	100147f2 	.word	0x100147f2
1000e72c:	10010b37 	.word	0x10010b37
1000e730:	1000dff5 	.word	0x1000dff5

1000e734 <gapc_bond_cfm_handler_pair_resp>:
1000e734:	b5f0      	push	{r4, r5, r6, r7, lr}
1000e736:	b085      	sub	sp, #20
1000e738:	1c07      	adds	r7, r0, #0
1000e73a:	a80a      	add	r0, sp, #40	; 0x28
1000e73c:	7806      	ldrb	r6, [r0, #0]
1000e73e:	a80b      	add	r0, sp, #44	; 0x2c
1000e740:	7805      	ldrb	r5, [r0, #0]
1000e742:	a80c      	add	r0, sp, #48	; 0x30
1000e744:	7800      	ldrb	r0, [r0, #0]
1000e746:	2414      	movs	r4, #20
1000e748:	9002      	str	r0, [sp, #8]
1000e74a:	a80d      	add	r0, sp, #52	; 0x34
1000e74c:	7800      	ldrb	r0, [r0, #0]
1000e74e:	9301      	str	r3, [sp, #4]
1000e750:	9003      	str	r0, [sp, #12]
1000e752:	a80e      	add	r0, sp, #56	; 0x38
1000e754:	8800      	ldrh	r0, [r0, #0]
1000e756:	4684      	mov	ip, r0
1000e758:	4812      	ldr	r0, [pc, #72]	; (1000e7a4 <gapc_bond_cfm_handler_pair_resp+0x70>)
1000e75a:	7004      	strb	r4, [r0, #0]
1000e75c:	3c06      	subs	r4, #6
1000e75e:	7044      	strb	r4, [r0, #1]
1000e760:	7084      	strb	r4, [r0, #2]
1000e762:	4664      	mov	r4, ip
1000e764:	70c4      	strb	r4, [r0, #3]
1000e766:	4c10      	ldr	r4, [pc, #64]	; (1000e7a8 <gapc_bond_cfm_handler_pair_resp+0x74>)
1000e768:	7247      	strb	r7, [r0, #9]
1000e76a:	8823      	ldrh	r3, [r4, #0]
1000e76c:	8824      	ldrh	r4, [r4, #0]
1000e76e:	7103      	strb	r3, [r0, #4]
1000e770:	466b      	mov	r3, sp
1000e772:	791b      	ldrb	r3, [r3, #4]
1000e774:	0a24      	lsrs	r4, r4, #8
1000e776:	7303      	strb	r3, [r0, #12]
1000e778:	466b      	mov	r3, sp
1000e77a:	7a1b      	ldrb	r3, [r3, #8]
1000e77c:	7144      	strb	r4, [r0, #5]
1000e77e:	73c3      	strb	r3, [r0, #15]
1000e780:	466b      	mov	r3, sp
1000e782:	7b1b      	ldrb	r3, [r3, #12]
1000e784:	2401      	movs	r4, #1
1000e786:	7403      	strb	r3, [r0, #16]
1000e788:	2309      	movs	r3, #9
1000e78a:	7183      	strb	r3, [r0, #6]
1000e78c:	2300      	movs	r3, #0
1000e78e:	7204      	strb	r4, [r0, #8]
1000e790:	7281      	strb	r1, [r0, #10]
1000e792:	72c2      	strb	r2, [r0, #11]
1000e794:	7346      	strb	r6, [r0, #13]
1000e796:	7385      	strb	r5, [r0, #14]
1000e798:	71c3      	strb	r3, [r0, #7]
1000e79a:	2111      	movs	r1, #17
1000e79c:	4b03      	ldr	r3, [pc, #12]	; (1000e7ac <gapc_bond_cfm_handler_pair_resp+0x78>)
1000e79e:	4798      	blx	r3
1000e7a0:	b005      	add	sp, #20
1000e7a2:	bdf0      	pop	{r4, r5, r6, r7, pc}
1000e7a4:	10014ad0 	.word	0x10014ad0
1000e7a8:	10014760 	.word	0x10014760
1000e7ac:	1000dff5 	.word	0x1000dff5

1000e7b0 <gapc_bond_cfm_handler_key_exch>:
1000e7b0:	b538      	push	{r3, r4, r5, lr}
1000e7b2:	2514      	movs	r5, #20
1000e7b4:	4c0d      	ldr	r4, [pc, #52]	; (1000e7ec <gapc_bond_cfm_handler_key_exch+0x3c>)
1000e7b6:	70e3      	strb	r3, [r4, #3]
1000e7b8:	4b0d      	ldr	r3, [pc, #52]	; (1000e7f0 <gapc_bond_cfm_handler_key_exch+0x40>)
1000e7ba:	7025      	strb	r5, [r4, #0]
1000e7bc:	3d06      	subs	r5, #6
1000e7be:	7065      	strb	r5, [r4, #1]
1000e7c0:	70a5      	strb	r5, [r4, #2]
1000e7c2:	881d      	ldrh	r5, [r3, #0]
1000e7c4:	881b      	ldrh	r3, [r3, #0]
1000e7c6:	7220      	strb	r0, [r4, #8]
1000e7c8:	0a1b      	lsrs	r3, r3, #8
1000e7ca:	7163      	strb	r3, [r4, #5]
1000e7cc:	7261      	strb	r1, [r4, #9]
1000e7ce:	4b09      	ldr	r3, [pc, #36]	; (1000e7f4 <gapc_bond_cfm_handler_key_exch+0x44>)
1000e7d0:	1c11      	adds	r1, r2, #0
1000e7d2:	4809      	ldr	r0, [pc, #36]	; (1000e7f8 <gapc_bond_cfm_handler_key_exch+0x48>)
1000e7d4:	2210      	movs	r2, #16
1000e7d6:	7125      	strb	r5, [r4, #4]
1000e7d8:	4798      	blx	r3
1000e7da:	2312      	movs	r3, #18
1000e7dc:	71a3      	strb	r3, [r4, #6]
1000e7de:	2300      	movs	r3, #0
1000e7e0:	1c20      	adds	r0, r4, #0
1000e7e2:	71e3      	strb	r3, [r4, #7]
1000e7e4:	211a      	movs	r1, #26
1000e7e6:	4b05      	ldr	r3, [pc, #20]	; (1000e7fc <gapc_bond_cfm_handler_key_exch+0x4c>)
1000e7e8:	4798      	blx	r3
1000e7ea:	bd38      	pop	{r3, r4, r5, pc}
1000e7ec:	10014ad0 	.word	0x10014ad0
1000e7f0:	10014760 	.word	0x10014760
1000e7f4:	10010b37 	.word	0x10010b37
1000e7f8:	10014ada 	.word	0x10014ada
1000e7fc:	1000dff5 	.word	0x1000dff5

1000e800 <gapc_security_cmd_handler>:
1000e800:	221a      	movs	r2, #26
1000e802:	b508      	push	{r3, lr}
1000e804:	4b0b      	ldr	r3, [pc, #44]	; (1000e834 <gapc_security_cmd_handler+0x34>)
1000e806:	701a      	strb	r2, [r3, #0]
1000e808:	3a0c      	subs	r2, #12
1000e80a:	705a      	strb	r2, [r3, #1]
1000e80c:	709a      	strb	r2, [r3, #2]
1000e80e:	4a0a      	ldr	r2, [pc, #40]	; (1000e838 <gapc_security_cmd_handler+0x38>)
1000e810:	70d8      	strb	r0, [r3, #3]
1000e812:	8810      	ldrh	r0, [r2, #0]
1000e814:	8812      	ldrh	r2, [r2, #0]
1000e816:	7118      	strb	r0, [r3, #4]
1000e818:	0a12      	lsrs	r2, r2, #8
1000e81a:	715a      	strb	r2, [r3, #5]
1000e81c:	220c      	movs	r2, #12
1000e81e:	721a      	strb	r2, [r3, #8]
1000e820:	3a0a      	subs	r2, #10
1000e822:	719a      	strb	r2, [r3, #6]
1000e824:	2200      	movs	r2, #0
1000e826:	7259      	strb	r1, [r3, #9]
1000e828:	71da      	strb	r2, [r3, #7]
1000e82a:	1c18      	adds	r0, r3, #0
1000e82c:	210a      	movs	r1, #10
1000e82e:	4b03      	ldr	r3, [pc, #12]	; (1000e83c <gapc_security_cmd_handler+0x3c>)
1000e830:	4798      	blx	r3
1000e832:	bd08      	pop	{r3, pc}
1000e834:	10014ad0 	.word	0x10014ad0
1000e838:	10014760 	.word	0x10014760
1000e83c:	1000dff5 	.word	0x1000dff5

1000e840 <gapc_encrypt_cmd_handler>:
1000e840:	b5f0      	push	{r4, r5, r6, r7, lr}
1000e842:	2500      	movs	r5, #0
1000e844:	b089      	sub	sp, #36	; 0x24
1000e846:	9306      	str	r3, [sp, #24]
1000e848:	ab0e      	add	r3, sp, #56	; 0x38
1000e84a:	781b      	ldrb	r3, [r3, #0]
1000e84c:	1c17      	adds	r7, r2, #0
1000e84e:	9307      	str	r3, [sp, #28]
1000e850:	ab0f      	add	r3, sp, #60	; 0x3c
1000e852:	781b      	ldrb	r3, [r3, #0]
1000e854:	4a19      	ldr	r2, [pc, #100]	; (1000e8bc <gapc_encrypt_cmd_handler+0x7c>)
1000e856:	1c06      	adds	r6, r0, #0
1000e858:	9105      	str	r1, [sp, #20]
1000e85a:	9300      	str	r3, [sp, #0]
1000e85c:	9002      	str	r0, [sp, #8]
1000e85e:	1c29      	adds	r1, r5, #0
1000e860:	1c2b      	adds	r3, r5, #0
1000e862:	9501      	str	r5, [sp, #4]
1000e864:	1c10      	adds	r0, r2, #0
1000e866:	4c16      	ldr	r4, [pc, #88]	; (1000e8c0 <gapc_encrypt_cmd_handler+0x80>)
1000e868:	47a0      	blx	r4
1000e86a:	2316      	movs	r3, #22
1000e86c:	4c15      	ldr	r4, [pc, #84]	; (1000e8c4 <gapc_encrypt_cmd_handler+0x84>)
1000e86e:	9905      	ldr	r1, [sp, #20]
1000e870:	7023      	strb	r3, [r4, #0]
1000e872:	3b08      	subs	r3, #8
1000e874:	7063      	strb	r3, [r4, #1]
1000e876:	70a3      	strb	r3, [r4, #2]
1000e878:	4b13      	ldr	r3, [pc, #76]	; (1000e8c8 <gapc_encrypt_cmd_handler+0x88>)
1000e87a:	70e6      	strb	r6, [r4, #3]
1000e87c:	881a      	ldrh	r2, [r3, #0]
1000e87e:	881b      	ldrh	r3, [r3, #0]
1000e880:	7122      	strb	r2, [r4, #4]
1000e882:	0a1b      	lsrs	r3, r3, #8
1000e884:	7163      	strb	r3, [r4, #5]
1000e886:	230b      	movs	r3, #11
1000e888:	4e10      	ldr	r6, [pc, #64]	; (1000e8cc <gapc_encrypt_cmd_handler+0x8c>)
1000e88a:	2210      	movs	r2, #16
1000e88c:	4810      	ldr	r0, [pc, #64]	; (1000e8d0 <gapc_encrypt_cmd_handler+0x90>)
1000e88e:	7223      	strb	r3, [r4, #8]
1000e890:	7265      	strb	r5, [r4, #9]
1000e892:	47b0      	blx	r6
1000e894:	0a3b      	lsrs	r3, r7, #8
1000e896:	9906      	ldr	r1, [sp, #24]
1000e898:	2208      	movs	r2, #8
1000e89a:	480e      	ldr	r0, [pc, #56]	; (1000e8d4 <gapc_encrypt_cmd_handler+0x94>)
1000e89c:	76e3      	strb	r3, [r4, #27]
1000e89e:	76a7      	strb	r7, [r4, #26]
1000e8a0:	47b0      	blx	r6
1000e8a2:	466a      	mov	r2, sp
1000e8a4:	7f12      	ldrb	r2, [r2, #28]
1000e8a6:	1d63      	adds	r3, r4, #5
1000e8a8:	77da      	strb	r2, [r3, #31]
1000e8aa:	231d      	movs	r3, #29
1000e8ac:	1c20      	adds	r0, r4, #0
1000e8ae:	71a3      	strb	r3, [r4, #6]
1000e8b0:	2125      	movs	r1, #37	; 0x25
1000e8b2:	4b09      	ldr	r3, [pc, #36]	; (1000e8d8 <gapc_encrypt_cmd_handler+0x98>)
1000e8b4:	71e5      	strb	r5, [r4, #7]
1000e8b6:	4798      	blx	r3
1000e8b8:	b009      	add	sp, #36	; 0x24
1000e8ba:	bdf0      	pop	{r4, r5, r6, r7, pc}
1000e8bc:	1001394c 	.word	0x1001394c
1000e8c0:	1000e2f9 	.word	0x1000e2f9
1000e8c4:	10014ad0 	.word	0x10014ad0
1000e8c8:	10014760 	.word	0x10014760
1000e8cc:	10010b37 	.word	0x10010b37
1000e8d0:	10014ada 	.word	0x10014ada
1000e8d4:	10014aec 	.word	0x10014aec
1000e8d8:	1000dff5 	.word	0x1000dff5

1000e8dc <gapc_encrypt_req_ind>:
1000e8dc:	b508      	push	{r3, lr}
1000e8de:	0a00      	lsrs	r0, r0, #8
1000e8e0:	8010      	strh	r0, [r2, #0]
1000e8e2:	784b      	ldrb	r3, [r1, #1]
1000e8e4:	7808      	ldrb	r0, [r1, #0]
1000e8e6:	021b      	lsls	r3, r3, #8
1000e8e8:	4303      	orrs	r3, r0
1000e8ea:	8053      	strh	r3, [r2, #2]
1000e8ec:	1d10      	adds	r0, r2, #4
1000e8ee:	3102      	adds	r1, #2
1000e8f0:	2208      	movs	r2, #8
1000e8f2:	4b01      	ldr	r3, [pc, #4]	; (1000e8f8 <gapc_encrypt_req_ind+0x1c>)
1000e8f4:	4798      	blx	r3
1000e8f6:	bd08      	pop	{r3, pc}
1000e8f8:	10010b37 	.word	0x10010b37

1000e8fc <gapc_encrypt_cfm_handler>:
1000e8fc:	b5f0      	push	{r4, r5, r6, r7, lr}
1000e8fe:	2500      	movs	r5, #0
1000e900:	b087      	sub	sp, #28
1000e902:	9304      	str	r3, [sp, #16]
1000e904:	ab0c      	add	r3, sp, #48	; 0x30
1000e906:	781b      	ldrb	r3, [r3, #0]
1000e908:	1c17      	adds	r7, r2, #0
1000e90a:	4a15      	ldr	r2, [pc, #84]	; (1000e960 <gapc_encrypt_cfm_handler+0x64>)
1000e90c:	1c06      	adds	r6, r0, #0
1000e90e:	9305      	str	r3, [sp, #20]
1000e910:	9100      	str	r1, [sp, #0]
1000e912:	9002      	str	r0, [sp, #8]
1000e914:	1c29      	adds	r1, r5, #0
1000e916:	1c2b      	adds	r3, r5, #0
1000e918:	9501      	str	r5, [sp, #4]
1000e91a:	1c10      	adds	r0, r2, #0
1000e91c:	4c11      	ldr	r4, [pc, #68]	; (1000e964 <gapc_encrypt_cfm_handler+0x68>)
1000e91e:	47a0      	blx	r4
1000e920:	2318      	movs	r3, #24
1000e922:	4c11      	ldr	r4, [pc, #68]	; (1000e968 <gapc_encrypt_cfm_handler+0x6c>)
1000e924:	9904      	ldr	r1, [sp, #16]
1000e926:	7023      	strb	r3, [r4, #0]
1000e928:	3b0a      	subs	r3, #10
1000e92a:	7063      	strb	r3, [r4, #1]
1000e92c:	70a3      	strb	r3, [r4, #2]
1000e92e:	4b0f      	ldr	r3, [pc, #60]	; (1000e96c <gapc_encrypt_cfm_handler+0x70>)
1000e930:	480f      	ldr	r0, [pc, #60]	; (1000e970 <gapc_encrypt_cfm_handler+0x74>)
1000e932:	881a      	ldrh	r2, [r3, #0]
1000e934:	881b      	ldrh	r3, [r3, #0]
1000e936:	7122      	strb	r2, [r4, #4]
1000e938:	0a1b      	lsrs	r3, r3, #8
1000e93a:	7163      	strb	r3, [r4, #5]
1000e93c:	2210      	movs	r2, #16
1000e93e:	4b0d      	ldr	r3, [pc, #52]	; (1000e974 <gapc_encrypt_cfm_handler+0x78>)
1000e940:	70e6      	strb	r6, [r4, #3]
1000e942:	7227      	strb	r7, [r4, #8]
1000e944:	4798      	blx	r3
1000e946:	466b      	mov	r3, sp
1000e948:	7d1b      	ldrb	r3, [r3, #20]
1000e94a:	1c20      	adds	r0, r4, #0
1000e94c:	7663      	strb	r3, [r4, #25]
1000e94e:	2312      	movs	r3, #18
1000e950:	211a      	movs	r1, #26
1000e952:	71a3      	strb	r3, [r4, #6]
1000e954:	4b08      	ldr	r3, [pc, #32]	; (1000e978 <gapc_encrypt_cfm_handler+0x7c>)
1000e956:	71e5      	strb	r5, [r4, #7]
1000e958:	4798      	blx	r3
1000e95a:	b007      	add	sp, #28
1000e95c:	bdf0      	pop	{r4, r5, r6, r7, pc}
1000e95e:	46c0      	nop			; (mov r8, r8)
1000e960:	1001395c 	.word	0x1001395c
1000e964:	1000e2f9 	.word	0x1000e2f9
1000e968:	10014ad0 	.word	0x10014ad0
1000e96c:	10014760 	.word	0x10014760
1000e970:	10014ad9 	.word	0x10014ad9
1000e974:	10010b37 	.word	0x10010b37
1000e978:	1000dff5 	.word	0x1000dff5

1000e97c <gapc_encrypt_ind>:
1000e97c:	780b      	ldrb	r3, [r1, #0]
1000e97e:	0a00      	lsrs	r0, r0, #8
1000e980:	70d3      	strb	r3, [r2, #3]
1000e982:	2300      	movs	r3, #0
1000e984:	8010      	strh	r0, [r2, #0]
1000e986:	7093      	strb	r3, [r2, #2]
1000e988:	4770      	bx	lr
	...

1000e98c <gapc_param_update_cfm_handler>:
1000e98c:	b538      	push	{r3, r4, r5, lr}
1000e98e:	2410      	movs	r4, #16
1000e990:	1c05      	adds	r5, r0, #0
1000e992:	480e      	ldr	r0, [pc, #56]	; (1000e9cc <gapc_param_update_cfm_handler+0x40>)
1000e994:	7004      	strb	r4, [r0, #0]
1000e996:	3c02      	subs	r4, #2
1000e998:	7044      	strb	r4, [r0, #1]
1000e99a:	7084      	strb	r4, [r0, #2]
1000e99c:	4c0c      	ldr	r4, [pc, #48]	; (1000e9d0 <gapc_param_update_cfm_handler+0x44>)
1000e99e:	70c5      	strb	r5, [r0, #3]
1000e9a0:	8825      	ldrh	r5, [r4, #0]
1000e9a2:	8824      	ldrh	r4, [r4, #0]
1000e9a4:	72c3      	strb	r3, [r0, #11]
1000e9a6:	0a1b      	lsrs	r3, r3, #8
1000e9a8:	0a24      	lsrs	r4, r4, #8
1000e9aa:	7303      	strb	r3, [r0, #12]
1000e9ac:	2305      	movs	r3, #5
1000e9ae:	7144      	strb	r4, [r0, #5]
1000e9b0:	2400      	movs	r4, #0
1000e9b2:	7201      	strb	r1, [r0, #8]
1000e9b4:	7242      	strb	r2, [r0, #9]
1000e9b6:	7183      	strb	r3, [r0, #6]
1000e9b8:	0a12      	lsrs	r2, r2, #8
1000e9ba:	210d      	movs	r1, #13
1000e9bc:	4b05      	ldr	r3, [pc, #20]	; (1000e9d4 <gapc_param_update_cfm_handler+0x48>)
1000e9be:	7105      	strb	r5, [r0, #4]
1000e9c0:	7282      	strb	r2, [r0, #10]
1000e9c2:	71c4      	strb	r4, [r0, #7]
1000e9c4:	4798      	blx	r3
1000e9c6:	1c20      	adds	r0, r4, #0
1000e9c8:	bd38      	pop	{r3, r4, r5, pc}
1000e9ca:	46c0      	nop			; (mov r8, r8)
1000e9cc:	10014ad0 	.word	0x10014ad0
1000e9d0:	10014760 	.word	0x10014760
1000e9d4:	1000dff5 	.word	0x1000dff5

1000e9d8 <gapc_param_updated_ind>:
1000e9d8:	2300      	movs	r3, #0
1000e9da:	0a00      	lsrs	r0, r0, #8
1000e9dc:	8010      	strh	r0, [r2, #0]
1000e9de:	7093      	strb	r3, [r2, #2]
1000e9e0:	784b      	ldrb	r3, [r1, #1]
1000e9e2:	7808      	ldrb	r0, [r1, #0]
1000e9e4:	021b      	lsls	r3, r3, #8
1000e9e6:	4303      	orrs	r3, r0
1000e9e8:	8093      	strh	r3, [r2, #4]
1000e9ea:	78cb      	ldrb	r3, [r1, #3]
1000e9ec:	7888      	ldrb	r0, [r1, #2]
1000e9ee:	021b      	lsls	r3, r3, #8
1000e9f0:	4303      	orrs	r3, r0
1000e9f2:	80d3      	strh	r3, [r2, #6]
1000e9f4:	794b      	ldrb	r3, [r1, #5]
1000e9f6:	7909      	ldrb	r1, [r1, #4]
1000e9f8:	021b      	lsls	r3, r3, #8
1000e9fa:	430b      	orrs	r3, r1
1000e9fc:	2007      	movs	r0, #7
1000e9fe:	8113      	strh	r3, [r2, #8]
1000ea00:	4770      	bx	lr

1000ea02 <gapc_param_updated_req_ind>:
1000ea02:	0a00      	lsrs	r0, r0, #8
1000ea04:	8010      	strh	r0, [r2, #0]
1000ea06:	784b      	ldrb	r3, [r1, #1]
1000ea08:	7808      	ldrb	r0, [r1, #0]
1000ea0a:	021b      	lsls	r3, r3, #8
1000ea0c:	4303      	orrs	r3, r0
1000ea0e:	8053      	strh	r3, [r2, #2]
1000ea10:	78cb      	ldrb	r3, [r1, #3]
1000ea12:	7888      	ldrb	r0, [r1, #2]
1000ea14:	021b      	lsls	r3, r3, #8
1000ea16:	4303      	orrs	r3, r0
1000ea18:	8093      	strh	r3, [r2, #4]
1000ea1a:	794b      	ldrb	r3, [r1, #5]
1000ea1c:	7908      	ldrb	r0, [r1, #4]
1000ea1e:	021b      	lsls	r3, r3, #8
1000ea20:	4303      	orrs	r3, r0
1000ea22:	80d3      	strh	r3, [r2, #6]
1000ea24:	79cb      	ldrb	r3, [r1, #7]
1000ea26:	7989      	ldrb	r1, [r1, #6]
1000ea28:	021b      	lsls	r3, r3, #8
1000ea2a:	430b      	orrs	r3, r1
1000ea2c:	2008      	movs	r0, #8
1000ea2e:	8113      	strh	r3, [r2, #8]
1000ea30:	4770      	bx	lr
	...

1000ea34 <gapc_dev_info_req_ind_handler>:
1000ea34:	b508      	push	{r3, lr}
1000ea36:	1c0b      	adds	r3, r1, #0
1000ea38:	0a01      	lsrs	r1, r0, #8
1000ea3a:	8011      	strh	r1, [r2, #0]
1000ea3c:	7818      	ldrb	r0, [r3, #0]
1000ea3e:	7090      	strb	r0, [r2, #2]
1000ea40:	2800      	cmp	r0, #0
1000ea42:	d104      	bne.n	1000ea4e <gapc_dev_info_req_ind_handler+0x1a>
1000ea44:	4b03      	ldr	r3, [pc, #12]	; (1000ea54 <gapc_dev_info_req_ind_handler+0x20>)
1000ea46:	33aa      	adds	r3, #170	; 0xaa
1000ea48:	881b      	ldrh	r3, [r3, #0]
1000ea4a:	2b00      	cmp	r3, #0
1000ea4c:	d001      	beq.n	1000ea52 <gapc_dev_info_req_ind_handler+0x1e>
1000ea4e:	4b02      	ldr	r3, [pc, #8]	; (1000ea58 <gapc_dev_info_req_ind_handler+0x24>)
1000ea50:	4798      	blx	r3
1000ea52:	bd08      	pop	{r3, pc}
1000ea54:	100147f2 	.word	0x100147f2
1000ea58:	1000e105 	.word	0x1000e105

1000ea5c <gapc_sec_req_ind>:
1000ea5c:	0a00      	lsrs	r0, r0, #8
1000ea5e:	8010      	strh	r0, [r2, #0]
1000ea60:	7809      	ldrb	r1, [r1, #0]
1000ea62:	2301      	movs	r3, #1
1000ea64:	1c08      	adds	r0, r1, #0
1000ea66:	0889      	lsrs	r1, r1, #2
1000ea68:	4018      	ands	r0, r3
1000ea6a:	400b      	ands	r3, r1
1000ea6c:	70d0      	strb	r0, [r2, #3]
1000ea6e:	7113      	strb	r3, [r2, #4]
1000ea70:	4770      	bx	lr

1000ea72 <gapc_sign_counter_ind_handler>:
1000ea72:	0a00      	lsrs	r0, r0, #8
1000ea74:	8010      	strh	r0, [r2, #0]
1000ea76:	784b      	ldrb	r3, [r1, #1]
1000ea78:	0218      	lsls	r0, r3, #8
1000ea7a:	788b      	ldrb	r3, [r1, #2]
1000ea7c:	041b      	lsls	r3, r3, #16
1000ea7e:	4303      	orrs	r3, r0
1000ea80:	7808      	ldrb	r0, [r1, #0]
1000ea82:	4303      	orrs	r3, r0
1000ea84:	78c8      	ldrb	r0, [r1, #3]
1000ea86:	0600      	lsls	r0, r0, #24
1000ea88:	4303      	orrs	r3, r0
1000ea8a:	6053      	str	r3, [r2, #4]
1000ea8c:	794b      	ldrb	r3, [r1, #5]
1000ea8e:	0218      	lsls	r0, r3, #8
1000ea90:	798b      	ldrb	r3, [r1, #6]
1000ea92:	041b      	lsls	r3, r3, #16
1000ea94:	4303      	orrs	r3, r0
1000ea96:	7908      	ldrb	r0, [r1, #4]
1000ea98:	79c9      	ldrb	r1, [r1, #7]
1000ea9a:	4303      	orrs	r3, r0
1000ea9c:	0609      	lsls	r1, r1, #24
1000ea9e:	430b      	orrs	r3, r1
1000eaa0:	2000      	movs	r0, #0
1000eaa2:	6093      	str	r3, [r2, #8]
1000eaa4:	4770      	bx	lr
	...

1000eaa8 <gapc_peer_att_info_ind_handler>:
1000eaa8:	b510      	push	{r4, lr}
1000eaaa:	0a00      	lsrs	r0, r0, #8
1000eaac:	8010      	strh	r0, [r2, #0]
1000eaae:	7808      	ldrb	r0, [r1, #0]
1000eab0:	7090      	strb	r0, [r2, #2]
1000eab2:	788b      	ldrb	r3, [r1, #2]
1000eab4:	784c      	ldrb	r4, [r1, #1]
1000eab6:	021b      	lsls	r3, r3, #8
1000eab8:	4323      	orrs	r3, r4
1000eaba:	8093      	strh	r3, [r2, #4]
1000eabc:	2801      	cmp	r0, #1
1000eabe:	d027      	beq.n	1000eb10 <gapc_peer_att_info_ind_handler+0x68>
1000eac0:	2800      	cmp	r0, #0
1000eac2:	d017      	beq.n	1000eaf4 <gapc_peer_att_info_ind_handler+0x4c>
1000eac4:	2802      	cmp	r0, #2
1000eac6:	d12a      	bne.n	1000eb1e <gapc_peer_att_info_ind_handler+0x76>
1000eac8:	790b      	ldrb	r3, [r1, #4]
1000eaca:	78c8      	ldrb	r0, [r1, #3]
1000eacc:	021b      	lsls	r3, r3, #8
1000eace:	4303      	orrs	r3, r0
1000ead0:	8113      	strh	r3, [r2, #8]
1000ead2:	798b      	ldrb	r3, [r1, #6]
1000ead4:	7948      	ldrb	r0, [r1, #5]
1000ead6:	021b      	lsls	r3, r3, #8
1000ead8:	4303      	orrs	r3, r0
1000eada:	80d3      	strh	r3, [r2, #6]
1000eadc:	7a0b      	ldrb	r3, [r1, #8]
1000eade:	79c8      	ldrb	r0, [r1, #7]
1000eae0:	021b      	lsls	r3, r3, #8
1000eae2:	4303      	orrs	r3, r0
1000eae4:	8193      	strh	r3, [r2, #12]
1000eae6:	7a8b      	ldrb	r3, [r1, #10]
1000eae8:	7a49      	ldrb	r1, [r1, #9]
1000eaea:	021b      	lsls	r3, r3, #8
1000eaec:	430b      	orrs	r3, r1
1000eaee:	8153      	strh	r3, [r2, #10]
1000eaf0:	2306      	movs	r3, #6
1000eaf2:	e013      	b.n	1000eb1c <gapc_peer_att_info_ind_handler+0x74>
1000eaf4:	1c14      	adds	r4, r2, #0
1000eaf6:	1c20      	adds	r0, r4, #0
1000eaf8:	790a      	ldrb	r2, [r1, #4]
1000eafa:	78cb      	ldrb	r3, [r1, #3]
1000eafc:	0212      	lsls	r2, r2, #8
1000eafe:	431a      	orrs	r2, r3
1000eb00:	80e2      	strh	r2, [r4, #6]
1000eb02:	4b07      	ldr	r3, [pc, #28]	; (1000eb20 <gapc_peer_att_info_ind_handler+0x78>)
1000eb04:	3008      	adds	r0, #8
1000eb06:	3105      	adds	r1, #5
1000eb08:	4798      	blx	r3
1000eb0a:	2302      	movs	r3, #2
1000eb0c:	70a3      	strb	r3, [r4, #2]
1000eb0e:	e006      	b.n	1000eb1e <gapc_peer_att_info_ind_handler+0x76>
1000eb10:	790b      	ldrb	r3, [r1, #4]
1000eb12:	78c9      	ldrb	r1, [r1, #3]
1000eb14:	021b      	lsls	r3, r3, #8
1000eb16:	430b      	orrs	r3, r1
1000eb18:	80d3      	strh	r3, [r2, #6]
1000eb1a:	2305      	movs	r3, #5
1000eb1c:	7093      	strb	r3, [r2, #2]
1000eb1e:	bd10      	pop	{r4, pc}
1000eb20:	10010b37 	.word	0x10010b37

1000eb24 <gapc_con_channel_map_ind_handler>:
1000eb24:	b508      	push	{r3, lr}
1000eb26:	2300      	movs	r3, #0
1000eb28:	0a00      	lsrs	r0, r0, #8
1000eb2a:	7013      	strb	r3, [r2, #0]
1000eb2c:	8050      	strh	r0, [r2, #2]
1000eb2e:	4b02      	ldr	r3, [pc, #8]	; (1000eb38 <gapc_con_channel_map_ind_handler+0x14>)
1000eb30:	1d10      	adds	r0, r2, #4
1000eb32:	2205      	movs	r2, #5
1000eb34:	4798      	blx	r3
1000eb36:	bd08      	pop	{r3, pc}
1000eb38:	10010b37 	.word	0x10010b37

1000eb3c <gapc_lecb_connected>:
1000eb3c:	7843      	ldrb	r3, [r0, #1]
1000eb3e:	7802      	ldrb	r2, [r0, #0]
1000eb40:	021b      	lsls	r3, r3, #8
1000eb42:	4313      	orrs	r3, r2
1000eb44:	800b      	strh	r3, [r1, #0]
1000eb46:	78c3      	ldrb	r3, [r0, #3]
1000eb48:	7882      	ldrb	r2, [r0, #2]
1000eb4a:	021b      	lsls	r3, r3, #8
1000eb4c:	4313      	orrs	r3, r2
1000eb4e:	804b      	strh	r3, [r1, #2]
1000eb50:	7943      	ldrb	r3, [r0, #5]
1000eb52:	7902      	ldrb	r2, [r0, #4]
1000eb54:	021b      	lsls	r3, r3, #8
1000eb56:	4313      	orrs	r3, r2
1000eb58:	808b      	strh	r3, [r1, #4]
1000eb5a:	79c3      	ldrb	r3, [r0, #7]
1000eb5c:	7982      	ldrb	r2, [r0, #6]
1000eb5e:	021b      	lsls	r3, r3, #8
1000eb60:	4313      	orrs	r3, r2
1000eb62:	80cb      	strh	r3, [r1, #6]
1000eb64:	2300      	movs	r3, #0
1000eb66:	720b      	strb	r3, [r1, #8]
1000eb68:	4770      	bx	lr

1000eb6a <gapc_lecb_disconnected>:
1000eb6a:	7843      	ldrb	r3, [r0, #1]
1000eb6c:	7802      	ldrb	r2, [r0, #0]
1000eb6e:	021b      	lsls	r3, r3, #8
1000eb70:	4313      	orrs	r3, r2
1000eb72:	800b      	strh	r3, [r1, #0]
1000eb74:	78c3      	ldrb	r3, [r0, #3]
1000eb76:	7882      	ldrb	r2, [r0, #2]
1000eb78:	021b      	lsls	r3, r3, #8
1000eb7a:	4313      	orrs	r3, r2
1000eb7c:	804b      	strh	r3, [r1, #2]
1000eb7e:	4770      	bx	lr

1000eb80 <gapc_lecb_connect_req_ind>:
1000eb80:	7843      	ldrb	r3, [r0, #1]
1000eb82:	7802      	ldrb	r2, [r0, #0]
1000eb84:	021b      	lsls	r3, r3, #8
1000eb86:	4313      	orrs	r3, r2
1000eb88:	800b      	strh	r3, [r1, #0]
1000eb8a:	78c3      	ldrb	r3, [r0, #3]
1000eb8c:	7882      	ldrb	r2, [r0, #2]
1000eb8e:	021b      	lsls	r3, r3, #8
1000eb90:	4313      	orrs	r3, r2
1000eb92:	804b      	strh	r3, [r1, #2]
1000eb94:	7943      	ldrb	r3, [r0, #5]
1000eb96:	7902      	ldrb	r2, [r0, #4]
1000eb98:	021b      	lsls	r3, r3, #8
1000eb9a:	4313      	orrs	r3, r2
1000eb9c:	808b      	strh	r3, [r1, #4]
1000eb9e:	79c3      	ldrb	r3, [r0, #7]
1000eba0:	7982      	ldrb	r2, [r0, #6]
1000eba2:	021b      	lsls	r3, r3, #8
1000eba4:	4313      	orrs	r3, r2
1000eba6:	80cb      	strh	r3, [r1, #6]
1000eba8:	4770      	bx	lr

1000ebaa <gapc_lecb_add_credit_resp_handler>:
1000ebaa:	7843      	ldrb	r3, [r0, #1]
1000ebac:	7802      	ldrb	r2, [r0, #0]
1000ebae:	021b      	lsls	r3, r3, #8
1000ebb0:	4313      	orrs	r3, r2
1000ebb2:	800b      	strh	r3, [r1, #0]
1000ebb4:	78c3      	ldrb	r3, [r0, #3]
1000ebb6:	7882      	ldrb	r2, [r0, #2]
1000ebb8:	021b      	lsls	r3, r3, #8
1000ebba:	4313      	orrs	r3, r2
1000ebbc:	804b      	strh	r3, [r1, #2]
1000ebbe:	7943      	ldrb	r3, [r0, #5]
1000ebc0:	7902      	ldrb	r2, [r0, #4]
1000ebc2:	021b      	lsls	r3, r3, #8
1000ebc4:	4313      	orrs	r3, r2
1000ebc6:	808b      	strh	r3, [r1, #4]
1000ebc8:	4770      	bx	lr
	...

1000ebcc <gapm_reset_req_handler>:
1000ebcc:	b573      	push	{r0, r1, r4, r5, r6, lr}
1000ebce:	466b      	mov	r3, sp
1000ebd0:	4915      	ldr	r1, [pc, #84]	; (1000ec28 <gapm_reset_req_handler+0x5c>)
1000ebd2:	4816      	ldr	r0, [pc, #88]	; (1000ec2c <gapm_reset_req_handler+0x60>)
1000ebd4:	880c      	ldrh	r4, [r1, #0]
1000ebd6:	8809      	ldrh	r1, [r1, #0]
1000ebd8:	1ddd      	adds	r5, r3, #7
1000ebda:	0a09      	lsrs	r1, r1, #8
1000ebdc:	2300      	movs	r3, #0
1000ebde:	2202      	movs	r2, #2
1000ebe0:	7141      	strb	r1, [r0, #5]
1000ebe2:	26d0      	movs	r6, #208	; 0xd0
1000ebe4:	2101      	movs	r1, #1
1000ebe6:	7104      	strb	r4, [r0, #4]
1000ebe8:	4c11      	ldr	r4, [pc, #68]	; (1000ec30 <gapm_reset_req_handler+0x64>)
1000ebea:	702b      	strb	r3, [r5, #0]
1000ebec:	7002      	strb	r2, [r0, #0]
1000ebee:	70c3      	strb	r3, [r0, #3]
1000ebf0:	320b      	adds	r2, #11
1000ebf2:	7201      	strb	r1, [r0, #8]
1000ebf4:	7181      	strb	r1, [r0, #6]
1000ebf6:	71c3      	strb	r3, [r0, #7]
1000ebf8:	3108      	adds	r1, #8
1000ebfa:	4b0e      	ldr	r3, [pc, #56]	; (1000ec34 <gapm_reset_req_handler+0x68>)
1000ebfc:	0136      	lsls	r6, r6, #4
1000ebfe:	7042      	strb	r2, [r0, #1]
1000ec00:	7082      	strb	r2, [r0, #2]
1000ec02:	80a2      	strh	r2, [r4, #4]
1000ec04:	8026      	strh	r6, [r4, #0]
1000ec06:	4798      	blx	r3
1000ec08:	1c28      	adds	r0, r5, #0
1000ec0a:	4b0b      	ldr	r3, [pc, #44]	; (1000ec38 <gapm_reset_req_handler+0x6c>)
1000ec0c:	4798      	blx	r3
1000ec0e:	782b      	ldrb	r3, [r5, #0]
1000ec10:	20e2      	movs	r0, #226	; 0xe2
1000ec12:	2b00      	cmp	r3, #0
1000ec14:	d106      	bne.n	1000ec24 <gapm_reset_req_handler+0x58>
1000ec16:	68a3      	ldr	r3, [r4, #8]
1000ec18:	20e2      	movs	r0, #226	; 0xe2
1000ec1a:	781a      	ldrb	r2, [r3, #0]
1000ec1c:	785b      	ldrb	r3, [r3, #1]
1000ec1e:	2a01      	cmp	r2, #1
1000ec20:	d100      	bne.n	1000ec24 <gapm_reset_req_handler+0x58>
1000ec22:	1c18      	adds	r0, r3, #0
1000ec24:	bd76      	pop	{r1, r2, r4, r5, r6, pc}
1000ec26:	46c0      	nop			; (mov r8, r8)
1000ec28:	10014760 	.word	0x10014760
1000ec2c:	10014ad0 	.word	0x10014ad0
1000ec30:	10014754 	.word	0x10014754
1000ec34:	1000dff5 	.word	0x1000dff5
1000ec38:	1000e059 	.word	0x1000e059

1000ec3c <gapm_set_dev_config_cmd_handler>:
1000ec3c:	b5f0      	push	{r4, r5, r6, r7, lr}
1000ec3e:	b089      	sub	sp, #36	; 0x24
1000ec40:	9303      	str	r3, [sp, #12]
1000ec42:	ab0e      	add	r3, sp, #56	; 0x38
1000ec44:	781b      	ldrb	r3, [r3, #0]
1000ec46:	4c37      	ldr	r4, [pc, #220]	; (1000ed24 <gapm_set_dev_config_cmd_handler+0xe8>)
1000ec48:	9304      	str	r3, [sp, #16]
1000ec4a:	ab0f      	add	r3, sp, #60	; 0x3c
1000ec4c:	781b      	ldrb	r3, [r3, #0]
1000ec4e:	270d      	movs	r7, #13
1000ec50:	9305      	str	r3, [sp, #20]
1000ec52:	ab10      	add	r3, sp, #64	; 0x40
1000ec54:	881b      	ldrh	r3, [r3, #0]
1000ec56:	72a1      	strb	r1, [r4, #10]
1000ec58:	9300      	str	r3, [sp, #0]
1000ec5a:	ab11      	add	r3, sp, #68	; 0x44
1000ec5c:	881b      	ldrh	r3, [r3, #0]
1000ec5e:	0a09      	lsrs	r1, r1, #8
1000ec60:	9301      	str	r3, [sp, #4]
1000ec62:	ab12      	add	r3, sp, #72	; 0x48
1000ec64:	881b      	ldrh	r3, [r3, #0]
1000ec66:	7260      	strb	r0, [r4, #9]
1000ec68:	9302      	str	r3, [sp, #8]
1000ec6a:	ab06      	add	r3, sp, #24
1000ec6c:	1dde      	adds	r6, r3, #7
1000ec6e:	2300      	movs	r3, #0
1000ec70:	7033      	strb	r3, [r6, #0]
1000ec72:	2304      	movs	r3, #4
1000ec74:	7023      	strb	r3, [r4, #0]
1000ec76:	2300      	movs	r3, #0
1000ec78:	70e3      	strb	r3, [r4, #3]
1000ec7a:	4b2b      	ldr	r3, [pc, #172]	; (1000ed28 <gapm_set_dev_config_cmd_handler+0xec>)
1000ec7c:	72e1      	strb	r1, [r4, #11]
1000ec7e:	881d      	ldrh	r5, [r3, #0]
1000ec80:	881b      	ldrh	r3, [r3, #0]
1000ec82:	1c11      	adds	r1, r2, #0
1000ec84:	0a1b      	lsrs	r3, r3, #8
1000ec86:	7163      	strb	r3, [r4, #5]
1000ec88:	2303      	movs	r3, #3
1000ec8a:	7125      	strb	r5, [r4, #4]
1000ec8c:	2206      	movs	r2, #6
1000ec8e:	4d27      	ldr	r5, [pc, #156]	; (1000ed2c <gapm_set_dev_config_cmd_handler+0xf0>)
1000ec90:	4827      	ldr	r0, [pc, #156]	; (1000ed30 <gapm_set_dev_config_cmd_handler+0xf4>)
1000ec92:	7223      	strb	r3, [r4, #8]
1000ec94:	7067      	strb	r7, [r4, #1]
1000ec96:	70a7      	strb	r7, [r4, #2]
1000ec98:	47a8      	blx	r5
1000ec9a:	9903      	ldr	r1, [sp, #12]
1000ec9c:	2210      	movs	r2, #16
1000ec9e:	4825      	ldr	r0, [pc, #148]	; (1000ed34 <gapm_set_dev_config_cmd_handler+0xf8>)
1000eca0:	47a8      	blx	r5
1000eca2:	466a      	mov	r2, sp
1000eca4:	7c12      	ldrb	r2, [r2, #16]
1000eca6:	1ce3      	adds	r3, r4, #3
1000eca8:	77da      	strb	r2, [r3, #31]
1000ecaa:	466a      	mov	r2, sp
1000ecac:	7d12      	ldrb	r2, [r2, #20]
1000ecae:	1d23      	adds	r3, r4, #4
1000ecb0:	77da      	strb	r2, [r3, #31]
1000ecb2:	466a      	mov	r2, sp
1000ecb4:	7812      	ldrb	r2, [r2, #0]
1000ecb6:	1d63      	adds	r3, r4, #5
1000ecb8:	77da      	strb	r2, [r3, #31]
1000ecba:	9b00      	ldr	r3, [sp, #0]
1000ecbc:	1da2      	adds	r2, r4, #6
1000ecbe:	0a1b      	lsrs	r3, r3, #8
1000ecc0:	77d3      	strb	r3, [r2, #31]
1000ecc2:	466a      	mov	r2, sp
1000ecc4:	7912      	ldrb	r2, [r2, #4]
1000ecc6:	1de3      	adds	r3, r4, #7
1000ecc8:	77da      	strb	r2, [r3, #31]
1000ecca:	1c22      	adds	r2, r4, #0
1000eccc:	9b01      	ldr	r3, [sp, #4]
1000ecce:	3208      	adds	r2, #8
1000ecd0:	0a1b      	lsrs	r3, r3, #8
1000ecd2:	77d3      	strb	r3, [r2, #31]
1000ecd4:	466a      	mov	r2, sp
1000ecd6:	1c23      	adds	r3, r4, #0
1000ecd8:	7a12      	ldrb	r2, [r2, #8]
1000ecda:	3328      	adds	r3, #40	; 0x28
1000ecdc:	701a      	strb	r2, [r3, #0]
1000ecde:	1c22      	adds	r2, r4, #0
1000ece0:	9b02      	ldr	r3, [sp, #8]
1000ece2:	3229      	adds	r2, #41	; 0x29
1000ece4:	0a1b      	lsrs	r3, r3, #8
1000ece6:	7013      	strb	r3, [r2, #0]
1000ece8:	23d0      	movs	r3, #208	; 0xd0
1000ecea:	4d13      	ldr	r5, [pc, #76]	; (1000ed38 <gapm_set_dev_config_cmd_handler+0xfc>)
1000ecec:	011b      	lsls	r3, r3, #4
1000ecee:	802b      	strh	r3, [r5, #0]
1000ecf0:	2322      	movs	r3, #34	; 0x22
1000ecf2:	71a3      	strb	r3, [r4, #6]
1000ecf4:	2300      	movs	r3, #0
1000ecf6:	212a      	movs	r1, #42	; 0x2a
1000ecf8:	71e3      	strb	r3, [r4, #7]
1000ecfa:	1c20      	adds	r0, r4, #0
1000ecfc:	4b0f      	ldr	r3, [pc, #60]	; (1000ed3c <gapm_set_dev_config_cmd_handler+0x100>)
1000ecfe:	80af      	strh	r7, [r5, #4]
1000ed00:	4798      	blx	r3
1000ed02:	1c30      	adds	r0, r6, #0
1000ed04:	4b0e      	ldr	r3, [pc, #56]	; (1000ed40 <gapm_set_dev_config_cmd_handler+0x104>)
1000ed06:	4798      	blx	r3
1000ed08:	7833      	ldrb	r3, [r6, #0]
1000ed0a:	20e2      	movs	r0, #226	; 0xe2
1000ed0c:	2b00      	cmp	r3, #0
1000ed0e:	d106      	bne.n	1000ed1e <gapm_set_dev_config_cmd_handler+0xe2>
1000ed10:	68ab      	ldr	r3, [r5, #8]
1000ed12:	20e2      	movs	r0, #226	; 0xe2
1000ed14:	781a      	ldrb	r2, [r3, #0]
1000ed16:	785b      	ldrb	r3, [r3, #1]
1000ed18:	2a03      	cmp	r2, #3
1000ed1a:	d100      	bne.n	1000ed1e <gapm_set_dev_config_cmd_handler+0xe2>
1000ed1c:	1c18      	adds	r0, r3, #0
1000ed1e:	b009      	add	sp, #36	; 0x24
1000ed20:	bdf0      	pop	{r4, r5, r6, r7, pc}
1000ed22:	46c0      	nop			; (mov r8, r8)
1000ed24:	10014ad0 	.word	0x10014ad0
1000ed28:	10014760 	.word	0x10014760
1000ed2c:	10010b37 	.word	0x10010b37
1000ed30:	10014adc 	.word	0x10014adc
1000ed34:	10014ae2 	.word	0x10014ae2
1000ed38:	10014754 	.word	0x10014754
1000ed3c:	1000dff5 	.word	0x1000dff5
1000ed40:	1000e059 	.word	0x1000e059

1000ed44 <gapm_get_dev_config_cmd_handler>:
1000ed44:	4684      	mov	ip, r0
1000ed46:	4663      	mov	r3, ip
1000ed48:	b5f0      	push	{r4, r5, r6, r7, lr}
1000ed4a:	b085      	sub	sp, #20
1000ed4c:	9100      	str	r1, [sp, #0]
1000ed4e:	20cf      	movs	r0, #207	; 0xcf
1000ed50:	2b01      	cmp	r3, #1
1000ed52:	d854      	bhi.n	1000edfe <gapm_get_dev_config_cmd_handler+0xba>
1000ed54:	2900      	cmp	r1, #0
1000ed56:	d052      	beq.n	1000edfe <gapm_get_dev_config_cmd_handler+0xba>
1000ed58:	2200      	movs	r2, #0
1000ed5a:	492a      	ldr	r1, [pc, #168]	; (1000ee04 <gapm_get_dev_config_cmd_handler+0xc0>)
1000ed5c:	ab02      	add	r3, sp, #8
1000ed5e:	880c      	ldrh	r4, [r1, #0]
1000ed60:	8809      	ldrh	r1, [r1, #0]
1000ed62:	1d9f      	adds	r7, r3, #6
1000ed64:	719a      	strb	r2, [r3, #6]
1000ed66:	4b28      	ldr	r3, [pc, #160]	; (1000ee08 <gapm_get_dev_config_cmd_handler+0xc4>)
1000ed68:	0a09      	lsrs	r1, r1, #8
1000ed6a:	250d      	movs	r5, #13
1000ed6c:	2606      	movs	r6, #6
1000ed6e:	7159      	strb	r1, [r3, #5]
1000ed70:	4661      	mov	r1, ip
1000ed72:	701e      	strb	r6, [r3, #0]
1000ed74:	705d      	strb	r5, [r3, #1]
1000ed76:	709d      	strb	r5, [r3, #2]
1000ed78:	70da      	strb	r2, [r3, #3]
1000ed7a:	711c      	strb	r4, [r3, #4]
1000ed7c:	2901      	cmp	r1, #1
1000ed7e:	d13e      	bne.n	1000edfe <gapm_get_dev_config_cmd_handler+0xba>
1000ed80:	21d0      	movs	r1, #208	; 0xd0
1000ed82:	4c22      	ldr	r4, [pc, #136]	; (1000ee0c <gapm_get_dev_config_cmd_handler+0xc8>)
1000ed84:	0109      	lsls	r1, r1, #4
1000ed86:	8061      	strh	r1, [r4, #2]
1000ed88:	4921      	ldr	r1, [pc, #132]	; (1000ee10 <gapm_get_dev_config_cmd_handler+0xcc>)
1000ed8a:	71da      	strb	r2, [r3, #7]
1000ed8c:	8021      	strh	r1, [r4, #0]
1000ed8e:	4661      	mov	r1, ip
1000ed90:	721e      	strb	r6, [r3, #8]
1000ed92:	7199      	strb	r1, [r3, #6]
1000ed94:	1c18      	adds	r0, r3, #0
1000ed96:	2109      	movs	r1, #9
1000ed98:	4b1e      	ldr	r3, [pc, #120]	; (1000ee14 <gapm_get_dev_config_cmd_handler+0xd0>)
1000ed9a:	80a5      	strh	r5, [r4, #4]
1000ed9c:	4798      	blx	r3
1000ed9e:	1c38      	adds	r0, r7, #0
1000eda0:	4b1d      	ldr	r3, [pc, #116]	; (1000ee18 <gapm_get_dev_config_cmd_handler+0xd4>)
1000eda2:	4798      	blx	r3
1000eda4:	783b      	ldrb	r3, [r7, #0]
1000eda6:	20e2      	movs	r0, #226	; 0xe2
1000eda8:	9301      	str	r3, [sp, #4]
1000edaa:	2b00      	cmp	r3, #0
1000edac:	d127      	bne.n	1000edfe <gapm_get_dev_config_cmd_handler+0xba>
1000edae:	8821      	ldrh	r1, [r4, #0]
1000edb0:	4a1a      	ldr	r2, [pc, #104]	; (1000ee1c <gapm_get_dev_config_cmd_handler+0xd8>)
1000edb2:	68a7      	ldr	r7, [r4, #8]
1000edb4:	3b01      	subs	r3, #1
1000edb6:	4291      	cmp	r1, r2
1000edb8:	d001      	beq.n	1000edbe <gapm_get_dev_config_cmd_handler+0x7a>
1000edba:	8023      	strh	r3, [r4, #0]
1000edbc:	e01a      	b.n	1000edf4 <gapm_get_dev_config_cmd_handler+0xb0>
1000edbe:	8063      	strh	r3, [r4, #2]
1000edc0:	9b00      	ldr	r3, [sp, #0]
1000edc2:	1c39      	adds	r1, r7, #0
1000edc4:	1c58      	adds	r0, r3, #1
1000edc6:	1c32      	adds	r2, r6, #0
1000edc8:	4b15      	ldr	r3, [pc, #84]	; (1000ee20 <gapm_get_dev_config_cmd_handler+0xdc>)
1000edca:	4798      	blx	r3
1000edcc:	79bb      	ldrb	r3, [r7, #6]
1000edce:	9a00      	ldr	r2, [sp, #0]
1000edd0:	7013      	strb	r3, [r2, #0]
1000edd2:	23d0      	movs	r3, #208	; 0xd0
1000edd4:	011b      	lsls	r3, r3, #4
1000edd6:	8023      	strh	r3, [r4, #0]
1000edd8:	ab02      	add	r3, sp, #8
1000edda:	80a5      	strh	r5, [r4, #4]
1000eddc:	1ddd      	adds	r5, r3, #7
1000edde:	466b      	mov	r3, sp
1000ede0:	791b      	ldrb	r3, [r3, #4]
1000ede2:	1c28      	adds	r0, r5, #0
1000ede4:	702b      	strb	r3, [r5, #0]
1000ede6:	4b0c      	ldr	r3, [pc, #48]	; (1000ee18 <gapm_get_dev_config_cmd_handler+0xd4>)
1000ede8:	4798      	blx	r3
1000edea:	782b      	ldrb	r3, [r5, #0]
1000edec:	20d0      	movs	r0, #208	; 0xd0
1000edee:	2b00      	cmp	r3, #0
1000edf0:	d105      	bne.n	1000edfe <gapm_get_dev_config_cmd_handler+0xba>
1000edf2:	68a7      	ldr	r7, [r4, #8]
1000edf4:	783b      	ldrb	r3, [r7, #0]
1000edf6:	7878      	ldrb	r0, [r7, #1]
1000edf8:	2b06      	cmp	r3, #6
1000edfa:	d000      	beq.n	1000edfe <gapm_get_dev_config_cmd_handler+0xba>
1000edfc:	20e2      	movs	r0, #226	; 0xe2
1000edfe:	b005      	add	sp, #20
1000ee00:	bdf0      	pop	{r4, r5, r6, r7, pc}
1000ee02:	46c0      	nop			; (mov r8, r8)
1000ee04:	10014760 	.word	0x10014760
1000ee08:	10014ad0 	.word	0x10014ad0
1000ee0c:	10014754 	.word	0x10014754
1000ee10:	00000d08 	.word	0x00000d08
1000ee14:	1000dff5 	.word	0x1000dff5
1000ee18:	1000e059 	.word	0x1000e059
1000ee1c:	0000ffff 	.word	0x0000ffff
1000ee20:	10010b37 	.word	0x10010b37

1000ee24 <gapm_cancel_cmd_handler>:
1000ee24:	b537      	push	{r0, r1, r2, r4, r5, lr}
1000ee26:	4916      	ldr	r1, [pc, #88]	; (1000ee80 <gapm_cancel_cmd_handler+0x5c>)
1000ee28:	4816      	ldr	r0, [pc, #88]	; (1000ee84 <gapm_cancel_cmd_handler+0x60>)
1000ee2a:	880c      	ldrh	r4, [r1, #0]
1000ee2c:	8809      	ldrh	r1, [r1, #0]
1000ee2e:	466b      	mov	r3, sp
1000ee30:	0a09      	lsrs	r1, r1, #8
1000ee32:	7141      	strb	r1, [r0, #5]
1000ee34:	2102      	movs	r1, #2
1000ee36:	2203      	movs	r2, #3
1000ee38:	7201      	strb	r1, [r0, #8]
1000ee3a:	21d0      	movs	r1, #208	; 0xd0
1000ee3c:	1ddd      	adds	r5, r3, #7
1000ee3e:	2300      	movs	r3, #0
1000ee40:	7104      	strb	r4, [r0, #4]
1000ee42:	4c11      	ldr	r4, [pc, #68]	; (1000ee88 <gapm_cancel_cmd_handler+0x64>)
1000ee44:	7002      	strb	r2, [r0, #0]
1000ee46:	0109      	lsls	r1, r1, #4
1000ee48:	320a      	adds	r2, #10
1000ee4a:	702b      	strb	r3, [r5, #0]
1000ee4c:	7042      	strb	r2, [r0, #1]
1000ee4e:	7082      	strb	r2, [r0, #2]
1000ee50:	70c3      	strb	r3, [r0, #3]
1000ee52:	8021      	strh	r1, [r4, #0]
1000ee54:	80a2      	strh	r2, [r4, #4]
1000ee56:	71c3      	strb	r3, [r0, #7]
1000ee58:	3a0c      	subs	r2, #12
1000ee5a:	2109      	movs	r1, #9
1000ee5c:	4b0b      	ldr	r3, [pc, #44]	; (1000ee8c <gapm_cancel_cmd_handler+0x68>)
1000ee5e:	7182      	strb	r2, [r0, #6]
1000ee60:	4798      	blx	r3
1000ee62:	1c28      	adds	r0, r5, #0
1000ee64:	4b0a      	ldr	r3, [pc, #40]	; (1000ee90 <gapm_cancel_cmd_handler+0x6c>)
1000ee66:	4798      	blx	r3
1000ee68:	7828      	ldrb	r0, [r5, #0]
1000ee6a:	2800      	cmp	r0, #0
1000ee6c:	d001      	beq.n	1000ee72 <gapm_cancel_cmd_handler+0x4e>
1000ee6e:	20e2      	movs	r0, #226	; 0xe2
1000ee70:	e004      	b.n	1000ee7c <gapm_cancel_cmd_handler+0x58>
1000ee72:	68a3      	ldr	r3, [r4, #8]
1000ee74:	785b      	ldrb	r3, [r3, #1]
1000ee76:	2b44      	cmp	r3, #68	; 0x44
1000ee78:	d000      	beq.n	1000ee7c <gapm_cancel_cmd_handler+0x58>
1000ee7a:	1c18      	adds	r0, r3, #0
1000ee7c:	bd3e      	pop	{r1, r2, r3, r4, r5, pc}
1000ee7e:	46c0      	nop			; (mov r8, r8)
1000ee80:	10014760 	.word	0x10014760
1000ee84:	10014ad0 	.word	0x10014ad0
1000ee88:	10014754 	.word	0x10014754
1000ee8c:	1000dff5 	.word	0x1000dff5
1000ee90:	1000e059 	.word	0x1000e059

1000ee94 <gapm_dev_bdaddr_ind_handler>:
1000ee94:	b538      	push	{r3, r4, r5, lr}
1000ee96:	1c05      	adds	r5, r0, #0
1000ee98:	1c0c      	adds	r4, r1, #0
1000ee9a:	1c48      	adds	r0, r1, #1
1000ee9c:	2206      	movs	r2, #6
1000ee9e:	1c29      	adds	r1, r5, #0
1000eea0:	4b02      	ldr	r3, [pc, #8]	; (1000eeac <gapm_dev_bdaddr_ind_handler+0x18>)
1000eea2:	4798      	blx	r3
1000eea4:	79ab      	ldrb	r3, [r5, #6]
1000eea6:	2000      	movs	r0, #0
1000eea8:	7023      	strb	r3, [r4, #0]
1000eeaa:	bd38      	pop	{r3, r4, r5, pc}
1000eeac:	10010b37 	.word	0x10010b37

1000eeb0 <gapm_cmp_evt>:
1000eeb0:	b5f7      	push	{r0, r1, r2, r4, r5, r6, r7, lr}
1000eeb2:	7803      	ldrb	r3, [r0, #0]
1000eeb4:	7845      	ldrb	r5, [r0, #1]
1000eeb6:	3b0c      	subs	r3, #12
1000eeb8:	1e18      	subs	r0, r3, #0
1000eeba:	280b      	cmp	r0, #11
1000eebc:	d900      	bls.n	1000eec0 <gapm_cmp_evt+0x10>
1000eebe:	e08d      	b.n	1000efdc <gapm_cmp_evt+0x12c>
1000eec0:	1c0c      	adds	r4, r1, #0
1000eec2:	f000 fd5f 	bl	1000f984 <__gnu_thumb1_case_uqi>
1000eec6:	1952      	.short	0x1952
1000eec8:	068b1919 	.word	0x068b1919
1000eecc:	8b595906 	.word	0x8b595906
1000eed0:	0d8b      	.short	0x0d8b
1000eed2:	2300      	movs	r3, #0
1000eed4:	2d45      	cmp	r5, #69	; 0x45
1000eed6:	d000      	beq.n	1000eeda <gapm_cmp_evt+0x2a>
1000eed8:	1c2b      	adds	r3, r5, #0
1000eeda:	7023      	strb	r3, [r4, #0]
1000eedc:	2002      	movs	r0, #2
1000eede:	e07e      	b.n	1000efde <gapm_cmp_evt+0x12e>
1000eee0:	203b      	movs	r0, #59	; 0x3b
1000eee2:	2d00      	cmp	r5, #0
1000eee4:	d100      	bne.n	1000eee8 <gapm_cmp_evt+0x38>
1000eee6:	e07a      	b.n	1000efde <gapm_cmp_evt+0x12e>
1000eee8:	700d      	strb	r5, [r1, #0]
1000eeea:	1c48      	adds	r0, r1, #1
1000eeec:	2210      	movs	r2, #16
1000eeee:	2100      	movs	r1, #0
1000eef0:	4b3b      	ldr	r3, [pc, #236]	; (1000efe0 <gapm_cmp_evt+0x130>)
1000eef2:	4798      	blx	r3
1000eef4:	200f      	movs	r0, #15
1000eef6:	e072      	b.n	1000efde <gapm_cmp_evt+0x12e>
1000eef8:	2d00      	cmp	r5, #0
1000eefa:	d134      	bne.n	1000ef66 <gapm_cmp_evt+0xb6>
1000eefc:	4b39      	ldr	r3, [pc, #228]	; (1000efe4 <gapm_cmp_evt+0x134>)
1000eefe:	4798      	blx	r3
1000ef00:	1e43      	subs	r3, r0, #1
1000ef02:	b2db      	uxtb	r3, r3
1000ef04:	1c28      	adds	r0, r5, #0
1000ef06:	2b06      	cmp	r3, #6
1000ef08:	d869      	bhi.n	1000efde <gapm_cmp_evt+0x12e>
1000ef0a:	466b      	mov	r3, sp
1000ef0c:	4e36      	ldr	r6, [pc, #216]	; (1000efe8 <gapm_cmp_evt+0x138>)
1000ef0e:	1dd9      	adds	r1, r3, #7
1000ef10:	8db0      	ldrh	r0, [r6, #44]	; 0x2c
1000ef12:	4b36      	ldr	r3, [pc, #216]	; (1000efec <gapm_cmp_evt+0x13c>)
1000ef14:	4798      	blx	r3
1000ef16:	2312      	movs	r3, #18
1000ef18:	4358      	muls	r0, r3
1000ef1a:	4935      	ldr	r1, [pc, #212]	; (1000eff0 <gapm_cmp_evt+0x140>)
1000ef1c:	1809      	adds	r1, r1, r0
1000ef1e:	1c0b      	adds	r3, r1, #0
1000ef20:	894a      	ldrh	r2, [r1, #10]
1000ef22:	3308      	adds	r3, #8
1000ef24:	8122      	strh	r2, [r4, #8]
1000ef26:	784f      	ldrb	r7, [r1, #1]
1000ef28:	72a5      	strb	r5, [r4, #10]
1000ef2a:	7027      	strb	r7, [r4, #0]
1000ef2c:	898a      	ldrh	r2, [r1, #12]
1000ef2e:	1c60      	adds	r0, r4, #1
1000ef30:	81a2      	strh	r2, [r4, #12]
1000ef32:	88db      	ldrh	r3, [r3, #6]
1000ef34:	3102      	adds	r1, #2
1000ef36:	81e3      	strh	r3, [r4, #14]
1000ef38:	89cb      	ldrh	r3, [r1, #14]
1000ef3a:	2206      	movs	r2, #6
1000ef3c:	8223      	strh	r3, [r4, #16]
1000ef3e:	4b2d      	ldr	r3, [pc, #180]	; (1000eff4 <gapm_cmp_evt+0x144>)
1000ef40:	4798      	blx	r3
1000ef42:	2f00      	cmp	r7, #0
1000ef44:	d00a      	beq.n	1000ef5c <gapm_cmp_evt+0xac>
1000ef46:	79a3      	ldrb	r3, [r4, #6]
1000ef48:	223f      	movs	r2, #63	; 0x3f
1000ef4a:	1c19      	adds	r1, r3, #0
1000ef4c:	3501      	adds	r5, #1
1000ef4e:	4391      	bics	r1, r2
1000ef50:	29c0      	cmp	r1, #192	; 0xc0
1000ef52:	d003      	beq.n	1000ef5c <gapm_cmp_evt+0xac>
1000ef54:	065b      	lsls	r3, r3, #25
1000ef56:	0fdb      	lsrs	r3, r3, #31
1000ef58:	3502      	adds	r5, #2
1000ef5a:	1aed      	subs	r5, r5, r3
1000ef5c:	2301      	movs	r3, #1
1000ef5e:	425b      	negs	r3, r3
1000ef60:	7025      	strb	r5, [r4, #0]
1000ef62:	85b3      	strh	r3, [r6, #44]	; 0x2c
1000ef64:	e038      	b.n	1000efd8 <gapm_cmp_evt+0x128>
1000ef66:	700d      	strb	r5, [r1, #0]
1000ef68:	e004      	b.n	1000ef74 <gapm_cmp_evt+0xc4>
1000ef6a:	2300      	movs	r3, #0
1000ef6c:	2d45      	cmp	r5, #69	; 0x45
1000ef6e:	d000      	beq.n	1000ef72 <gapm_cmp_evt+0xc2>
1000ef70:	1c2b      	adds	r3, r5, #0
1000ef72:	7023      	strb	r3, [r4, #0]
1000ef74:	2003      	movs	r0, #3
1000ef76:	e032      	b.n	1000efde <gapm_cmp_evt+0x12e>
1000ef78:	4e1b      	ldr	r6, [pc, #108]	; (1000efe8 <gapm_cmp_evt+0x138>)
1000ef7a:	2100      	movs	r1, #0
1000ef7c:	8db0      	ldrh	r0, [r6, #44]	; 0x2c
1000ef7e:	4b1b      	ldr	r3, [pc, #108]	; (1000efec <gapm_cmp_evt+0x13c>)
1000ef80:	4798      	blx	r3
1000ef82:	2807      	cmp	r0, #7
1000ef84:	d818      	bhi.n	1000efb8 <gapm_cmp_evt+0x108>
1000ef86:	2301      	movs	r3, #1
1000ef88:	425b      	negs	r3, r3
1000ef8a:	85b3      	strh	r3, [r6, #44]	; 0x2c
1000ef8c:	3313      	adds	r3, #19
1000ef8e:	4358      	muls	r0, r3
1000ef90:	4917      	ldr	r1, [pc, #92]	; (1000eff0 <gapm_cmp_evt+0x140>)
1000ef92:	1809      	adds	r1, r1, r0
1000ef94:	1c0b      	adds	r3, r1, #0
1000ef96:	894a      	ldrh	r2, [r1, #10]
1000ef98:	3308      	adds	r3, #8
1000ef9a:	8122      	strh	r2, [r4, #8]
1000ef9c:	784a      	ldrb	r2, [r1, #1]
1000ef9e:	72a5      	strb	r5, [r4, #10]
1000efa0:	7022      	strb	r2, [r4, #0]
1000efa2:	898a      	ldrh	r2, [r1, #12]
1000efa4:	1c60      	adds	r0, r4, #1
1000efa6:	81a2      	strh	r2, [r4, #12]
1000efa8:	88db      	ldrh	r3, [r3, #6]
1000efaa:	3102      	adds	r1, #2
1000efac:	81e3      	strh	r3, [r4, #14]
1000efae:	89cb      	ldrh	r3, [r1, #14]
1000efb0:	2206      	movs	r2, #6
1000efb2:	8223      	strh	r3, [r4, #16]
1000efb4:	4b0f      	ldr	r3, [pc, #60]	; (1000eff4 <gapm_cmp_evt+0x144>)
1000efb6:	4798      	blx	r3
1000efb8:	2200      	movs	r2, #0
1000efba:	7823      	ldrb	r3, [r4, #0]
1000efbc:	4293      	cmp	r3, r2
1000efbe:	d00a      	beq.n	1000efd6 <gapm_cmp_evt+0x126>
1000efc0:	79a3      	ldrb	r3, [r4, #6]
1000efc2:	323f      	adds	r2, #63	; 0x3f
1000efc4:	1c19      	adds	r1, r3, #0
1000efc6:	4391      	bics	r1, r2
1000efc8:	3a3e      	subs	r2, #62	; 0x3e
1000efca:	29c0      	cmp	r1, #192	; 0xc0
1000efcc:	d003      	beq.n	1000efd6 <gapm_cmp_evt+0x126>
1000efce:	065b      	lsls	r3, r3, #25
1000efd0:	0fdb      	lsrs	r3, r3, #31
1000efd2:	3202      	adds	r2, #2
1000efd4:	1ad2      	subs	r2, r2, r3
1000efd6:	7022      	strb	r2, [r4, #0]
1000efd8:	2005      	movs	r0, #5
1000efda:	e000      	b.n	1000efde <gapm_cmp_evt+0x12e>
1000efdc:	2000      	movs	r0, #0
1000efde:	bdfe      	pop	{r1, r2, r3, r4, r5, r6, r7, pc}
1000efe0:	10010b49 	.word	0x10010b49
1000efe4:	1000e201 	.word	0x1000e201
1000efe8:	100147f2 	.word	0x100147f2
1000efec:	1000e1c5 	.word	0x1000e1c5
1000eff0:	10014762 	.word	0x10014762
1000eff4:	10010b37 	.word	0x10010b37

1000eff8 <gapm_start_adv_cmd_handler>:
1000eff8:	b5f0      	push	{r4, r5, r6, r7, lr}
1000effa:	b089      	sub	sp, #36	; 0x24
1000effc:	9303      	str	r3, [sp, #12]
1000effe:	ab0e      	add	r3, sp, #56	; 0x38
1000f000:	9102      	str	r1, [sp, #8]
1000f002:	cb02      	ldmia	r3!, {r1}
1000f004:	aa08      	add	r2, sp, #32
1000f006:	881b      	ldrh	r3, [r3, #0]
1000f008:	4e3c      	ldr	r6, [pc, #240]	; (1000f0fc <gapm_start_adv_cmd_handler+0x104>)
1000f00a:	9300      	str	r3, [sp, #0]
1000f00c:	ab10      	add	r3, sp, #64	; 0x40
1000f00e:	881b      	ldrh	r3, [r3, #0]
1000f010:	240d      	movs	r4, #13
1000f012:	469c      	mov	ip, r3
1000f014:	ab11      	add	r3, sp, #68	; 0x44
1000f016:	781b      	ldrb	r3, [r3, #0]
1000f018:	9304      	str	r3, [sp, #16]
1000f01a:	ab12      	add	r3, sp, #72	; 0x48
1000f01c:	781b      	ldrb	r3, [r3, #0]
1000f01e:	9305      	str	r3, [sp, #20]
1000f020:	ab13      	add	r3, sp, #76	; 0x4c
1000f022:	781b      	ldrb	r3, [r3, #0]
1000f024:	9306      	str	r3, [sp, #24]
1000f026:	ab14      	add	r3, sp, #80	; 0x50
1000f028:	781b      	ldrb	r3, [r3, #0]
1000f02a:	9301      	str	r3, [sp, #4]
1000f02c:	2319      	movs	r3, #25
1000f02e:	189b      	adds	r3, r3, r2
1000f030:	7fdd      	ldrb	r5, [r3, #31]
1000f032:	ab18      	add	r3, sp, #96	; 0x60
1000f034:	881f      	ldrh	r7, [r3, #0]
1000f036:	ab19      	add	r3, sp, #100	; 0x64
1000f038:	781b      	ldrb	r3, [r3, #0]
1000f03a:	8832      	ldrh	r2, [r6, #0]
1000f03c:	9307      	str	r3, [sp, #28]
1000f03e:	4b30      	ldr	r3, [pc, #192]	; (1000f100 <gapm_start_adv_cmd_handler+0x108>)
1000f040:	8836      	ldrh	r6, [r6, #0]
1000f042:	711a      	strb	r2, [r3, #4]
1000f044:	466a      	mov	r2, sp
1000f046:	7a12      	ldrb	r2, [r2, #8]
1000f048:	701c      	strb	r4, [r3, #0]
1000f04a:	705c      	strb	r4, [r3, #1]
1000f04c:	709c      	strb	r4, [r3, #2]
1000f04e:	725a      	strb	r2, [r3, #9]
1000f050:	2400      	movs	r4, #0
1000f052:	466a      	mov	r2, sp
1000f054:	0a36      	lsrs	r6, r6, #8
1000f056:	70dc      	strb	r4, [r3, #3]
1000f058:	7218      	strb	r0, [r3, #8]
1000f05a:	729c      	strb	r4, [r3, #10]
1000f05c:	715e      	strb	r6, [r3, #5]
1000f05e:	72dc      	strb	r4, [r3, #11]
1000f060:	7812      	ldrb	r2, [r2, #0]
1000f062:	380e      	subs	r0, #14
1000f064:	731a      	strb	r2, [r3, #12]
1000f066:	9a00      	ldr	r2, [sp, #0]
1000f068:	0a14      	lsrs	r4, r2, #8
1000f06a:	4662      	mov	r2, ip
1000f06c:	739a      	strb	r2, [r3, #14]
1000f06e:	4662      	mov	r2, ip
1000f070:	735c      	strb	r4, [r3, #13]
1000f072:	0a14      	lsrs	r4, r2, #8
1000f074:	466a      	mov	r2, sp
1000f076:	7c12      	ldrb	r2, [r2, #16]
1000f078:	73dc      	strb	r4, [r3, #15]
1000f07a:	741a      	strb	r2, [r3, #16]
1000f07c:	1c1c      	adds	r4, r3, #0
1000f07e:	2801      	cmp	r0, #1
1000f080:	d809      	bhi.n	1000f096 <gapm_start_adv_cmd_handler+0x9e>
1000f082:	2900      	cmp	r1, #0
1000f084:	d003      	beq.n	1000f08e <gapm_start_adv_cmd_handler+0x96>
1000f086:	481f      	ldr	r0, [pc, #124]	; (1000f104 <gapm_start_adv_cmd_handler+0x10c>)
1000f088:	2206      	movs	r2, #6
1000f08a:	4b1f      	ldr	r3, [pc, #124]	; (1000f108 <gapm_start_adv_cmd_handler+0x110>)
1000f08c:	4798      	blx	r3
1000f08e:	466b      	mov	r3, sp
1000f090:	7b1b      	ldrb	r3, [r3, #12]
1000f092:	75e3      	strb	r3, [r4, #23]
1000f094:	e014      	b.n	1000f0c0 <gapm_start_adv_cmd_handler+0xc8>
1000f096:	466b      	mov	r3, sp
1000f098:	7d1b      	ldrb	r3, [r3, #20]
1000f09a:	9915      	ldr	r1, [sp, #84]	; 0x54
1000f09c:	7463      	strb	r3, [r4, #17]
1000f09e:	466b      	mov	r3, sp
1000f0a0:	7e1b      	ldrb	r3, [r3, #24]
1000f0a2:	9a01      	ldr	r2, [sp, #4]
1000f0a4:	74a3      	strb	r3, [r4, #18]
1000f0a6:	466b      	mov	r3, sp
1000f0a8:	791b      	ldrb	r3, [r3, #4]
1000f0aa:	4818      	ldr	r0, [pc, #96]	; (1000f10c <gapm_start_adv_cmd_handler+0x114>)
1000f0ac:	4e16      	ldr	r6, [pc, #88]	; (1000f108 <gapm_start_adv_cmd_handler+0x110>)
1000f0ae:	74e3      	strb	r3, [r4, #19]
1000f0b0:	47b0      	blx	r6
1000f0b2:	1c23      	adds	r3, r4, #0
1000f0b4:	4816      	ldr	r0, [pc, #88]	; (1000f110 <gapm_start_adv_cmd_handler+0x118>)
1000f0b6:	3330      	adds	r3, #48	; 0x30
1000f0b8:	9917      	ldr	r1, [sp, #92]	; 0x5c
1000f0ba:	1c2a      	adds	r2, r5, #0
1000f0bc:	701d      	strb	r5, [r3, #0]
1000f0be:	47b0      	blx	r6
1000f0c0:	1c22      	adds	r2, r4, #0
1000f0c2:	23a5      	movs	r3, #165	; 0xa5
1000f0c4:	3250      	adds	r2, #80	; 0x50
1000f0c6:	7013      	strb	r3, [r2, #0]
1000f0c8:	1c22      	adds	r2, r4, #0
1000f0ca:	3251      	adds	r2, #81	; 0x51
1000f0cc:	7013      	strb	r3, [r2, #0]
1000f0ce:	1c23      	adds	r3, r4, #0
1000f0d0:	1c22      	adds	r2, r4, #0
1000f0d2:	3352      	adds	r3, #82	; 0x52
1000f0d4:	701f      	strb	r7, [r3, #0]
1000f0d6:	3253      	adds	r2, #83	; 0x53
1000f0d8:	0a3b      	lsrs	r3, r7, #8
1000f0da:	7013      	strb	r3, [r2, #0]
1000f0dc:	466a      	mov	r2, sp
1000f0de:	1c23      	adds	r3, r4, #0
1000f0e0:	7f12      	ldrb	r2, [r2, #28]
1000f0e2:	3354      	adds	r3, #84	; 0x54
1000f0e4:	701a      	strb	r2, [r3, #0]
1000f0e6:	234d      	movs	r3, #77	; 0x4d
1000f0e8:	2500      	movs	r5, #0
1000f0ea:	71a3      	strb	r3, [r4, #6]
1000f0ec:	1c20      	adds	r0, r4, #0
1000f0ee:	2155      	movs	r1, #85	; 0x55
1000f0f0:	4b08      	ldr	r3, [pc, #32]	; (1000f114 <gapm_start_adv_cmd_handler+0x11c>)
1000f0f2:	71e5      	strb	r5, [r4, #7]
1000f0f4:	4798      	blx	r3
1000f0f6:	1c28      	adds	r0, r5, #0
1000f0f8:	b009      	add	sp, #36	; 0x24
1000f0fa:	bdf0      	pop	{r4, r5, r6, r7, pc}
1000f0fc:	10014760 	.word	0x10014760
1000f100:	10014ad0 	.word	0x10014ad0
1000f104:	10014ae1 	.word	0x10014ae1
1000f108:	10010b37 	.word	0x10010b37
1000f10c:	10014ae4 	.word	0x10014ae4
1000f110:	10014b01 	.word	0x10014b01
1000f114:	1000dff5 	.word	0x1000dff5

1000f118 <get_gap_local_addr_type>:
1000f118:	4b04      	ldr	r3, [pc, #16]	; (1000f12c <get_gap_local_addr_type+0x14>)
1000f11a:	2001      	movs	r0, #1
1000f11c:	791b      	ldrb	r3, [r3, #4]
1000f11e:	2b02      	cmp	r3, #2
1000f120:	d003      	beq.n	1000f12a <get_gap_local_addr_type+0x12>
1000f122:	3b03      	subs	r3, #3
1000f124:	4258      	negs	r0, r3
1000f126:	4158      	adcs	r0, r3
1000f128:	0040      	lsls	r0, r0, #1
1000f12a:	4770      	bx	lr
1000f12c:	100147f2 	.word	0x100147f2

1000f130 <gapm_adv_report_evt_handler>:
1000f130:	b5f7      	push	{r0, r1, r2, r4, r5, r6, r7, lr}
1000f132:	7843      	ldrb	r3, [r0, #1]
1000f134:	1c05      	adds	r5, r0, #0
1000f136:	9301      	str	r3, [sp, #4]
1000f138:	466b      	mov	r3, sp
1000f13a:	1c0c      	adds	r4, r1, #0
1000f13c:	791b      	ldrb	r3, [r3, #4]
1000f13e:	7806      	ldrb	r6, [r0, #0]
1000f140:	2206      	movs	r2, #6
1000f142:	704b      	strb	r3, [r1, #1]
1000f144:	1c88      	adds	r0, r1, #2
1000f146:	4f1b      	ldr	r7, [pc, #108]	; (1000f1b4 <gapm_adv_report_evt_handler+0x84>)
1000f148:	1ca9      	adds	r1, r5, #2
1000f14a:	47b8      	blx	r7
1000f14c:	1c20      	adds	r0, r4, #0
1000f14e:	1c29      	adds	r1, r5, #0
1000f150:	7a2a      	ldrb	r2, [r5, #8]
1000f152:	3008      	adds	r0, #8
1000f154:	77c2      	strb	r2, [r0, #31]
1000f156:	3109      	adds	r1, #9
1000f158:	3528      	adds	r5, #40	; 0x28
1000f15a:	47b8      	blx	r7
1000f15c:	782b      	ldrb	r3, [r5, #0]
1000f15e:	b25a      	sxtb	r2, r3
1000f160:	2a00      	cmp	r2, #0
1000f162:	da01      	bge.n	1000f168 <gapm_adv_report_evt_handler+0x38>
1000f164:	3301      	adds	r3, #1
1000f166:	b2db      	uxtb	r3, r3
1000f168:	1c22      	adds	r2, r4, #0
1000f16a:	3228      	adds	r2, #40	; 0x28
1000f16c:	7013      	strb	r3, [r2, #0]
1000f16e:	2200      	movs	r2, #0
1000f170:	9b01      	ldr	r3, [sp, #4]
1000f172:	4293      	cmp	r3, r2
1000f174:	d00a      	beq.n	1000f18c <gapm_adv_report_evt_handler+0x5c>
1000f176:	79e3      	ldrb	r3, [r4, #7]
1000f178:	323f      	adds	r2, #63	; 0x3f
1000f17a:	1c19      	adds	r1, r3, #0
1000f17c:	4391      	bics	r1, r2
1000f17e:	3a3e      	subs	r2, #62	; 0x3e
1000f180:	29c0      	cmp	r1, #192	; 0xc0
1000f182:	d003      	beq.n	1000f18c <gapm_adv_report_evt_handler+0x5c>
1000f184:	065b      	lsls	r3, r3, #25
1000f186:	0fdb      	lsrs	r3, r3, #31
1000f188:	3202      	adds	r2, #2
1000f18a:	1ad2      	subs	r2, r2, r3
1000f18c:	7062      	strb	r2, [r4, #1]
1000f18e:	2e04      	cmp	r6, #4
1000f190:	d80f      	bhi.n	1000f1b2 <gapm_adv_report_evt_handler+0x82>
1000f192:	1c30      	adds	r0, r6, #0
1000f194:	f000 fbf6 	bl	1000f984 <__gnu_thumb1_case_uqi>
1000f198:	09070503 	.word	0x09070503
1000f19c:	0b          	.byte	0x0b
1000f19d:	00          	.byte	0x00
1000f19e:	2300      	movs	r3, #0
1000f1a0:	e006      	b.n	1000f1b0 <gapm_adv_report_evt_handler+0x80>
1000f1a2:	2301      	movs	r3, #1
1000f1a4:	e004      	b.n	1000f1b0 <gapm_adv_report_evt_handler+0x80>
1000f1a6:	2302      	movs	r3, #2
1000f1a8:	e002      	b.n	1000f1b0 <gapm_adv_report_evt_handler+0x80>
1000f1aa:	2303      	movs	r3, #3
1000f1ac:	e000      	b.n	1000f1b0 <gapm_adv_report_evt_handler+0x80>
1000f1ae:	2305      	movs	r3, #5
1000f1b0:	7023      	strb	r3, [r4, #0]
1000f1b2:	bdf7      	pop	{r0, r1, r2, r4, r5, r6, r7, pc}
1000f1b4:	10010b37 	.word	0x10010b37

1000f1b8 <gapm_resolv_addr_cmd_handler>:
1000f1b8:	b5f8      	push	{r3, r4, r5, r6, r7, lr}
1000f1ba:	2314      	movs	r3, #20
1000f1bc:	4c12      	ldr	r4, [pc, #72]	; (1000f208 <gapm_resolv_addr_cmd_handler+0x50>)
1000f1be:	1c17      	adds	r7, r2, #0
1000f1c0:	7023      	strb	r3, [r4, #0]
1000f1c2:	3b07      	subs	r3, #7
1000f1c4:	7063      	strb	r3, [r4, #1]
1000f1c6:	70a3      	strb	r3, [r4, #2]
1000f1c8:	2300      	movs	r3, #0
1000f1ca:	70e3      	strb	r3, [r4, #3]
1000f1cc:	4b0f      	ldr	r3, [pc, #60]	; (1000f20c <gapm_resolv_addr_cmd_handler+0x54>)
1000f1ce:	1c05      	adds	r5, r0, #0
1000f1d0:	881a      	ldrh	r2, [r3, #0]
1000f1d2:	881b      	ldrh	r3, [r3, #0]
1000f1d4:	4e0e      	ldr	r6, [pc, #56]	; (1000f210 <gapm_resolv_addr_cmd_handler+0x58>)
1000f1d6:	0a1b      	lsrs	r3, r3, #8
1000f1d8:	7163      	strb	r3, [r4, #5]
1000f1da:	2317      	movs	r3, #23
1000f1dc:	012d      	lsls	r5, r5, #4
1000f1de:	7122      	strb	r2, [r4, #4]
1000f1e0:	7260      	strb	r0, [r4, #9]
1000f1e2:	2206      	movs	r2, #6
1000f1e4:	480b      	ldr	r0, [pc, #44]	; (1000f214 <gapm_resolv_addr_cmd_handler+0x5c>)
1000f1e6:	7223      	strb	r3, [r4, #8]
1000f1e8:	47b0      	blx	r6
1000f1ea:	1c39      	adds	r1, r7, #0
1000f1ec:	1c2a      	adds	r2, r5, #0
1000f1ee:	480a      	ldr	r0, [pc, #40]	; (1000f218 <gapm_resolv_addr_cmd_handler+0x60>)
1000f1f0:	47b0      	blx	r6
1000f1f2:	1c29      	adds	r1, r5, #0
1000f1f4:	3110      	adds	r1, #16
1000f1f6:	1c0b      	adds	r3, r1, #0
1000f1f8:	3b08      	subs	r3, #8
1000f1fa:	71a3      	strb	r3, [r4, #6]
1000f1fc:	121b      	asrs	r3, r3, #8
1000f1fe:	71e3      	strb	r3, [r4, #7]
1000f200:	1c20      	adds	r0, r4, #0
1000f202:	4b06      	ldr	r3, [pc, #24]	; (1000f21c <gapm_resolv_addr_cmd_handler+0x64>)
1000f204:	4798      	blx	r3
1000f206:	bdf8      	pop	{r3, r4, r5, r6, r7, pc}
1000f208:	10014ad0 	.word	0x10014ad0
1000f20c:	10014760 	.word	0x10014760
1000f210:	10010b37 	.word	0x10010b37
1000f214:	10014ada 	.word	0x10014ada
1000f218:	10014ae0 	.word	0x10014ae0
1000f21c:	1000dff5 	.word	0x1000dff5

1000f220 <gapm_addr_solved_ind_handler>:
1000f220:	b570      	push	{r4, r5, r6, lr}
1000f222:	1c04      	adds	r4, r0, #0
1000f224:	1c08      	adds	r0, r1, #0
1000f226:	1c0d      	adds	r5, r1, #0
1000f228:	4e05      	ldr	r6, [pc, #20]	; (1000f240 <gapm_addr_solved_ind_handler+0x20>)
1000f22a:	1c21      	adds	r1, r4, #0
1000f22c:	2206      	movs	r2, #6
1000f22e:	3011      	adds	r0, #17
1000f230:	47b0      	blx	r6
1000f232:	1c68      	adds	r0, r5, #1
1000f234:	1da1      	adds	r1, r4, #6
1000f236:	2210      	movs	r2, #16
1000f238:	47b0      	blx	r6
1000f23a:	2300      	movs	r3, #0
1000f23c:	702b      	strb	r3, [r5, #0]
1000f23e:	bd70      	pop	{r4, r5, r6, pc}
1000f240:	10010b37 	.word	0x10010b37

1000f244 <gapm_profile_added_ind_handler>:
1000f244:	b510      	push	{r4, lr}
1000f246:	7843      	ldrb	r3, [r0, #1]
1000f248:	7902      	ldrb	r2, [r0, #4]
1000f24a:	7944      	ldrb	r4, [r0, #5]
1000f24c:	7800      	ldrb	r0, [r0, #0]
1000f24e:	021b      	lsls	r3, r3, #8
1000f250:	4303      	orrs	r3, r0
1000f252:	2b1b      	cmp	r3, #27
1000f254:	d104      	bne.n	1000f260 <gapm_profile_added_ind_handler+0x1c>
1000f256:	2300      	movs	r3, #0
1000f258:	700b      	strb	r3, [r1, #0]
1000f25a:	0223      	lsls	r3, r4, #8
1000f25c:	4313      	orrs	r3, r2
1000f25e:	804b      	strh	r3, [r1, #2]
1000f260:	203b      	movs	r0, #59	; 0x3b
1000f262:	bd10      	pop	{r4, pc}

1000f264 <gattc_read_req_ind_parser>:
1000f264:	7843      	ldrb	r3, [r0, #1]
1000f266:	7802      	ldrb	r2, [r0, #0]
1000f268:	021b      	lsls	r3, r3, #8
1000f26a:	4313      	orrs	r3, r2
1000f26c:	804b      	strh	r3, [r1, #2]
1000f26e:	4770      	bx	lr

1000f270 <gattc_write_req_ind_parser>:
1000f270:	b508      	push	{r3, lr}
1000f272:	1c13      	adds	r3, r2, #0
1000f274:	0a00      	lsrs	r0, r0, #8
1000f276:	8010      	strh	r0, [r2, #0]
1000f278:	784a      	ldrb	r2, [r1, #1]
1000f27a:	7808      	ldrb	r0, [r1, #0]
1000f27c:	0212      	lsls	r2, r2, #8
1000f27e:	4302      	orrs	r2, r0
1000f280:	805a      	strh	r2, [r3, #2]
1000f282:	78ca      	ldrb	r2, [r1, #3]
1000f284:	7888      	ldrb	r0, [r1, #2]
1000f286:	0212      	lsls	r2, r2, #8
1000f288:	4302      	orrs	r2, r0
1000f28a:	809a      	strh	r2, [r3, #4]
1000f28c:	794a      	ldrb	r2, [r1, #5]
1000f28e:	7908      	ldrb	r0, [r1, #4]
1000f290:	0212      	lsls	r2, r2, #8
1000f292:	4302      	orrs	r2, r0
1000f294:	80da      	strh	r2, [r3, #6]
1000f296:	3308      	adds	r3, #8
1000f298:	1c18      	adds	r0, r3, #0
1000f29a:	3106      	adds	r1, #6
1000f29c:	4b01      	ldr	r3, [pc, #4]	; (1000f2a4 <gattc_write_req_ind_parser+0x34>)
1000f29e:	4798      	blx	r3
1000f2a0:	bd08      	pop	{r3, pc}
1000f2a2:	46c0      	nop			; (mov r8, r8)
1000f2a4:	10010b37 	.word	0x10010b37

1000f2a8 <gattc_att_info_req_parser>:
1000f2a8:	7843      	ldrb	r3, [r0, #1]
1000f2aa:	7802      	ldrb	r2, [r0, #0]
1000f2ac:	021b      	lsls	r3, r3, #8
1000f2ae:	4313      	orrs	r3, r2
1000f2b0:	800b      	strh	r3, [r1, #0]
1000f2b2:	4770      	bx	lr

1000f2b4 <gattc_read_cfm>:
1000f2b4:	b538      	push	{r3, r4, r5, lr}
1000f2b6:	2514      	movs	r5, #20
1000f2b8:	1c1c      	adds	r4, r3, #0
1000f2ba:	4b14      	ldr	r3, [pc, #80]	; (1000f30c <gattc_read_cfm+0x58>)
1000f2bc:	70d9      	strb	r1, [r3, #3]
1000f2be:	4914      	ldr	r1, [pc, #80]	; (1000f310 <gattc_read_cfm+0x5c>)
1000f2c0:	701d      	strb	r5, [r3, #0]
1000f2c2:	3d08      	subs	r5, #8
1000f2c4:	705d      	strb	r5, [r3, #1]
1000f2c6:	709d      	strb	r5, [r3, #2]
1000f2c8:	880d      	ldrh	r5, [r1, #0]
1000f2ca:	8809      	ldrh	r1, [r1, #0]
1000f2cc:	7218      	strb	r0, [r3, #8]
1000f2ce:	0a09      	lsrs	r1, r1, #8
1000f2d0:	7159      	strb	r1, [r3, #5]
1000f2d2:	0a00      	lsrs	r0, r0, #8
1000f2d4:	0a21      	lsrs	r1, r4, #8
1000f2d6:	711d      	strb	r5, [r3, #4]
1000f2d8:	7258      	strb	r0, [r3, #9]
1000f2da:	729c      	strb	r4, [r3, #10]
1000f2dc:	72d9      	strb	r1, [r3, #11]
1000f2de:	731a      	strb	r2, [r3, #12]
1000f2e0:	1c1d      	adds	r5, r3, #0
1000f2e2:	2c00      	cmp	r4, #0
1000f2e4:	d007      	beq.n	1000f2f6 <gattc_read_cfm+0x42>
1000f2e6:	9904      	ldr	r1, [sp, #16]
1000f2e8:	1c22      	adds	r2, r4, #0
1000f2ea:	480a      	ldr	r0, [pc, #40]	; (1000f314 <gattc_read_cfm+0x60>)
1000f2ec:	4b0a      	ldr	r3, [pc, #40]	; (1000f318 <gattc_read_cfm+0x64>)
1000f2ee:	340d      	adds	r4, #13
1000f2f0:	4798      	blx	r3
1000f2f2:	b2a1      	uxth	r1, r4
1000f2f4:	e001      	b.n	1000f2fa <gattc_read_cfm+0x46>
1000f2f6:	210e      	movs	r1, #14
1000f2f8:	735c      	strb	r4, [r3, #13]
1000f2fa:	1c0b      	adds	r3, r1, #0
1000f2fc:	3b08      	subs	r3, #8
1000f2fe:	71ab      	strb	r3, [r5, #6]
1000f300:	121b      	asrs	r3, r3, #8
1000f302:	71eb      	strb	r3, [r5, #7]
1000f304:	1c28      	adds	r0, r5, #0
1000f306:	4b05      	ldr	r3, [pc, #20]	; (1000f31c <gattc_read_cfm+0x68>)
1000f308:	4798      	blx	r3
1000f30a:	bd38      	pop	{r3, r4, r5, pc}
1000f30c:	10014ad0 	.word	0x10014ad0
1000f310:	10014760 	.word	0x10014760
1000f314:	10014add 	.word	0x10014add
1000f318:	10010b37 	.word	0x10010b37
1000f31c:	1000dff5 	.word	0x1000dff5

1000f320 <gattc_write_cfm>:
1000f320:	4b0d      	ldr	r3, [pc, #52]	; (1000f358 <gattc_write_cfm+0x38>)
1000f322:	b510      	push	{r4, lr}
1000f324:	729a      	strb	r2, [r3, #10]
1000f326:	2203      	movs	r2, #3
1000f328:	2416      	movs	r4, #22
1000f32a:	719a      	strb	r2, [r3, #6]
1000f32c:	2200      	movs	r2, #0
1000f32e:	70d9      	strb	r1, [r3, #3]
1000f330:	490a      	ldr	r1, [pc, #40]	; (1000f35c <gattc_write_cfm+0x3c>)
1000f332:	701c      	strb	r4, [r3, #0]
1000f334:	3c0a      	subs	r4, #10
1000f336:	705c      	strb	r4, [r3, #1]
1000f338:	709c      	strb	r4, [r3, #2]
1000f33a:	880c      	ldrh	r4, [r1, #0]
1000f33c:	8809      	ldrh	r1, [r1, #0]
1000f33e:	7218      	strb	r0, [r3, #8]
1000f340:	0a09      	lsrs	r1, r1, #8
1000f342:	0a00      	lsrs	r0, r0, #8
1000f344:	711c      	strb	r4, [r3, #4]
1000f346:	7159      	strb	r1, [r3, #5]
1000f348:	7258      	strb	r0, [r3, #9]
1000f34a:	71da      	strb	r2, [r3, #7]
1000f34c:	1c18      	adds	r0, r3, #0
1000f34e:	210b      	movs	r1, #11
1000f350:	4b03      	ldr	r3, [pc, #12]	; (1000f360 <gattc_write_cfm+0x40>)
1000f352:	4798      	blx	r3
1000f354:	bd10      	pop	{r4, pc}
1000f356:	46c0      	nop			; (mov r8, r8)
1000f358:	10014ad0 	.word	0x10014ad0
1000f35c:	10014760 	.word	0x10014760
1000f360:	1000dff5 	.word	0x1000dff5

1000f364 <gattc_att_info_cfm>:
1000f364:	b538      	push	{r3, r4, r5, lr}
1000f366:	4c0e      	ldr	r4, [pc, #56]	; (1000f3a0 <gattc_att_info_cfm+0x3c>)
1000f368:	2518      	movs	r5, #24
1000f36a:	7323      	strb	r3, [r4, #12]
1000f36c:	2305      	movs	r3, #5
1000f36e:	71a3      	strb	r3, [r4, #6]
1000f370:	2300      	movs	r3, #0
1000f372:	70e1      	strb	r1, [r4, #3]
1000f374:	490b      	ldr	r1, [pc, #44]	; (1000f3a4 <gattc_att_info_cfm+0x40>)
1000f376:	7025      	strb	r5, [r4, #0]
1000f378:	3d0c      	subs	r5, #12
1000f37a:	7065      	strb	r5, [r4, #1]
1000f37c:	70a5      	strb	r5, [r4, #2]
1000f37e:	880d      	ldrh	r5, [r1, #0]
1000f380:	8809      	ldrh	r1, [r1, #0]
1000f382:	7220      	strb	r0, [r4, #8]
1000f384:	0a09      	lsrs	r1, r1, #8
1000f386:	0a00      	lsrs	r0, r0, #8
1000f388:	7161      	strb	r1, [r4, #5]
1000f38a:	7260      	strb	r0, [r4, #9]
1000f38c:	72a2      	strb	r2, [r4, #10]
1000f38e:	71e3      	strb	r3, [r4, #7]
1000f390:	0a12      	lsrs	r2, r2, #8
1000f392:	1c20      	adds	r0, r4, #0
1000f394:	210d      	movs	r1, #13
1000f396:	4b04      	ldr	r3, [pc, #16]	; (1000f3a8 <gattc_att_info_cfm+0x44>)
1000f398:	7125      	strb	r5, [r4, #4]
1000f39a:	72e2      	strb	r2, [r4, #11]
1000f39c:	4798      	blx	r3
1000f39e:	bd38      	pop	{r3, r4, r5, pc}
1000f3a0:	10014ad0 	.word	0x10014ad0
1000f3a4:	10014760 	.word	0x10014760
1000f3a8:	1000dff5 	.word	0x1000dff5

1000f3ac <gattc_send_evt_cmd_handler>:
1000f3ac:	b570      	push	{r4, r5, r6, lr}
1000f3ae:	2610      	movs	r6, #16
1000f3b0:	ac04      	add	r4, sp, #16
1000f3b2:	8825      	ldrh	r5, [r4, #0]
1000f3b4:	4c15      	ldr	r4, [pc, #84]	; (1000f40c <gattc_send_evt_cmd_handler+0x60>)
1000f3b6:	70e2      	strb	r2, [r4, #3]
1000f3b8:	4a15      	ldr	r2, [pc, #84]	; (1000f410 <gattc_send_evt_cmd_handler+0x64>)
1000f3ba:	7026      	strb	r6, [r4, #0]
1000f3bc:	3e04      	subs	r6, #4
1000f3be:	7066      	strb	r6, [r4, #1]
1000f3c0:	70a6      	strb	r6, [r4, #2]
1000f3c2:	8816      	ldrh	r6, [r2, #0]
1000f3c4:	8812      	ldrh	r2, [r2, #0]
1000f3c6:	7220      	strb	r0, [r4, #8]
1000f3c8:	0a12      	lsrs	r2, r2, #8
1000f3ca:	7162      	strb	r2, [r4, #5]
1000f3cc:	4a11      	ldr	r2, [pc, #68]	; (1000f414 <gattc_send_evt_cmd_handler+0x68>)
1000f3ce:	7321      	strb	r1, [r4, #12]
1000f3d0:	8812      	ldrh	r2, [r2, #0]
1000f3d2:	73a5      	strb	r5, [r4, #14]
1000f3d4:	3201      	adds	r2, #1
1000f3d6:	7262      	strb	r2, [r4, #9]
1000f3d8:	1212      	asrs	r2, r2, #8
1000f3da:	72a2      	strb	r2, [r4, #10]
1000f3dc:	2200      	movs	r2, #0
1000f3de:	72e2      	strb	r2, [r4, #11]
1000f3e0:	0a0a      	lsrs	r2, r1, #8
1000f3e2:	7362      	strb	r2, [r4, #13]
1000f3e4:	0a2a      	lsrs	r2, r5, #8
1000f3e6:	73e2      	strb	r2, [r4, #15]
1000f3e8:	1c19      	adds	r1, r3, #0
1000f3ea:	1c2a      	adds	r2, r5, #0
1000f3ec:	4b0a      	ldr	r3, [pc, #40]	; (1000f418 <gattc_send_evt_cmd_handler+0x6c>)
1000f3ee:	3510      	adds	r5, #16
1000f3f0:	480a      	ldr	r0, [pc, #40]	; (1000f41c <gattc_send_evt_cmd_handler+0x70>)
1000f3f2:	7126      	strb	r6, [r4, #4]
1000f3f4:	4798      	blx	r3
1000f3f6:	b2a9      	uxth	r1, r5
1000f3f8:	1c0b      	adds	r3, r1, #0
1000f3fa:	3b08      	subs	r3, #8
1000f3fc:	71a3      	strb	r3, [r4, #6]
1000f3fe:	121b      	asrs	r3, r3, #8
1000f400:	71e3      	strb	r3, [r4, #7]
1000f402:	1c20      	adds	r0, r4, #0
1000f404:	4b06      	ldr	r3, [pc, #24]	; (1000f420 <gattc_send_evt_cmd_handler+0x74>)
1000f406:	4798      	blx	r3
1000f408:	bd70      	pop	{r4, r5, r6, pc}
1000f40a:	46c0      	nop			; (mov r8, r8)
1000f40c:	10014ad0 	.word	0x10014ad0
1000f410:	10014760 	.word	0x10014760
1000f414:	100139b4 	.word	0x100139b4
1000f418:	10010b37 	.word	0x10010b37
1000f41c:	10014ae0 	.word	0x10014ae0
1000f420:	1000dff5 	.word	0x1000dff5

1000f424 <gattc_event_cfm_handler>:
1000f424:	220e      	movs	r2, #14
1000f426:	b508      	push	{r3, lr}
1000f428:	4b0b      	ldr	r3, [pc, #44]	; (1000f458 <gattc_event_cfm_handler+0x34>)
1000f42a:	701a      	strb	r2, [r3, #0]
1000f42c:	3a02      	subs	r2, #2
1000f42e:	705a      	strb	r2, [r3, #1]
1000f430:	709a      	strb	r2, [r3, #2]
1000f432:	4a0a      	ldr	r2, [pc, #40]	; (1000f45c <gattc_event_cfm_handler+0x38>)
1000f434:	70d8      	strb	r0, [r3, #3]
1000f436:	8810      	ldrh	r0, [r2, #0]
1000f438:	8812      	ldrh	r2, [r2, #0]
1000f43a:	7219      	strb	r1, [r3, #8]
1000f43c:	0a12      	lsrs	r2, r2, #8
1000f43e:	715a      	strb	r2, [r3, #5]
1000f440:	2202      	movs	r2, #2
1000f442:	719a      	strb	r2, [r3, #6]
1000f444:	2200      	movs	r2, #0
1000f446:	0a09      	lsrs	r1, r1, #8
1000f448:	7118      	strb	r0, [r3, #4]
1000f44a:	7259      	strb	r1, [r3, #9]
1000f44c:	71da      	strb	r2, [r3, #7]
1000f44e:	1c18      	adds	r0, r3, #0
1000f450:	210a      	movs	r1, #10
1000f452:	4b03      	ldr	r3, [pc, #12]	; (1000f460 <gattc_event_cfm_handler+0x3c>)
1000f454:	4798      	blx	r3
1000f456:	bd08      	pop	{r3, pc}
1000f458:	10014ad0 	.word	0x10014ad0
1000f45c:	10014760 	.word	0x10014760
1000f460:	1000dff5 	.word	0x1000dff5

1000f464 <gattc_disc_svc_ind_parser>:
1000f464:	b570      	push	{r4, r5, r6, lr}
1000f466:	1c15      	adds	r5, r2, #0
1000f468:	0a00      	lsrs	r0, r0, #8
1000f46a:	8010      	strh	r0, [r2, #0]
1000f46c:	784b      	ldrb	r3, [r1, #1]
1000f46e:	780a      	ldrb	r2, [r1, #0]
1000f470:	021b      	lsls	r3, r3, #8
1000f472:	4313      	orrs	r3, r2
1000f474:	806b      	strh	r3, [r5, #2]
1000f476:	78cb      	ldrb	r3, [r1, #3]
1000f478:	788a      	ldrb	r2, [r1, #2]
1000f47a:	021b      	lsls	r3, r3, #8
1000f47c:	4313      	orrs	r3, r2
1000f47e:	80ab      	strh	r3, [r5, #4]
1000f480:	790e      	ldrb	r6, [r1, #4]
1000f482:	4b05      	ldr	r3, [pc, #20]	; (1000f498 <gattc_disc_svc_ind_parser+0x34>)
1000f484:	1c30      	adds	r0, r6, #0
1000f486:	1c0c      	adds	r4, r1, #0
1000f488:	4798      	blx	r3
1000f48a:	1c32      	adds	r2, r6, #0
1000f48c:	71a8      	strb	r0, [r5, #6]
1000f48e:	1d61      	adds	r1, r4, #5
1000f490:	1de8      	adds	r0, r5, #7
1000f492:	4b02      	ldr	r3, [pc, #8]	; (1000f49c <gattc_disc_svc_ind_parser+0x38>)
1000f494:	4798      	blx	r3
1000f496:	bd70      	pop	{r4, r5, r6, pc}
1000f498:	1000d335 	.word	0x1000d335
1000f49c:	10010b37 	.word	0x10010b37

1000f4a0 <gattc_disc_svc_incl_ind_parser>:
1000f4a0:	b570      	push	{r4, r5, r6, lr}
1000f4a2:	1c15      	adds	r5, r2, #0
1000f4a4:	0a00      	lsrs	r0, r0, #8
1000f4a6:	8010      	strh	r0, [r2, #0]
1000f4a8:	784b      	ldrb	r3, [r1, #1]
1000f4aa:	780a      	ldrb	r2, [r1, #0]
1000f4ac:	021b      	lsls	r3, r3, #8
1000f4ae:	4313      	orrs	r3, r2
1000f4b0:	806b      	strh	r3, [r5, #2]
1000f4b2:	78cb      	ldrb	r3, [r1, #3]
1000f4b4:	788a      	ldrb	r2, [r1, #2]
1000f4b6:	021b      	lsls	r3, r3, #8
1000f4b8:	4313      	orrs	r3, r2
1000f4ba:	80ab      	strh	r3, [r5, #4]
1000f4bc:	794b      	ldrb	r3, [r1, #5]
1000f4be:	790a      	ldrb	r2, [r1, #4]
1000f4c0:	021b      	lsls	r3, r3, #8
1000f4c2:	4313      	orrs	r3, r2
1000f4c4:	80eb      	strh	r3, [r5, #6]
1000f4c6:	798e      	ldrb	r6, [r1, #6]
1000f4c8:	4b05      	ldr	r3, [pc, #20]	; (1000f4e0 <gattc_disc_svc_incl_ind_parser+0x40>)
1000f4ca:	1c30      	adds	r0, r6, #0
1000f4cc:	1c0c      	adds	r4, r1, #0
1000f4ce:	4798      	blx	r3
1000f4d0:	7228      	strb	r0, [r5, #8]
1000f4d2:	1c28      	adds	r0, r5, #0
1000f4d4:	1c32      	adds	r2, r6, #0
1000f4d6:	1de1      	adds	r1, r4, #7
1000f4d8:	4b02      	ldr	r3, [pc, #8]	; (1000f4e4 <gattc_disc_svc_incl_ind_parser+0x44>)
1000f4da:	3009      	adds	r0, #9
1000f4dc:	4798      	blx	r3
1000f4de:	bd70      	pop	{r4, r5, r6, pc}
1000f4e0:	1000d335 	.word	0x1000d335
1000f4e4:	10010b37 	.word	0x10010b37

1000f4e8 <gattc_disc_char_ind_parser>:
1000f4e8:	b570      	push	{r4, r5, r6, lr}
1000f4ea:	1c15      	adds	r5, r2, #0
1000f4ec:	0a00      	lsrs	r0, r0, #8
1000f4ee:	8010      	strh	r0, [r2, #0]
1000f4f0:	784b      	ldrb	r3, [r1, #1]
1000f4f2:	780a      	ldrb	r2, [r1, #0]
1000f4f4:	021b      	lsls	r3, r3, #8
1000f4f6:	4313      	orrs	r3, r2
1000f4f8:	806b      	strh	r3, [r5, #2]
1000f4fa:	78cb      	ldrb	r3, [r1, #3]
1000f4fc:	788a      	ldrb	r2, [r1, #2]
1000f4fe:	021b      	lsls	r3, r3, #8
1000f500:	4313      	orrs	r3, r2
1000f502:	80ab      	strh	r3, [r5, #4]
1000f504:	790b      	ldrb	r3, [r1, #4]
1000f506:	1c0c      	adds	r4, r1, #0
1000f508:	71ab      	strb	r3, [r5, #6]
1000f50a:	794e      	ldrb	r6, [r1, #5]
1000f50c:	4b05      	ldr	r3, [pc, #20]	; (1000f524 <gattc_disc_char_ind_parser+0x3c>)
1000f50e:	1c30      	adds	r0, r6, #0
1000f510:	4798      	blx	r3
1000f512:	71e8      	strb	r0, [r5, #7]
1000f514:	1c28      	adds	r0, r5, #0
1000f516:	1c32      	adds	r2, r6, #0
1000f518:	1da1      	adds	r1, r4, #6
1000f51a:	4b03      	ldr	r3, [pc, #12]	; (1000f528 <gattc_disc_char_ind_parser+0x40>)
1000f51c:	3008      	adds	r0, #8
1000f51e:	4798      	blx	r3
1000f520:	bd70      	pop	{r4, r5, r6, pc}
1000f522:	46c0      	nop			; (mov r8, r8)
1000f524:	1000d335 	.word	0x1000d335
1000f528:	10010b37 	.word	0x10010b37

1000f52c <gattc_disc_char_desc_ind_parser>:
1000f52c:	b570      	push	{r4, r5, r6, lr}
1000f52e:	1c15      	adds	r5, r2, #0
1000f530:	0a00      	lsrs	r0, r0, #8
1000f532:	8010      	strh	r0, [r2, #0]
1000f534:	784b      	ldrb	r3, [r1, #1]
1000f536:	780a      	ldrb	r2, [r1, #0]
1000f538:	021b      	lsls	r3, r3, #8
1000f53a:	4313      	orrs	r3, r2
1000f53c:	806b      	strh	r3, [r5, #2]
1000f53e:	788e      	ldrb	r6, [r1, #2]
1000f540:	4b05      	ldr	r3, [pc, #20]	; (1000f558 <gattc_disc_char_desc_ind_parser+0x2c>)
1000f542:	1c30      	adds	r0, r6, #0
1000f544:	1c0c      	adds	r4, r1, #0
1000f546:	4798      	blx	r3
1000f548:	1c32      	adds	r2, r6, #0
1000f54a:	7128      	strb	r0, [r5, #4]
1000f54c:	1ce1      	adds	r1, r4, #3
1000f54e:	1d68      	adds	r0, r5, #5
1000f550:	4b02      	ldr	r3, [pc, #8]	; (1000f55c <gattc_disc_char_desc_ind_parser+0x30>)
1000f552:	4798      	blx	r3
1000f554:	bd70      	pop	{r4, r5, r6, pc}
1000f556:	46c0      	nop			; (mov r8, r8)
1000f558:	1000d335 	.word	0x1000d335
1000f55c:	10010b37 	.word	0x10010b37

1000f560 <gattc_event_ind_and_notification_parser>:
1000f560:	b510      	push	{r4, lr}
1000f562:	780c      	ldrb	r4, [r1, #0]
1000f564:	1c13      	adds	r3, r2, #0
1000f566:	2c12      	cmp	r4, #18
1000f568:	d10e      	bne.n	1000f588 <gattc_event_ind_and_notification_parser+0x28>
1000f56a:	0a00      	lsrs	r0, r0, #8
1000f56c:	8010      	strh	r0, [r2, #0]
1000f56e:	788a      	ldrb	r2, [r1, #2]
1000f570:	709a      	strb	r2, [r3, #2]
1000f572:	7948      	ldrb	r0, [r1, #5]
1000f574:	790c      	ldrb	r4, [r1, #4]
1000f576:	0200      	lsls	r0, r0, #8
1000f578:	4320      	orrs	r0, r4
1000f57a:	8098      	strh	r0, [r3, #4]
1000f57c:	3106      	adds	r1, #6
1000f57e:	1d98      	adds	r0, r3, #6
1000f580:	4b0b      	ldr	r3, [pc, #44]	; (1000f5b0 <gattc_event_ind_and_notification_parser+0x50>)
1000f582:	4798      	blx	r3
1000f584:	221b      	movs	r2, #27
1000f586:	e010      	b.n	1000f5aa <gattc_event_ind_and_notification_parser+0x4a>
1000f588:	2200      	movs	r2, #0
1000f58a:	2c13      	cmp	r4, #19
1000f58c:	d10d      	bne.n	1000f5aa <gattc_event_ind_and_notification_parser+0x4a>
1000f58e:	0a00      	lsrs	r0, r0, #8
1000f590:	8018      	strh	r0, [r3, #0]
1000f592:	788a      	ldrb	r2, [r1, #2]
1000f594:	709a      	strb	r2, [r3, #2]
1000f596:	7908      	ldrb	r0, [r1, #4]
1000f598:	78cc      	ldrb	r4, [r1, #3]
1000f59a:	0200      	lsls	r0, r0, #8
1000f59c:	4320      	orrs	r0, r4
1000f59e:	8098      	strh	r0, [r3, #4]
1000f5a0:	3106      	adds	r1, #6
1000f5a2:	1d98      	adds	r0, r3, #6
1000f5a4:	4b02      	ldr	r3, [pc, #8]	; (1000f5b0 <gattc_event_ind_and_notification_parser+0x50>)
1000f5a6:	4798      	blx	r3
1000f5a8:	221c      	movs	r2, #28
1000f5aa:	1c10      	adds	r0, r2, #0
1000f5ac:	bd10      	pop	{r4, pc}
1000f5ae:	46c0      	nop			; (mov r8, r8)
1000f5b0:	10010b37 	.word	0x10010b37

1000f5b4 <gattc_complete_evt_handler>:
1000f5b4:	b500      	push	{lr}
1000f5b6:	0a00      	lsrs	r0, r0, #8
1000f5b8:	8010      	strh	r0, [r2, #0]
1000f5ba:	7808      	ldrb	r0, [r1, #0]
1000f5bc:	7090      	strb	r0, [r2, #2]
1000f5be:	784b      	ldrb	r3, [r1, #1]
1000f5c0:	3801      	subs	r0, #1
1000f5c2:	70d3      	strb	r3, [r2, #3]
1000f5c4:	2813      	cmp	r0, #19
1000f5c6:	d82c      	bhi.n	1000f622 <gattc_complete_evt_handler+0x6e>
1000f5c8:	f000 f9dc 	bl	1000f984 <__gnu_thumb1_case_uqi>
1000f5cc:	0a0a0a0c 	.word	0x0a0a0a0c
1000f5d0:	210a0a0a 	.word	0x210a0a0a
1000f5d4:	111f2121 	.word	0x111f2121
1000f5d8:	2b111111 	.word	0x2b111111
1000f5dc:	2919132b 	.word	0x2919132b
1000f5e0:	2017      	movs	r0, #23
1000f5e2:	e01f      	b.n	1000f624 <gattc_complete_evt_handler+0x70>
1000f5e4:	2024      	movs	r0, #36	; 0x24
1000f5e6:	2b00      	cmp	r3, #0
1000f5e8:	d11c      	bne.n	1000f624 <gattc_complete_evt_handler+0x70>
1000f5ea:	3017      	adds	r0, #23
1000f5ec:	e01a      	b.n	1000f624 <gattc_complete_evt_handler+0x70>
1000f5ee:	2025      	movs	r0, #37	; 0x25
1000f5f0:	e018      	b.n	1000f624 <gattc_complete_evt_handler+0x70>
1000f5f2:	4a0d      	ldr	r2, [pc, #52]	; (1000f628 <gattc_complete_evt_handler+0x74>)
1000f5f4:	201d      	movs	r0, #29
1000f5f6:	6813      	ldr	r3, [r2, #0]
1000f5f8:	3b01      	subs	r3, #1
1000f5fa:	6013      	str	r3, [r2, #0]
1000f5fc:	e012      	b.n	1000f624 <gattc_complete_evt_handler+0x70>
1000f5fe:	4a0a      	ldr	r2, [pc, #40]	; (1000f628 <gattc_complete_evt_handler+0x74>)
1000f600:	201e      	movs	r0, #30
1000f602:	6813      	ldr	r3, [r2, #0]
1000f604:	3b01      	subs	r3, #1
1000f606:	6013      	str	r3, [r2, #0]
1000f608:	e00c      	b.n	1000f624 <gattc_complete_evt_handler+0x70>
1000f60a:	2019      	movs	r0, #25
1000f60c:	e00a      	b.n	1000f624 <gattc_complete_evt_handler+0x70>
1000f60e:	203b      	movs	r0, #59	; 0x3b
1000f610:	2b00      	cmp	r3, #0
1000f612:	d007      	beq.n	1000f624 <gattc_complete_evt_handler+0x70>
1000f614:	2182      	movs	r1, #130	; 0x82
1000f616:	0089      	lsls	r1, r1, #2
1000f618:	5453      	strb	r3, [r2, r1]
1000f61a:	3823      	subs	r0, #35	; 0x23
1000f61c:	e002      	b.n	1000f624 <gattc_complete_evt_handler+0x70>
1000f61e:	2021      	movs	r0, #33	; 0x21
1000f620:	e000      	b.n	1000f624 <gattc_complete_evt_handler+0x70>
1000f622:	2000      	movs	r0, #0
1000f624:	bd00      	pop	{pc}
1000f626:	46c0      	nop			; (mov r8, r8)
1000f628:	100139b8 	.word	0x100139b8

1000f62c <gattc_event_mtu_changed_ind_parser>:
1000f62c:	0a00      	lsrs	r0, r0, #8
1000f62e:	8010      	strh	r0, [r2, #0]
1000f630:	784b      	ldrb	r3, [r1, #1]
1000f632:	7809      	ldrb	r1, [r1, #0]
1000f634:	021b      	lsls	r3, r3, #8
1000f636:	430b      	orrs	r3, r1
1000f638:	8053      	strh	r3, [r2, #2]
1000f63a:	4770      	bx	lr

1000f63c <gattc_read_ind_parser>:
1000f63c:	0a00      	lsrs	r0, r0, #8
1000f63e:	b508      	push	{r3, lr}
1000f640:	8010      	strh	r0, [r2, #0]
1000f642:	1c13      	adds	r3, r2, #0
1000f644:	2282      	movs	r2, #130	; 0x82
1000f646:	2000      	movs	r0, #0
1000f648:	0092      	lsls	r2, r2, #2
1000f64a:	5498      	strb	r0, [r3, r2]
1000f64c:	784a      	ldrb	r2, [r1, #1]
1000f64e:	7808      	ldrb	r0, [r1, #0]
1000f650:	0212      	lsls	r2, r2, #8
1000f652:	4302      	orrs	r2, r0
1000f654:	805a      	strh	r2, [r3, #2]
1000f656:	78ca      	ldrb	r2, [r1, #3]
1000f658:	7888      	ldrb	r0, [r1, #2]
1000f65a:	0212      	lsls	r2, r2, #8
1000f65c:	4302      	orrs	r2, r0
1000f65e:	80da      	strh	r2, [r3, #6]
1000f660:	794a      	ldrb	r2, [r1, #5]
1000f662:	7908      	ldrb	r0, [r1, #4]
1000f664:	0212      	lsls	r2, r2, #8
1000f666:	4302      	orrs	r2, r0
1000f668:	809a      	strh	r2, [r3, #4]
1000f66a:	3308      	adds	r3, #8
1000f66c:	1c18      	adds	r0, r3, #0
1000f66e:	3106      	adds	r1, #6
1000f670:	4b01      	ldr	r3, [pc, #4]	; (1000f678 <gattc_read_ind_parser+0x3c>)
1000f672:	4798      	blx	r3
1000f674:	bd08      	pop	{r3, pc}
1000f676:	46c0      	nop			; (mov r8, r8)
1000f678:	10010b37 	.word	0x10010b37

1000f67c <gattc_svc_changed_cfg_ind_parser>:
1000f67c:	0a00      	lsrs	r0, r0, #8
1000f67e:	8010      	strh	r0, [r2, #0]
1000f680:	784b      	ldrb	r3, [r1, #1]
1000f682:	7809      	ldrb	r1, [r1, #0]
1000f684:	021b      	lsls	r3, r3, #8
1000f686:	430b      	orrs	r3, r1
1000f688:	8053      	strh	r3, [r2, #2]
1000f68a:	4770      	bx	lr

1000f68c <init_gattc_task_module>:
1000f68c:	2300      	movs	r3, #0
1000f68e:	4a02      	ldr	r2, [pc, #8]	; (1000f698 <init_gattc_task_module+0xc>)
1000f690:	8013      	strh	r3, [r2, #0]
1000f692:	4a02      	ldr	r2, [pc, #8]	; (1000f69c <init_gattc_task_module+0x10>)
1000f694:	8013      	strh	r3, [r2, #0]
1000f696:	4770      	bx	lr
1000f698:	100139b2 	.word	0x100139b2
1000f69c:	100139b4 	.word	0x100139b4

1000f6a0 <gattm_add_svc_req_handler>:
1000f6a0:	2200      	movs	r2, #0
1000f6a2:	210b      	movs	r1, #11
1000f6a4:	b5f0      	push	{r4, r5, r6, r7, lr}
1000f6a6:	1c04      	adds	r4, r0, #0
1000f6a8:	7943      	ldrb	r3, [r0, #5]
1000f6aa:	b085      	sub	sp, #20
1000f6ac:	9301      	str	r3, [sp, #4]
1000f6ae:	ab02      	add	r3, sp, #8
1000f6b0:	71da      	strb	r2, [r3, #7]
1000f6b2:	4b37      	ldr	r3, [pc, #220]	; (1000f790 <gattm_add_svc_req_handler+0xf0>)
1000f6b4:	7059      	strb	r1, [r3, #1]
1000f6b6:	7099      	strb	r1, [r3, #2]
1000f6b8:	4936      	ldr	r1, [pc, #216]	; (1000f794 <gattm_add_svc_req_handler+0xf4>)
1000f6ba:	701a      	strb	r2, [r3, #0]
1000f6bc:	8808      	ldrh	r0, [r1, #0]
1000f6be:	8809      	ldrh	r1, [r1, #0]
1000f6c0:	70da      	strb	r2, [r3, #3]
1000f6c2:	0a09      	lsrs	r1, r1, #8
1000f6c4:	7118      	strb	r0, [r3, #4]
1000f6c6:	7159      	strb	r1, [r3, #5]
1000f6c8:	8821      	ldrh	r1, [r4, #0]
1000f6ca:	7219      	strb	r1, [r3, #8]
1000f6cc:	8821      	ldrh	r1, [r4, #0]
1000f6ce:	0a09      	lsrs	r1, r1, #8
1000f6d0:	7259      	strb	r1, [r3, #9]
1000f6d2:	8861      	ldrh	r1, [r4, #2]
1000f6d4:	7299      	strb	r1, [r3, #10]
1000f6d6:	8861      	ldrh	r1, [r4, #2]
1000f6d8:	0a09      	lsrs	r1, r1, #8
1000f6da:	72d9      	strb	r1, [r3, #11]
1000f6dc:	7921      	ldrb	r1, [r4, #4]
1000f6de:	7319      	strb	r1, [r3, #12]
1000f6e0:	4669      	mov	r1, sp
1000f6e2:	7909      	ldrb	r1, [r1, #4]
1000f6e4:	7359      	strb	r1, [r3, #13]
1000f6e6:	18a1      	adds	r1, r4, r2
1000f6e8:	7988      	ldrb	r0, [r1, #6]
1000f6ea:	1899      	adds	r1, r3, r2
1000f6ec:	3201      	adds	r2, #1
1000f6ee:	7388      	strb	r0, [r1, #14]
1000f6f0:	2a10      	cmp	r2, #16
1000f6f2:	d1f8      	bne.n	1000f6e6 <gattm_add_svc_req_handler+0x46>
1000f6f4:	1c27      	adds	r7, r4, #0
1000f6f6:	2300      	movs	r3, #0
1000f6f8:	251e      	movs	r5, #30
1000f6fa:	3716      	adds	r7, #22
1000f6fc:	9300      	str	r3, [sp, #0]
1000f6fe:	9b00      	ldr	r3, [sp, #0]
1000f700:	9a01      	ldr	r2, [sp, #4]
1000f702:	4e23      	ldr	r6, [pc, #140]	; (1000f790 <gattm_add_svc_req_handler+0xf0>)
1000f704:	4293      	cmp	r3, r2
1000f706:	da21      	bge.n	1000f74c <gattm_add_svc_req_handler+0xac>
1000f708:	1c39      	adds	r1, r7, #0
1000f70a:	1970      	adds	r0, r6, r5
1000f70c:	2210      	movs	r2, #16
1000f70e:	4b22      	ldr	r3, [pc, #136]	; (1000f798 <gattm_add_svc_req_handler+0xf8>)
1000f710:	4798      	blx	r3
1000f712:	1c2b      	adds	r3, r5, #0
1000f714:	8a3a      	ldrh	r2, [r7, #16]
1000f716:	3310      	adds	r3, #16
1000f718:	b29b      	uxth	r3, r3
1000f71a:	54f2      	strb	r2, [r6, r3]
1000f71c:	1c2b      	adds	r3, r5, #0
1000f71e:	8a3a      	ldrh	r2, [r7, #16]
1000f720:	3311      	adds	r3, #17
1000f722:	b29b      	uxth	r3, r3
1000f724:	0a12      	lsrs	r2, r2, #8
1000f726:	54f2      	strb	r2, [r6, r3]
1000f728:	1c2a      	adds	r2, r5, #0
1000f72a:	1c2b      	adds	r3, r5, #0
1000f72c:	8a79      	ldrh	r1, [r7, #18]
1000f72e:	3212      	adds	r2, #18
1000f730:	b292      	uxth	r2, r2
1000f732:	54b1      	strb	r1, [r6, r2]
1000f734:	8a7a      	ldrh	r2, [r7, #18]
1000f736:	3313      	adds	r3, #19
1000f738:	b29b      	uxth	r3, r3
1000f73a:	0a12      	lsrs	r2, r2, #8
1000f73c:	54f2      	strb	r2, [r6, r3]
1000f73e:	9b00      	ldr	r3, [sp, #0]
1000f740:	3514      	adds	r5, #20
1000f742:	3301      	adds	r3, #1
1000f744:	b2ad      	uxth	r5, r5
1000f746:	9300      	str	r3, [sp, #0]
1000f748:	3714      	adds	r7, #20
1000f74a:	e7d8      	b.n	1000f6fe <gattm_add_svc_req_handler+0x5e>
1000f74c:	2114      	movs	r1, #20
1000f74e:	4d13      	ldr	r5, [pc, #76]	; (1000f79c <gattm_add_svc_req_handler+0xfc>)
1000f750:	4b13      	ldr	r3, [pc, #76]	; (1000f7a0 <gattm_add_svc_req_handler+0x100>)
1000f752:	4351      	muls	r1, r2
1000f754:	802b      	strh	r3, [r5, #0]
1000f756:	230b      	movs	r3, #11
1000f758:	311e      	adds	r1, #30
1000f75a:	80ab      	strh	r3, [r5, #4]
1000f75c:	1c0b      	adds	r3, r1, #0
1000f75e:	3b08      	subs	r3, #8
1000f760:	71b3      	strb	r3, [r6, #6]
1000f762:	121b      	asrs	r3, r3, #8
1000f764:	71f3      	strb	r3, [r6, #7]
1000f766:	1c30      	adds	r0, r6, #0
1000f768:	4b0e      	ldr	r3, [pc, #56]	; (1000f7a4 <gattm_add_svc_req_handler+0x104>)
1000f76a:	4798      	blx	r3
1000f76c:	ab02      	add	r3, sp, #8
1000f76e:	1dde      	adds	r6, r3, #7
1000f770:	1c30      	adds	r0, r6, #0
1000f772:	4b0d      	ldr	r3, [pc, #52]	; (1000f7a8 <gattm_add_svc_req_handler+0x108>)
1000f774:	4798      	blx	r3
1000f776:	7833      	ldrb	r3, [r6, #0]
1000f778:	20e2      	movs	r0, #226	; 0xe2
1000f77a:	2b00      	cmp	r3, #0
1000f77c:	d106      	bne.n	1000f78c <gattm_add_svc_req_handler+0xec>
1000f77e:	68aa      	ldr	r2, [r5, #8]
1000f780:	7853      	ldrb	r3, [r2, #1]
1000f782:	7811      	ldrb	r1, [r2, #0]
1000f784:	021b      	lsls	r3, r3, #8
1000f786:	430b      	orrs	r3, r1
1000f788:	8023      	strh	r3, [r4, #0]
1000f78a:	7890      	ldrb	r0, [r2, #2]
1000f78c:	b005      	add	sp, #20
1000f78e:	bdf0      	pop	{r4, r5, r6, r7, pc}
1000f790:	10014ad0 	.word	0x10014ad0
1000f794:	10014760 	.word	0x10014760
1000f798:	10010b37 	.word	0x10010b37
1000f79c:	10014754 	.word	0x10014754
1000f7a0:	00000b01 	.word	0x00000b01
1000f7a4:	1000dff5 	.word	0x1000dff5
1000f7a8:	1000e059 	.word	0x1000e059

1000f7ac <gattm_add_attribute_req_handler>:
1000f7ac:	b5f7      	push	{r0, r1, r2, r4, r5, r6, r7, lr}
1000f7ae:	1c1f      	adds	r7, r3, #0
1000f7b0:	4b16      	ldr	r3, [pc, #88]	; (1000f80c <gattm_add_attribute_req_handler+0x60>)
1000f7b2:	9100      	str	r1, [sp, #0]
1000f7b4:	9201      	str	r2, [sp, #4]
1000f7b6:	1c05      	adds	r5, r0, #0
1000f7b8:	7946      	ldrb	r6, [r0, #5]
1000f7ba:	6818      	ldr	r0, [r3, #0]
1000f7bc:	2114      	movs	r1, #20
1000f7be:	4b14      	ldr	r3, [pc, #80]	; (1000f810 <gattm_add_attribute_req_handler+0x64>)
1000f7c0:	382a      	subs	r0, #42	; 0x2a
1000f7c2:	4798      	blx	r3
1000f7c4:	2311      	movs	r3, #17
1000f7c6:	4286      	cmp	r6, r0
1000f7c8:	d21e      	bcs.n	1000f808 <gattm_add_attribute_req_handler+0x5c>
1000f7ca:	2414      	movs	r4, #20
1000f7cc:	4366      	muls	r6, r4
1000f7ce:	19a8      	adds	r0, r5, r6
1000f7d0:	2100      	movs	r1, #0
1000f7d2:	2210      	movs	r2, #16
1000f7d4:	4b0f      	ldr	r3, [pc, #60]	; (1000f814 <gattm_add_attribute_req_handler+0x68>)
1000f7d6:	3016      	adds	r0, #22
1000f7d8:	4798      	blx	r3
1000f7da:	7968      	ldrb	r0, [r5, #5]
1000f7dc:	1c3a      	adds	r2, r7, #0
1000f7de:	4360      	muls	r0, r4
1000f7e0:	1828      	adds	r0, r5, r0
1000f7e2:	4b0d      	ldr	r3, [pc, #52]	; (1000f818 <gattm_add_attribute_req_handler+0x6c>)
1000f7e4:	3016      	adds	r0, #22
1000f7e6:	9908      	ldr	r1, [sp, #32]
1000f7e8:	4798      	blx	r3
1000f7ea:	466a      	mov	r2, sp
1000f7ec:	796b      	ldrb	r3, [r5, #5]
1000f7ee:	8812      	ldrh	r2, [r2, #0]
1000f7f0:	435c      	muls	r4, r3
1000f7f2:	192c      	adds	r4, r5, r4
1000f7f4:	8522      	strh	r2, [r4, #40]	; 0x28
1000f7f6:	466a      	mov	r2, sp
1000f7f8:	8892      	ldrh	r2, [r2, #4]
1000f7fa:	84e2      	strh	r2, [r4, #38]	; 0x26
1000f7fc:	9a09      	ldr	r2, [sp, #36]	; 0x24
1000f7fe:	8013      	strh	r3, [r2, #0]
1000f800:	796b      	ldrb	r3, [r5, #5]
1000f802:	3301      	adds	r3, #1
1000f804:	716b      	strb	r3, [r5, #5]
1000f806:	2300      	movs	r3, #0
1000f808:	1c18      	adds	r0, r3, #0
1000f80a:	bdfe      	pop	{r1, r2, r3, r4, r5, r6, r7, pc}
1000f80c:	10013928 	.word	0x10013928
1000f810:	1000f9ad 	.word	0x1000f9ad
1000f814:	10010b49 	.word	0x10010b49
1000f818:	10010b37 	.word	0x10010b37

1000f81c <gattm_att_set_value_req_handler>:
1000f81c:	b5f7      	push	{r0, r1, r2, r4, r5, r6, r7, lr}
1000f81e:	466b      	mov	r3, sp
1000f820:	1dde      	adds	r6, r3, #7
1000f822:	2300      	movs	r3, #0
1000f824:	1c0d      	adds	r5, r1, #0
1000f826:	210c      	movs	r1, #12
1000f828:	270b      	movs	r7, #11
1000f82a:	4c17      	ldr	r4, [pc, #92]	; (1000f888 <gattm_att_set_value_req_handler+0x6c>)
1000f82c:	7033      	strb	r3, [r6, #0]
1000f82e:	70e3      	strb	r3, [r4, #3]
1000f830:	4b16      	ldr	r3, [pc, #88]	; (1000f88c <gattm_att_set_value_req_handler+0x70>)
1000f832:	7021      	strb	r1, [r4, #0]
1000f834:	8819      	ldrh	r1, [r3, #0]
1000f836:	881b      	ldrh	r3, [r3, #0]
1000f838:	7220      	strb	r0, [r4, #8]
1000f83a:	0a1b      	lsrs	r3, r3, #8
1000f83c:	7163      	strb	r3, [r4, #5]
1000f83e:	0a00      	lsrs	r0, r0, #8
1000f840:	0a2b      	lsrs	r3, r5, #8
1000f842:	7121      	strb	r1, [r4, #4]
1000f844:	7260      	strb	r0, [r4, #9]
1000f846:	1c11      	adds	r1, r2, #0
1000f848:	72a5      	strb	r5, [r4, #10]
1000f84a:	1c2a      	adds	r2, r5, #0
1000f84c:	72e3      	strb	r3, [r4, #11]
1000f84e:	350c      	adds	r5, #12
1000f850:	4b0f      	ldr	r3, [pc, #60]	; (1000f890 <gattm_att_set_value_req_handler+0x74>)
1000f852:	4810      	ldr	r0, [pc, #64]	; (1000f894 <gattm_att_set_value_req_handler+0x78>)
1000f854:	7067      	strb	r7, [r4, #1]
1000f856:	70a7      	strb	r7, [r4, #2]
1000f858:	4798      	blx	r3
1000f85a:	b2a9      	uxth	r1, r5
1000f85c:	4b0e      	ldr	r3, [pc, #56]	; (1000f898 <gattm_att_set_value_req_handler+0x7c>)
1000f85e:	4d0f      	ldr	r5, [pc, #60]	; (1000f89c <gattm_att_set_value_req_handler+0x80>)
1000f860:	1c20      	adds	r0, r4, #0
1000f862:	802b      	strh	r3, [r5, #0]
1000f864:	1c0b      	adds	r3, r1, #0
1000f866:	3b08      	subs	r3, #8
1000f868:	71a3      	strb	r3, [r4, #6]
1000f86a:	121b      	asrs	r3, r3, #8
1000f86c:	71e3      	strb	r3, [r4, #7]
1000f86e:	4b0c      	ldr	r3, [pc, #48]	; (1000f8a0 <gattm_att_set_value_req_handler+0x84>)
1000f870:	80af      	strh	r7, [r5, #4]
1000f872:	4798      	blx	r3
1000f874:	1c30      	adds	r0, r6, #0
1000f876:	4b0b      	ldr	r3, [pc, #44]	; (1000f8a4 <gattm_att_set_value_req_handler+0x88>)
1000f878:	4798      	blx	r3
1000f87a:	7833      	ldrb	r3, [r6, #0]
1000f87c:	20e2      	movs	r0, #226	; 0xe2
1000f87e:	2b00      	cmp	r3, #0
1000f880:	d101      	bne.n	1000f886 <gattm_att_set_value_req_handler+0x6a>
1000f882:	68ab      	ldr	r3, [r5, #8]
1000f884:	7898      	ldrb	r0, [r3, #2]
1000f886:	bdfe      	pop	{r1, r2, r3, r4, r5, r6, r7, pc}
1000f888:	10014ad0 	.word	0x10014ad0
1000f88c:	10014760 	.word	0x10014760
1000f890:	10010b37 	.word	0x10010b37
1000f894:	10014adc 	.word	0x10014adc
1000f898:	00000b0d 	.word	0x00000b0d
1000f89c:	10014754 	.word	0x10014754
1000f8a0:	1000dff5 	.word	0x1000dff5
1000f8a4:	1000e059 	.word	0x1000e059

1000f8a8 <gattm_att_get_value_req_handler>:
1000f8a8:	b5f0      	push	{r4, r5, r6, r7, lr}
1000f8aa:	b085      	sub	sp, #20
1000f8ac:	9201      	str	r2, [sp, #4]
1000f8ae:	220a      	movs	r2, #10
1000f8b0:	1c04      	adds	r4, r0, #0
1000f8b2:	481d      	ldr	r0, [pc, #116]	; (1000f928 <gattm_att_get_value_req_handler+0x80>)
1000f8b4:	ab02      	add	r3, sp, #8
1000f8b6:	1dde      	adds	r6, r3, #7
1000f8b8:	7002      	strb	r2, [r0, #0]
1000f8ba:	2300      	movs	r3, #0
1000f8bc:	220b      	movs	r2, #11
1000f8be:	4d1b      	ldr	r5, [pc, #108]	; (1000f92c <gattm_att_get_value_req_handler+0x84>)
1000f8c0:	1c0f      	adds	r7, r1, #0
1000f8c2:	8829      	ldrh	r1, [r5, #0]
1000f8c4:	882d      	ldrh	r5, [r5, #0]
1000f8c6:	7101      	strb	r1, [r0, #4]
1000f8c8:	0a2d      	lsrs	r5, r5, #8
1000f8ca:	7145      	strb	r5, [r0, #5]
1000f8cc:	0a25      	lsrs	r5, r4, #8
1000f8ce:	7245      	strb	r5, [r0, #9]
1000f8d0:	4917      	ldr	r1, [pc, #92]	; (1000f930 <gattm_att_get_value_req_handler+0x88>)
1000f8d2:	4d18      	ldr	r5, [pc, #96]	; (1000f934 <gattm_att_get_value_req_handler+0x8c>)
1000f8d4:	7033      	strb	r3, [r6, #0]
1000f8d6:	7042      	strb	r2, [r0, #1]
1000f8d8:	7082      	strb	r2, [r0, #2]
1000f8da:	70c3      	strb	r3, [r0, #3]
1000f8dc:	8029      	strh	r1, [r5, #0]
1000f8de:	80aa      	strh	r2, [r5, #4]
1000f8e0:	71c3      	strb	r3, [r0, #7]
1000f8e2:	3a09      	subs	r2, #9
1000f8e4:	210a      	movs	r1, #10
1000f8e6:	4b14      	ldr	r3, [pc, #80]	; (1000f938 <gattm_att_get_value_req_handler+0x90>)
1000f8e8:	7182      	strb	r2, [r0, #6]
1000f8ea:	7204      	strb	r4, [r0, #8]
1000f8ec:	4798      	blx	r3
1000f8ee:	1c30      	adds	r0, r6, #0
1000f8f0:	4b12      	ldr	r3, [pc, #72]	; (1000f93c <gattm_att_get_value_req_handler+0x94>)
1000f8f2:	4798      	blx	r3
1000f8f4:	7833      	ldrb	r3, [r6, #0]
1000f8f6:	20e2      	movs	r0, #226	; 0xe2
1000f8f8:	2b00      	cmp	r3, #0
1000f8fa:	d112      	bne.n	1000f922 <gattm_att_get_value_req_handler+0x7a>
1000f8fc:	68a9      	ldr	r1, [r5, #8]
1000f8fe:	9801      	ldr	r0, [sp, #4]
1000f900:	784d      	ldrb	r5, [r1, #1]
1000f902:	780b      	ldrb	r3, [r1, #0]
1000f904:	78ca      	ldrb	r2, [r1, #3]
1000f906:	022d      	lsls	r5, r5, #8
1000f908:	431d      	orrs	r5, r3
1000f90a:	788b      	ldrb	r3, [r1, #2]
1000f90c:	0212      	lsls	r2, r2, #8
1000f90e:	431a      	orrs	r2, r3
1000f910:	803a      	strh	r2, [r7, #0]
1000f912:	790e      	ldrb	r6, [r1, #4]
1000f914:	4b0a      	ldr	r3, [pc, #40]	; (1000f940 <gattm_att_get_value_req_handler+0x98>)
1000f916:	3105      	adds	r1, #5
1000f918:	4798      	blx	r3
1000f91a:	20e2      	movs	r0, #226	; 0xe2
1000f91c:	42ac      	cmp	r4, r5
1000f91e:	d100      	bne.n	1000f922 <gattm_att_get_value_req_handler+0x7a>
1000f920:	1c30      	adds	r0, r6, #0
1000f922:	b005      	add	sp, #20
1000f924:	bdf0      	pop	{r4, r5, r6, r7, pc}
1000f926:	46c0      	nop			; (mov r8, r8)
1000f928:	10014ad0 	.word	0x10014ad0
1000f92c:	10014760 	.word	0x10014760
1000f930:	00000b0b 	.word	0x00000b0b
1000f934:	10014754 	.word	0x10014754
1000f938:	1000dff5 	.word	0x1000dff5
1000f93c:	1000e059 	.word	0x1000e059
1000f940:	10010b37 	.word	0x10010b37

1000f944 <htpt_enable_rsp_handler>:
1000f944:	780b      	ldrb	r3, [r1, #0]
1000f946:	7013      	strb	r3, [r2, #0]
1000f948:	784b      	ldrb	r3, [r1, #1]
1000f94a:	7053      	strb	r3, [r2, #1]
1000f94c:	4770      	bx	lr

1000f94e <htpt_temp_send_rsp_handler>:
1000f94e:	780b      	ldrb	r3, [r1, #0]
1000f950:	7013      	strb	r3, [r2, #0]
1000f952:	4770      	bx	lr

1000f954 <htpt_meas_intv_upd_rsp_handler>:
1000f954:	780b      	ldrb	r3, [r1, #0]
1000f956:	7013      	strb	r3, [r2, #0]
1000f958:	4770      	bx	lr

1000f95a <htpt_meas_intv_chg_req_ind_handler>:
1000f95a:	78cb      	ldrb	r3, [r1, #3]
1000f95c:	7889      	ldrb	r1, [r1, #2]
1000f95e:	021b      	lsls	r3, r3, #8
1000f960:	430b      	orrs	r3, r1
1000f962:	8013      	strh	r3, [r2, #0]
1000f964:	4770      	bx	lr

1000f966 <htpt_cfg_indntf_ind_handler>:
1000f966:	780b      	ldrb	r3, [r1, #0]
1000f968:	7013      	strb	r3, [r2, #0]
1000f96a:	784b      	ldrb	r3, [r1, #1]
1000f96c:	7053      	strb	r3, [r2, #1]
1000f96e:	4770      	bx	lr

1000f970 <__gnu_thumb1_case_sqi>:
1000f970:	b402      	push	{r1}
1000f972:	4671      	mov	r1, lr
1000f974:	0849      	lsrs	r1, r1, #1
1000f976:	0049      	lsls	r1, r1, #1
1000f978:	5609      	ldrsb	r1, [r1, r0]
1000f97a:	0049      	lsls	r1, r1, #1
1000f97c:	448e      	add	lr, r1
1000f97e:	bc02      	pop	{r1}
1000f980:	4770      	bx	lr
1000f982:	46c0      	nop			; (mov r8, r8)

1000f984 <__gnu_thumb1_case_uqi>:
1000f984:	b402      	push	{r1}
1000f986:	4671      	mov	r1, lr
1000f988:	0849      	lsrs	r1, r1, #1
1000f98a:	0049      	lsls	r1, r1, #1
1000f98c:	5c09      	ldrb	r1, [r1, r0]
1000f98e:	0049      	lsls	r1, r1, #1
1000f990:	448e      	add	lr, r1
1000f992:	bc02      	pop	{r1}
1000f994:	4770      	bx	lr
1000f996:	46c0      	nop			; (mov r8, r8)

1000f998 <__gnu_thumb1_case_uhi>:
1000f998:	b403      	push	{r0, r1}
1000f99a:	4671      	mov	r1, lr
1000f99c:	0849      	lsrs	r1, r1, #1
1000f99e:	0040      	lsls	r0, r0, #1
1000f9a0:	0049      	lsls	r1, r1, #1
1000f9a2:	5a09      	ldrh	r1, [r1, r0]
1000f9a4:	0049      	lsls	r1, r1, #1
1000f9a6:	448e      	add	lr, r1
1000f9a8:	bc03      	pop	{r0, r1}
1000f9aa:	4770      	bx	lr

1000f9ac <__aeabi_uidiv>:
1000f9ac:	2200      	movs	r2, #0
1000f9ae:	0843      	lsrs	r3, r0, #1
1000f9b0:	428b      	cmp	r3, r1
1000f9b2:	d374      	bcc.n	1000fa9e <__aeabi_uidiv+0xf2>
1000f9b4:	0903      	lsrs	r3, r0, #4
1000f9b6:	428b      	cmp	r3, r1
1000f9b8:	d35f      	bcc.n	1000fa7a <__aeabi_uidiv+0xce>
1000f9ba:	0a03      	lsrs	r3, r0, #8
1000f9bc:	428b      	cmp	r3, r1
1000f9be:	d344      	bcc.n	1000fa4a <__aeabi_uidiv+0x9e>
1000f9c0:	0b03      	lsrs	r3, r0, #12
1000f9c2:	428b      	cmp	r3, r1
1000f9c4:	d328      	bcc.n	1000fa18 <__aeabi_uidiv+0x6c>
1000f9c6:	0c03      	lsrs	r3, r0, #16
1000f9c8:	428b      	cmp	r3, r1
1000f9ca:	d30d      	bcc.n	1000f9e8 <__aeabi_uidiv+0x3c>
1000f9cc:	22ff      	movs	r2, #255	; 0xff
1000f9ce:	0209      	lsls	r1, r1, #8
1000f9d0:	ba12      	rev	r2, r2
1000f9d2:	0c03      	lsrs	r3, r0, #16
1000f9d4:	428b      	cmp	r3, r1
1000f9d6:	d302      	bcc.n	1000f9de <__aeabi_uidiv+0x32>
1000f9d8:	1212      	asrs	r2, r2, #8
1000f9da:	0209      	lsls	r1, r1, #8
1000f9dc:	d065      	beq.n	1000faaa <__aeabi_uidiv+0xfe>
1000f9de:	0b03      	lsrs	r3, r0, #12
1000f9e0:	428b      	cmp	r3, r1
1000f9e2:	d319      	bcc.n	1000fa18 <__aeabi_uidiv+0x6c>
1000f9e4:	e000      	b.n	1000f9e8 <__aeabi_uidiv+0x3c>
1000f9e6:	0a09      	lsrs	r1, r1, #8
1000f9e8:	0bc3      	lsrs	r3, r0, #15
1000f9ea:	428b      	cmp	r3, r1
1000f9ec:	d301      	bcc.n	1000f9f2 <__aeabi_uidiv+0x46>
1000f9ee:	03cb      	lsls	r3, r1, #15
1000f9f0:	1ac0      	subs	r0, r0, r3
1000f9f2:	4152      	adcs	r2, r2
1000f9f4:	0b83      	lsrs	r3, r0, #14
1000f9f6:	428b      	cmp	r3, r1
1000f9f8:	d301      	bcc.n	1000f9fe <__aeabi_uidiv+0x52>
1000f9fa:	038b      	lsls	r3, r1, #14
1000f9fc:	1ac0      	subs	r0, r0, r3
1000f9fe:	4152      	adcs	r2, r2
1000fa00:	0b43      	lsrs	r3, r0, #13
1000fa02:	428b      	cmp	r3, r1
1000fa04:	d301      	bcc.n	1000fa0a <__aeabi_uidiv+0x5e>
1000fa06:	034b      	lsls	r3, r1, #13
1000fa08:	1ac0      	subs	r0, r0, r3
1000fa0a:	4152      	adcs	r2, r2
1000fa0c:	0b03      	lsrs	r3, r0, #12
1000fa0e:	428b      	cmp	r3, r1
1000fa10:	d301      	bcc.n	1000fa16 <__aeabi_uidiv+0x6a>
1000fa12:	030b      	lsls	r3, r1, #12
1000fa14:	1ac0      	subs	r0, r0, r3
1000fa16:	4152      	adcs	r2, r2
1000fa18:	0ac3      	lsrs	r3, r0, #11
1000fa1a:	428b      	cmp	r3, r1
1000fa1c:	d301      	bcc.n	1000fa22 <__aeabi_uidiv+0x76>
1000fa1e:	02cb      	lsls	r3, r1, #11
1000fa20:	1ac0      	subs	r0, r0, r3
1000fa22:	4152      	adcs	r2, r2
1000fa24:	0a83      	lsrs	r3, r0, #10
1000fa26:	428b      	cmp	r3, r1
1000fa28:	d301      	bcc.n	1000fa2e <__aeabi_uidiv+0x82>
1000fa2a:	028b      	lsls	r3, r1, #10
1000fa2c:	1ac0      	subs	r0, r0, r3
1000fa2e:	4152      	adcs	r2, r2
1000fa30:	0a43      	lsrs	r3, r0, #9
1000fa32:	428b      	cmp	r3, r1
1000fa34:	d301      	bcc.n	1000fa3a <__aeabi_uidiv+0x8e>
1000fa36:	024b      	lsls	r3, r1, #9
1000fa38:	1ac0      	subs	r0, r0, r3
1000fa3a:	4152      	adcs	r2, r2
1000fa3c:	0a03      	lsrs	r3, r0, #8
1000fa3e:	428b      	cmp	r3, r1
1000fa40:	d301      	bcc.n	1000fa46 <__aeabi_uidiv+0x9a>
1000fa42:	020b      	lsls	r3, r1, #8
1000fa44:	1ac0      	subs	r0, r0, r3
1000fa46:	4152      	adcs	r2, r2
1000fa48:	d2cd      	bcs.n	1000f9e6 <__aeabi_uidiv+0x3a>
1000fa4a:	09c3      	lsrs	r3, r0, #7
1000fa4c:	428b      	cmp	r3, r1
1000fa4e:	d301      	bcc.n	1000fa54 <__aeabi_uidiv+0xa8>
1000fa50:	01cb      	lsls	r3, r1, #7
1000fa52:	1ac0      	subs	r0, r0, r3
1000fa54:	4152      	adcs	r2, r2
1000fa56:	0983      	lsrs	r3, r0, #6
1000fa58:	428b      	cmp	r3, r1
1000fa5a:	d301      	bcc.n	1000fa60 <__aeabi_uidiv+0xb4>
1000fa5c:	018b      	lsls	r3, r1, #6
1000fa5e:	1ac0      	subs	r0, r0, r3
1000fa60:	4152      	adcs	r2, r2
1000fa62:	0943      	lsrs	r3, r0, #5
1000fa64:	428b      	cmp	r3, r1
1000fa66:	d301      	bcc.n	1000fa6c <__aeabi_uidiv+0xc0>
1000fa68:	014b      	lsls	r3, r1, #5
1000fa6a:	1ac0      	subs	r0, r0, r3
1000fa6c:	4152      	adcs	r2, r2
1000fa6e:	0903      	lsrs	r3, r0, #4
1000fa70:	428b      	cmp	r3, r1
1000fa72:	d301      	bcc.n	1000fa78 <__aeabi_uidiv+0xcc>
1000fa74:	010b      	lsls	r3, r1, #4
1000fa76:	1ac0      	subs	r0, r0, r3
1000fa78:	4152      	adcs	r2, r2
1000fa7a:	08c3      	lsrs	r3, r0, #3
1000fa7c:	428b      	cmp	r3, r1
1000fa7e:	d301      	bcc.n	1000fa84 <__aeabi_uidiv+0xd8>
1000fa80:	00cb      	lsls	r3, r1, #3
1000fa82:	1ac0      	subs	r0, r0, r3
1000fa84:	4152      	adcs	r2, r2
1000fa86:	0883      	lsrs	r3, r0, #2
1000fa88:	428b      	cmp	r3, r1
1000fa8a:	d301      	bcc.n	1000fa90 <__aeabi_uidiv+0xe4>
1000fa8c:	008b      	lsls	r3, r1, #2
1000fa8e:	1ac0      	subs	r0, r0, r3
1000fa90:	4152      	adcs	r2, r2
1000fa92:	0843      	lsrs	r3, r0, #1
1000fa94:	428b      	cmp	r3, r1
1000fa96:	d301      	bcc.n	1000fa9c <__aeabi_uidiv+0xf0>
1000fa98:	004b      	lsls	r3, r1, #1
1000fa9a:	1ac0      	subs	r0, r0, r3
1000fa9c:	4152      	adcs	r2, r2
1000fa9e:	1a41      	subs	r1, r0, r1
1000faa0:	d200      	bcs.n	1000faa4 <__aeabi_uidiv+0xf8>
1000faa2:	4601      	mov	r1, r0
1000faa4:	4152      	adcs	r2, r2
1000faa6:	4610      	mov	r0, r2
1000faa8:	4770      	bx	lr
1000faaa:	e7ff      	b.n	1000faac <__aeabi_uidiv+0x100>
1000faac:	b501      	push	{r0, lr}
1000faae:	2000      	movs	r0, #0
1000fab0:	f000 f806 	bl	1000fac0 <__aeabi_idiv0>
1000fab4:	bd02      	pop	{r1, pc}
1000fab6:	46c0      	nop			; (mov r8, r8)

1000fab8 <__aeabi_uidivmod>:
1000fab8:	2900      	cmp	r1, #0
1000faba:	d0f7      	beq.n	1000faac <__aeabi_uidiv+0x100>
1000fabc:	e776      	b.n	1000f9ac <__aeabi_uidiv>
1000fabe:	4770      	bx	lr

1000fac0 <__aeabi_idiv0>:
1000fac0:	4770      	bx	lr
1000fac2:	46c0      	nop			; (mov r8, r8)

1000fac4 <__aeabi_lmul>:
1000fac4:	b5f0      	push	{r4, r5, r6, r7, lr}
1000fac6:	464f      	mov	r7, r9
1000fac8:	4646      	mov	r6, r8
1000faca:	b4c0      	push	{r6, r7}
1000facc:	0416      	lsls	r6, r2, #16
1000face:	0c36      	lsrs	r6, r6, #16
1000fad0:	4699      	mov	r9, r3
1000fad2:	0033      	movs	r3, r6
1000fad4:	0405      	lsls	r5, r0, #16
1000fad6:	0c2c      	lsrs	r4, r5, #16
1000fad8:	0c07      	lsrs	r7, r0, #16
1000fada:	0c15      	lsrs	r5, r2, #16
1000fadc:	4363      	muls	r3, r4
1000fade:	437e      	muls	r6, r7
1000fae0:	436f      	muls	r7, r5
1000fae2:	4365      	muls	r5, r4
1000fae4:	0c1c      	lsrs	r4, r3, #16
1000fae6:	19ad      	adds	r5, r5, r6
1000fae8:	1964      	adds	r4, r4, r5
1000faea:	469c      	mov	ip, r3
1000faec:	42a6      	cmp	r6, r4
1000faee:	d903      	bls.n	1000faf8 <__aeabi_lmul+0x34>
1000faf0:	2380      	movs	r3, #128	; 0x80
1000faf2:	025b      	lsls	r3, r3, #9
1000faf4:	4698      	mov	r8, r3
1000faf6:	4447      	add	r7, r8
1000faf8:	4663      	mov	r3, ip
1000fafa:	0c25      	lsrs	r5, r4, #16
1000fafc:	19ef      	adds	r7, r5, r7
1000fafe:	041d      	lsls	r5, r3, #16
1000fb00:	464b      	mov	r3, r9
1000fb02:	434a      	muls	r2, r1
1000fb04:	4343      	muls	r3, r0
1000fb06:	0c2d      	lsrs	r5, r5, #16
1000fb08:	0424      	lsls	r4, r4, #16
1000fb0a:	1964      	adds	r4, r4, r5
1000fb0c:	1899      	adds	r1, r3, r2
1000fb0e:	19c9      	adds	r1, r1, r7
1000fb10:	0020      	movs	r0, r4
1000fb12:	bc0c      	pop	{r2, r3}
1000fb14:	4690      	mov	r8, r2
1000fb16:	4699      	mov	r9, r3
1000fb18:	bdf0      	pop	{r4, r5, r6, r7, pc}
1000fb1a:	46c0      	nop			; (mov r8, r8)

1000fb1c <__aeabi_d2uiz>:
1000fb1c:	b570      	push	{r4, r5, r6, lr}
1000fb1e:	2200      	movs	r2, #0
1000fb20:	4b0c      	ldr	r3, [pc, #48]	; (1000fb54 <__aeabi_d2uiz+0x38>)
1000fb22:	0004      	movs	r4, r0
1000fb24:	000d      	movs	r5, r1
1000fb26:	f000 fe87 	bl	10010838 <__aeabi_dcmpge>
1000fb2a:	2800      	cmp	r0, #0
1000fb2c:	d104      	bne.n	1000fb38 <__aeabi_d2uiz+0x1c>
1000fb2e:	0020      	movs	r0, r4
1000fb30:	0029      	movs	r1, r5
1000fb32:	f000 fddf 	bl	100106f4 <__aeabi_d2iz>
1000fb36:	bd70      	pop	{r4, r5, r6, pc}
1000fb38:	4b06      	ldr	r3, [pc, #24]	; (1000fb54 <__aeabi_d2uiz+0x38>)
1000fb3a:	2200      	movs	r2, #0
1000fb3c:	0020      	movs	r0, r4
1000fb3e:	0029      	movs	r1, r5
1000fb40:	f000 fa84 	bl	1001004c <__aeabi_dsub>
1000fb44:	f000 fdd6 	bl	100106f4 <__aeabi_d2iz>
1000fb48:	2380      	movs	r3, #128	; 0x80
1000fb4a:	061b      	lsls	r3, r3, #24
1000fb4c:	469c      	mov	ip, r3
1000fb4e:	4460      	add	r0, ip
1000fb50:	e7f1      	b.n	1000fb36 <__aeabi_d2uiz+0x1a>
1000fb52:	46c0      	nop			; (mov r8, r8)
1000fb54:	41e00000 	.word	0x41e00000

1000fb58 <__aeabi_dmul>:
1000fb58:	b5f0      	push	{r4, r5, r6, r7, lr}
1000fb5a:	465f      	mov	r7, fp
1000fb5c:	4656      	mov	r6, sl
1000fb5e:	464d      	mov	r5, r9
1000fb60:	4644      	mov	r4, r8
1000fb62:	b4f0      	push	{r4, r5, r6, r7}
1000fb64:	030d      	lsls	r5, r1, #12
1000fb66:	4699      	mov	r9, r3
1000fb68:	004e      	lsls	r6, r1, #1
1000fb6a:	0b2b      	lsrs	r3, r5, #12
1000fb6c:	b087      	sub	sp, #28
1000fb6e:	0007      	movs	r7, r0
1000fb70:	4692      	mov	sl, r2
1000fb72:	4680      	mov	r8, r0
1000fb74:	469b      	mov	fp, r3
1000fb76:	0d76      	lsrs	r6, r6, #21
1000fb78:	0fcc      	lsrs	r4, r1, #31
1000fb7a:	2e00      	cmp	r6, #0
1000fb7c:	d069      	beq.n	1000fc52 <__aeabi_dmul+0xfa>
1000fb7e:	4b6d      	ldr	r3, [pc, #436]	; (1000fd34 <__aeabi_dmul+0x1dc>)
1000fb80:	429e      	cmp	r6, r3
1000fb82:	d035      	beq.n	1000fbf0 <__aeabi_dmul+0x98>
1000fb84:	465b      	mov	r3, fp
1000fb86:	2280      	movs	r2, #128	; 0x80
1000fb88:	00dd      	lsls	r5, r3, #3
1000fb8a:	0412      	lsls	r2, r2, #16
1000fb8c:	0f43      	lsrs	r3, r0, #29
1000fb8e:	4313      	orrs	r3, r2
1000fb90:	432b      	orrs	r3, r5
1000fb92:	469b      	mov	fp, r3
1000fb94:	00c3      	lsls	r3, r0, #3
1000fb96:	4698      	mov	r8, r3
1000fb98:	4b67      	ldr	r3, [pc, #412]	; (1000fd38 <__aeabi_dmul+0x1e0>)
1000fb9a:	2700      	movs	r7, #0
1000fb9c:	469c      	mov	ip, r3
1000fb9e:	2300      	movs	r3, #0
1000fba0:	4466      	add	r6, ip
1000fba2:	9301      	str	r3, [sp, #4]
1000fba4:	464a      	mov	r2, r9
1000fba6:	0315      	lsls	r5, r2, #12
1000fba8:	0050      	lsls	r0, r2, #1
1000fbaa:	0fd2      	lsrs	r2, r2, #31
1000fbac:	4653      	mov	r3, sl
1000fbae:	0b2d      	lsrs	r5, r5, #12
1000fbb0:	0d40      	lsrs	r0, r0, #21
1000fbb2:	4691      	mov	r9, r2
1000fbb4:	d100      	bne.n	1000fbb8 <__aeabi_dmul+0x60>
1000fbb6:	e076      	b.n	1000fca6 <__aeabi_dmul+0x14e>
1000fbb8:	4a5e      	ldr	r2, [pc, #376]	; (1000fd34 <__aeabi_dmul+0x1dc>)
1000fbba:	4290      	cmp	r0, r2
1000fbbc:	d06c      	beq.n	1000fc98 <__aeabi_dmul+0x140>
1000fbbe:	2280      	movs	r2, #128	; 0x80
1000fbc0:	0f5b      	lsrs	r3, r3, #29
1000fbc2:	0412      	lsls	r2, r2, #16
1000fbc4:	4313      	orrs	r3, r2
1000fbc6:	4a5c      	ldr	r2, [pc, #368]	; (1000fd38 <__aeabi_dmul+0x1e0>)
1000fbc8:	00ed      	lsls	r5, r5, #3
1000fbca:	4694      	mov	ip, r2
1000fbcc:	431d      	orrs	r5, r3
1000fbce:	4653      	mov	r3, sl
1000fbd0:	2200      	movs	r2, #0
1000fbd2:	00db      	lsls	r3, r3, #3
1000fbd4:	4460      	add	r0, ip
1000fbd6:	4649      	mov	r1, r9
1000fbd8:	1836      	adds	r6, r6, r0
1000fbda:	1c70      	adds	r0, r6, #1
1000fbdc:	4061      	eors	r1, r4
1000fbde:	9002      	str	r0, [sp, #8]
1000fbe0:	4317      	orrs	r7, r2
1000fbe2:	2f0f      	cmp	r7, #15
1000fbe4:	d900      	bls.n	1000fbe8 <__aeabi_dmul+0x90>
1000fbe6:	e0af      	b.n	1000fd48 <__aeabi_dmul+0x1f0>
1000fbe8:	4854      	ldr	r0, [pc, #336]	; (1000fd3c <__aeabi_dmul+0x1e4>)
1000fbea:	00bf      	lsls	r7, r7, #2
1000fbec:	59c7      	ldr	r7, [r0, r7]
1000fbee:	46bf      	mov	pc, r7
1000fbf0:	465b      	mov	r3, fp
1000fbf2:	431f      	orrs	r7, r3
1000fbf4:	d000      	beq.n	1000fbf8 <__aeabi_dmul+0xa0>
1000fbf6:	e088      	b.n	1000fd0a <__aeabi_dmul+0x1b2>
1000fbf8:	2300      	movs	r3, #0
1000fbfa:	469b      	mov	fp, r3
1000fbfc:	4698      	mov	r8, r3
1000fbfe:	3302      	adds	r3, #2
1000fc00:	2708      	movs	r7, #8
1000fc02:	9301      	str	r3, [sp, #4]
1000fc04:	e7ce      	b.n	1000fba4 <__aeabi_dmul+0x4c>
1000fc06:	4649      	mov	r1, r9
1000fc08:	2a02      	cmp	r2, #2
1000fc0a:	d06a      	beq.n	1000fce2 <__aeabi_dmul+0x18a>
1000fc0c:	2a03      	cmp	r2, #3
1000fc0e:	d100      	bne.n	1000fc12 <__aeabi_dmul+0xba>
1000fc10:	e209      	b.n	10010026 <__aeabi_dmul+0x4ce>
1000fc12:	2a01      	cmp	r2, #1
1000fc14:	d000      	beq.n	1000fc18 <__aeabi_dmul+0xc0>
1000fc16:	e1bb      	b.n	1000ff90 <__aeabi_dmul+0x438>
1000fc18:	4011      	ands	r1, r2
1000fc1a:	2200      	movs	r2, #0
1000fc1c:	2300      	movs	r3, #0
1000fc1e:	2500      	movs	r5, #0
1000fc20:	4690      	mov	r8, r2
1000fc22:	b2cc      	uxtb	r4, r1
1000fc24:	2100      	movs	r1, #0
1000fc26:	032d      	lsls	r5, r5, #12
1000fc28:	0d0a      	lsrs	r2, r1, #20
1000fc2a:	0512      	lsls	r2, r2, #20
1000fc2c:	0b2d      	lsrs	r5, r5, #12
1000fc2e:	4315      	orrs	r5, r2
1000fc30:	4a43      	ldr	r2, [pc, #268]	; (1000fd40 <__aeabi_dmul+0x1e8>)
1000fc32:	051b      	lsls	r3, r3, #20
1000fc34:	4015      	ands	r5, r2
1000fc36:	431d      	orrs	r5, r3
1000fc38:	006d      	lsls	r5, r5, #1
1000fc3a:	07e4      	lsls	r4, r4, #31
1000fc3c:	086d      	lsrs	r5, r5, #1
1000fc3e:	4325      	orrs	r5, r4
1000fc40:	4640      	mov	r0, r8
1000fc42:	0029      	movs	r1, r5
1000fc44:	b007      	add	sp, #28
1000fc46:	bc3c      	pop	{r2, r3, r4, r5}
1000fc48:	4690      	mov	r8, r2
1000fc4a:	4699      	mov	r9, r3
1000fc4c:	46a2      	mov	sl, r4
1000fc4e:	46ab      	mov	fp, r5
1000fc50:	bdf0      	pop	{r4, r5, r6, r7, pc}
1000fc52:	4303      	orrs	r3, r0
1000fc54:	d052      	beq.n	1000fcfc <__aeabi_dmul+0x1a4>
1000fc56:	465b      	mov	r3, fp
1000fc58:	2b00      	cmp	r3, #0
1000fc5a:	d100      	bne.n	1000fc5e <__aeabi_dmul+0x106>
1000fc5c:	e18a      	b.n	1000ff74 <__aeabi_dmul+0x41c>
1000fc5e:	4658      	mov	r0, fp
1000fc60:	f000 fdf4 	bl	1001084c <__clzsi2>
1000fc64:	0003      	movs	r3, r0
1000fc66:	3b0b      	subs	r3, #11
1000fc68:	2b1c      	cmp	r3, #28
1000fc6a:	dd00      	ble.n	1000fc6e <__aeabi_dmul+0x116>
1000fc6c:	e17b      	b.n	1000ff66 <__aeabi_dmul+0x40e>
1000fc6e:	221d      	movs	r2, #29
1000fc70:	1ad3      	subs	r3, r2, r3
1000fc72:	003a      	movs	r2, r7
1000fc74:	0001      	movs	r1, r0
1000fc76:	465d      	mov	r5, fp
1000fc78:	40da      	lsrs	r2, r3
1000fc7a:	3908      	subs	r1, #8
1000fc7c:	408d      	lsls	r5, r1
1000fc7e:	0013      	movs	r3, r2
1000fc80:	408f      	lsls	r7, r1
1000fc82:	432b      	orrs	r3, r5
1000fc84:	469b      	mov	fp, r3
1000fc86:	46b8      	mov	r8, r7
1000fc88:	4b2e      	ldr	r3, [pc, #184]	; (1000fd44 <__aeabi_dmul+0x1ec>)
1000fc8a:	2700      	movs	r7, #0
1000fc8c:	469c      	mov	ip, r3
1000fc8e:	2300      	movs	r3, #0
1000fc90:	4460      	add	r0, ip
1000fc92:	4246      	negs	r6, r0
1000fc94:	9301      	str	r3, [sp, #4]
1000fc96:	e785      	b.n	1000fba4 <__aeabi_dmul+0x4c>
1000fc98:	4652      	mov	r2, sl
1000fc9a:	432a      	orrs	r2, r5
1000fc9c:	d12c      	bne.n	1000fcf8 <__aeabi_dmul+0x1a0>
1000fc9e:	2500      	movs	r5, #0
1000fca0:	2300      	movs	r3, #0
1000fca2:	2202      	movs	r2, #2
1000fca4:	e797      	b.n	1000fbd6 <__aeabi_dmul+0x7e>
1000fca6:	4652      	mov	r2, sl
1000fca8:	432a      	orrs	r2, r5
1000fcaa:	d021      	beq.n	1000fcf0 <__aeabi_dmul+0x198>
1000fcac:	2d00      	cmp	r5, #0
1000fcae:	d100      	bne.n	1000fcb2 <__aeabi_dmul+0x15a>
1000fcb0:	e154      	b.n	1000ff5c <__aeabi_dmul+0x404>
1000fcb2:	0028      	movs	r0, r5
1000fcb4:	f000 fdca 	bl	1001084c <__clzsi2>
1000fcb8:	0003      	movs	r3, r0
1000fcba:	3b0b      	subs	r3, #11
1000fcbc:	2b1c      	cmp	r3, #28
1000fcbe:	dd00      	ble.n	1000fcc2 <__aeabi_dmul+0x16a>
1000fcc0:	e146      	b.n	1000ff50 <__aeabi_dmul+0x3f8>
1000fcc2:	211d      	movs	r1, #29
1000fcc4:	1acb      	subs	r3, r1, r3
1000fcc6:	4651      	mov	r1, sl
1000fcc8:	0002      	movs	r2, r0
1000fcca:	40d9      	lsrs	r1, r3
1000fccc:	4653      	mov	r3, sl
1000fcce:	3a08      	subs	r2, #8
1000fcd0:	4095      	lsls	r5, r2
1000fcd2:	4093      	lsls	r3, r2
1000fcd4:	430d      	orrs	r5, r1
1000fcd6:	4a1b      	ldr	r2, [pc, #108]	; (1000fd44 <__aeabi_dmul+0x1ec>)
1000fcd8:	4694      	mov	ip, r2
1000fcda:	4460      	add	r0, ip
1000fcdc:	4240      	negs	r0, r0
1000fcde:	2200      	movs	r2, #0
1000fce0:	e779      	b.n	1000fbd6 <__aeabi_dmul+0x7e>
1000fce2:	2401      	movs	r4, #1
1000fce4:	2200      	movs	r2, #0
1000fce6:	400c      	ands	r4, r1
1000fce8:	4b12      	ldr	r3, [pc, #72]	; (1000fd34 <__aeabi_dmul+0x1dc>)
1000fcea:	2500      	movs	r5, #0
1000fcec:	4690      	mov	r8, r2
1000fcee:	e799      	b.n	1000fc24 <__aeabi_dmul+0xcc>
1000fcf0:	2500      	movs	r5, #0
1000fcf2:	2300      	movs	r3, #0
1000fcf4:	2201      	movs	r2, #1
1000fcf6:	e76e      	b.n	1000fbd6 <__aeabi_dmul+0x7e>
1000fcf8:	2203      	movs	r2, #3
1000fcfa:	e76c      	b.n	1000fbd6 <__aeabi_dmul+0x7e>
1000fcfc:	2300      	movs	r3, #0
1000fcfe:	469b      	mov	fp, r3
1000fd00:	4698      	mov	r8, r3
1000fd02:	3301      	adds	r3, #1
1000fd04:	2704      	movs	r7, #4
1000fd06:	9301      	str	r3, [sp, #4]
1000fd08:	e74c      	b.n	1000fba4 <__aeabi_dmul+0x4c>
1000fd0a:	2303      	movs	r3, #3
1000fd0c:	270c      	movs	r7, #12
1000fd0e:	9301      	str	r3, [sp, #4]
1000fd10:	e748      	b.n	1000fba4 <__aeabi_dmul+0x4c>
1000fd12:	2300      	movs	r3, #0
1000fd14:	2580      	movs	r5, #128	; 0x80
1000fd16:	4698      	mov	r8, r3
1000fd18:	2400      	movs	r4, #0
1000fd1a:	032d      	lsls	r5, r5, #12
1000fd1c:	4b05      	ldr	r3, [pc, #20]	; (1000fd34 <__aeabi_dmul+0x1dc>)
1000fd1e:	e781      	b.n	1000fc24 <__aeabi_dmul+0xcc>
1000fd20:	465d      	mov	r5, fp
1000fd22:	4643      	mov	r3, r8
1000fd24:	9a01      	ldr	r2, [sp, #4]
1000fd26:	e76f      	b.n	1000fc08 <__aeabi_dmul+0xb0>
1000fd28:	465d      	mov	r5, fp
1000fd2a:	4643      	mov	r3, r8
1000fd2c:	0021      	movs	r1, r4
1000fd2e:	9a01      	ldr	r2, [sp, #4]
1000fd30:	e76a      	b.n	1000fc08 <__aeabi_dmul+0xb0>
1000fd32:	46c0      	nop			; (mov r8, r8)
1000fd34:	000007ff 	.word	0x000007ff
1000fd38:	fffffc01 	.word	0xfffffc01
1000fd3c:	10011d9c 	.word	0x10011d9c
1000fd40:	800fffff 	.word	0x800fffff
1000fd44:	000003f3 	.word	0x000003f3
1000fd48:	4642      	mov	r2, r8
1000fd4a:	0c12      	lsrs	r2, r2, #16
1000fd4c:	4691      	mov	r9, r2
1000fd4e:	0c1a      	lsrs	r2, r3, #16
1000fd50:	4694      	mov	ip, r2
1000fd52:	4642      	mov	r2, r8
1000fd54:	0417      	lsls	r7, r2, #16
1000fd56:	464a      	mov	r2, r9
1000fd58:	041b      	lsls	r3, r3, #16
1000fd5a:	0c1b      	lsrs	r3, r3, #16
1000fd5c:	435a      	muls	r2, r3
1000fd5e:	4660      	mov	r0, ip
1000fd60:	4690      	mov	r8, r2
1000fd62:	464a      	mov	r2, r9
1000fd64:	4342      	muls	r2, r0
1000fd66:	0010      	movs	r0, r2
1000fd68:	9203      	str	r2, [sp, #12]
1000fd6a:	4662      	mov	r2, ip
1000fd6c:	001c      	movs	r4, r3
1000fd6e:	0c3f      	lsrs	r7, r7, #16
1000fd70:	437a      	muls	r2, r7
1000fd72:	437c      	muls	r4, r7
1000fd74:	4442      	add	r2, r8
1000fd76:	9201      	str	r2, [sp, #4]
1000fd78:	0c22      	lsrs	r2, r4, #16
1000fd7a:	4692      	mov	sl, r2
1000fd7c:	9a01      	ldr	r2, [sp, #4]
1000fd7e:	4452      	add	r2, sl
1000fd80:	4590      	cmp	r8, r2
1000fd82:	d906      	bls.n	1000fd92 <__aeabi_dmul+0x23a>
1000fd84:	4682      	mov	sl, r0
1000fd86:	2080      	movs	r0, #128	; 0x80
1000fd88:	0240      	lsls	r0, r0, #9
1000fd8a:	4680      	mov	r8, r0
1000fd8c:	44c2      	add	sl, r8
1000fd8e:	4650      	mov	r0, sl
1000fd90:	9003      	str	r0, [sp, #12]
1000fd92:	0c10      	lsrs	r0, r2, #16
1000fd94:	9004      	str	r0, [sp, #16]
1000fd96:	4648      	mov	r0, r9
1000fd98:	0424      	lsls	r4, r4, #16
1000fd9a:	0c24      	lsrs	r4, r4, #16
1000fd9c:	0412      	lsls	r2, r2, #16
1000fd9e:	1912      	adds	r2, r2, r4
1000fda0:	9205      	str	r2, [sp, #20]
1000fda2:	0c2a      	lsrs	r2, r5, #16
1000fda4:	042d      	lsls	r5, r5, #16
1000fda6:	0c2d      	lsrs	r5, r5, #16
1000fda8:	4368      	muls	r0, r5
1000fdaa:	002c      	movs	r4, r5
1000fdac:	4682      	mov	sl, r0
1000fdae:	4648      	mov	r0, r9
1000fdb0:	437c      	muls	r4, r7
1000fdb2:	4350      	muls	r0, r2
1000fdb4:	4681      	mov	r9, r0
1000fdb6:	0c20      	lsrs	r0, r4, #16
1000fdb8:	4680      	mov	r8, r0
1000fdba:	4357      	muls	r7, r2
1000fdbc:	4457      	add	r7, sl
1000fdbe:	4447      	add	r7, r8
1000fdc0:	45ba      	cmp	sl, r7
1000fdc2:	d903      	bls.n	1000fdcc <__aeabi_dmul+0x274>
1000fdc4:	2080      	movs	r0, #128	; 0x80
1000fdc6:	0240      	lsls	r0, r0, #9
1000fdc8:	4680      	mov	r8, r0
1000fdca:	44c1      	add	r9, r8
1000fdcc:	0c38      	lsrs	r0, r7, #16
1000fdce:	043f      	lsls	r7, r7, #16
1000fdd0:	46b8      	mov	r8, r7
1000fdd2:	4448      	add	r0, r9
1000fdd4:	0424      	lsls	r4, r4, #16
1000fdd6:	0c24      	lsrs	r4, r4, #16
1000fdd8:	9001      	str	r0, [sp, #4]
1000fdda:	9804      	ldr	r0, [sp, #16]
1000fddc:	44a0      	add	r8, r4
1000fdde:	4440      	add	r0, r8
1000fde0:	9004      	str	r0, [sp, #16]
1000fde2:	4658      	mov	r0, fp
1000fde4:	0c00      	lsrs	r0, r0, #16
1000fde6:	4681      	mov	r9, r0
1000fde8:	4658      	mov	r0, fp
1000fdea:	0404      	lsls	r4, r0, #16
1000fdec:	0c20      	lsrs	r0, r4, #16
1000fdee:	4682      	mov	sl, r0
1000fdf0:	0007      	movs	r7, r0
1000fdf2:	4648      	mov	r0, r9
1000fdf4:	435f      	muls	r7, r3
1000fdf6:	464c      	mov	r4, r9
1000fdf8:	4343      	muls	r3, r0
1000fdfa:	4660      	mov	r0, ip
1000fdfc:	4360      	muls	r0, r4
1000fdfe:	4664      	mov	r4, ip
1000fe00:	4683      	mov	fp, r0
1000fe02:	4650      	mov	r0, sl
1000fe04:	4344      	muls	r4, r0
1000fe06:	0c38      	lsrs	r0, r7, #16
1000fe08:	4684      	mov	ip, r0
1000fe0a:	18e4      	adds	r4, r4, r3
1000fe0c:	4464      	add	r4, ip
1000fe0e:	42a3      	cmp	r3, r4
1000fe10:	d903      	bls.n	1000fe1a <__aeabi_dmul+0x2c2>
1000fe12:	2380      	movs	r3, #128	; 0x80
1000fe14:	025b      	lsls	r3, r3, #9
1000fe16:	469c      	mov	ip, r3
1000fe18:	44e3      	add	fp, ip
1000fe1a:	4648      	mov	r0, r9
1000fe1c:	043f      	lsls	r7, r7, #16
1000fe1e:	0c23      	lsrs	r3, r4, #16
1000fe20:	0c3f      	lsrs	r7, r7, #16
1000fe22:	0424      	lsls	r4, r4, #16
1000fe24:	19e4      	adds	r4, r4, r7
1000fe26:	4657      	mov	r7, sl
1000fe28:	4368      	muls	r0, r5
1000fe2a:	436f      	muls	r7, r5
1000fe2c:	4684      	mov	ip, r0
1000fe2e:	464d      	mov	r5, r9
1000fe30:	4650      	mov	r0, sl
1000fe32:	4355      	muls	r5, r2
1000fe34:	4342      	muls	r2, r0
1000fe36:	0c38      	lsrs	r0, r7, #16
1000fe38:	4681      	mov	r9, r0
1000fe3a:	4462      	add	r2, ip
1000fe3c:	444a      	add	r2, r9
1000fe3e:	445b      	add	r3, fp
1000fe40:	4594      	cmp	ip, r2
1000fe42:	d903      	bls.n	1000fe4c <__aeabi_dmul+0x2f4>
1000fe44:	2080      	movs	r0, #128	; 0x80
1000fe46:	0240      	lsls	r0, r0, #9
1000fe48:	4684      	mov	ip, r0
1000fe4a:	4465      	add	r5, ip
1000fe4c:	9803      	ldr	r0, [sp, #12]
1000fe4e:	043f      	lsls	r7, r7, #16
1000fe50:	4683      	mov	fp, r0
1000fe52:	9804      	ldr	r0, [sp, #16]
1000fe54:	0c3f      	lsrs	r7, r7, #16
1000fe56:	4684      	mov	ip, r0
1000fe58:	44e3      	add	fp, ip
1000fe5a:	45c3      	cmp	fp, r8
1000fe5c:	4180      	sbcs	r0, r0
1000fe5e:	4240      	negs	r0, r0
1000fe60:	4682      	mov	sl, r0
1000fe62:	0410      	lsls	r0, r2, #16
1000fe64:	4684      	mov	ip, r0
1000fe66:	9801      	ldr	r0, [sp, #4]
1000fe68:	4467      	add	r7, ip
1000fe6a:	4684      	mov	ip, r0
1000fe6c:	4467      	add	r7, ip
1000fe6e:	44a3      	add	fp, r4
1000fe70:	46bc      	mov	ip, r7
1000fe72:	45a3      	cmp	fp, r4
1000fe74:	41a4      	sbcs	r4, r4
1000fe76:	4699      	mov	r9, r3
1000fe78:	44d4      	add	ip, sl
1000fe7a:	4264      	negs	r4, r4
1000fe7c:	4287      	cmp	r7, r0
1000fe7e:	41bf      	sbcs	r7, r7
1000fe80:	45d4      	cmp	ip, sl
1000fe82:	4180      	sbcs	r0, r0
1000fe84:	44e1      	add	r9, ip
1000fe86:	46a0      	mov	r8, r4
1000fe88:	4599      	cmp	r9, r3
1000fe8a:	419b      	sbcs	r3, r3
1000fe8c:	427f      	negs	r7, r7
1000fe8e:	4240      	negs	r0, r0
1000fe90:	44c8      	add	r8, r9
1000fe92:	4307      	orrs	r7, r0
1000fe94:	0c12      	lsrs	r2, r2, #16
1000fe96:	18ba      	adds	r2, r7, r2
1000fe98:	45a0      	cmp	r8, r4
1000fe9a:	41a4      	sbcs	r4, r4
1000fe9c:	425f      	negs	r7, r3
1000fe9e:	003b      	movs	r3, r7
1000fea0:	4264      	negs	r4, r4
1000fea2:	4323      	orrs	r3, r4
1000fea4:	18d7      	adds	r7, r2, r3
1000fea6:	4643      	mov	r3, r8
1000fea8:	197d      	adds	r5, r7, r5
1000feaa:	0ddb      	lsrs	r3, r3, #23
1000feac:	026d      	lsls	r5, r5, #9
1000feae:	431d      	orrs	r5, r3
1000feb0:	465b      	mov	r3, fp
1000feb2:	025a      	lsls	r2, r3, #9
1000feb4:	9b05      	ldr	r3, [sp, #20]
1000feb6:	431a      	orrs	r2, r3
1000feb8:	1e53      	subs	r3, r2, #1
1000feba:	419a      	sbcs	r2, r3
1000febc:	465b      	mov	r3, fp
1000febe:	0ddb      	lsrs	r3, r3, #23
1000fec0:	431a      	orrs	r2, r3
1000fec2:	4643      	mov	r3, r8
1000fec4:	025b      	lsls	r3, r3, #9
1000fec6:	4313      	orrs	r3, r2
1000fec8:	01ea      	lsls	r2, r5, #7
1000feca:	d507      	bpl.n	1000fedc <__aeabi_dmul+0x384>
1000fecc:	2201      	movs	r2, #1
1000fece:	085c      	lsrs	r4, r3, #1
1000fed0:	4013      	ands	r3, r2
1000fed2:	4323      	orrs	r3, r4
1000fed4:	07ea      	lsls	r2, r5, #31
1000fed6:	9e02      	ldr	r6, [sp, #8]
1000fed8:	4313      	orrs	r3, r2
1000feda:	086d      	lsrs	r5, r5, #1
1000fedc:	4a57      	ldr	r2, [pc, #348]	; (1001003c <__aeabi_dmul+0x4e4>)
1000fede:	18b2      	adds	r2, r6, r2
1000fee0:	2a00      	cmp	r2, #0
1000fee2:	dd4b      	ble.n	1000ff7c <__aeabi_dmul+0x424>
1000fee4:	0758      	lsls	r0, r3, #29
1000fee6:	d009      	beq.n	1000fefc <__aeabi_dmul+0x3a4>
1000fee8:	200f      	movs	r0, #15
1000feea:	4018      	ands	r0, r3
1000feec:	2804      	cmp	r0, #4
1000feee:	d005      	beq.n	1000fefc <__aeabi_dmul+0x3a4>
1000fef0:	1d18      	adds	r0, r3, #4
1000fef2:	4298      	cmp	r0, r3
1000fef4:	419b      	sbcs	r3, r3
1000fef6:	425b      	negs	r3, r3
1000fef8:	18ed      	adds	r5, r5, r3
1000fefa:	0003      	movs	r3, r0
1000fefc:	01e8      	lsls	r0, r5, #7
1000fefe:	d504      	bpl.n	1000ff0a <__aeabi_dmul+0x3b2>
1000ff00:	4a4f      	ldr	r2, [pc, #316]	; (10010040 <__aeabi_dmul+0x4e8>)
1000ff02:	4015      	ands	r5, r2
1000ff04:	2280      	movs	r2, #128	; 0x80
1000ff06:	00d2      	lsls	r2, r2, #3
1000ff08:	18b2      	adds	r2, r6, r2
1000ff0a:	484e      	ldr	r0, [pc, #312]	; (10010044 <__aeabi_dmul+0x4ec>)
1000ff0c:	4282      	cmp	r2, r0
1000ff0e:	dd00      	ble.n	1000ff12 <__aeabi_dmul+0x3ba>
1000ff10:	e6e7      	b.n	1000fce2 <__aeabi_dmul+0x18a>
1000ff12:	2401      	movs	r4, #1
1000ff14:	08db      	lsrs	r3, r3, #3
1000ff16:	0768      	lsls	r0, r5, #29
1000ff18:	4318      	orrs	r0, r3
1000ff1a:	026d      	lsls	r5, r5, #9
1000ff1c:	0553      	lsls	r3, r2, #21
1000ff1e:	4680      	mov	r8, r0
1000ff20:	0b2d      	lsrs	r5, r5, #12
1000ff22:	0d5b      	lsrs	r3, r3, #21
1000ff24:	400c      	ands	r4, r1
1000ff26:	e67d      	b.n	1000fc24 <__aeabi_dmul+0xcc>
1000ff28:	2280      	movs	r2, #128	; 0x80
1000ff2a:	4659      	mov	r1, fp
1000ff2c:	0312      	lsls	r2, r2, #12
1000ff2e:	4211      	tst	r1, r2
1000ff30:	d008      	beq.n	1000ff44 <__aeabi_dmul+0x3ec>
1000ff32:	4215      	tst	r5, r2
1000ff34:	d106      	bne.n	1000ff44 <__aeabi_dmul+0x3ec>
1000ff36:	4315      	orrs	r5, r2
1000ff38:	032d      	lsls	r5, r5, #12
1000ff3a:	4698      	mov	r8, r3
1000ff3c:	0b2d      	lsrs	r5, r5, #12
1000ff3e:	464c      	mov	r4, r9
1000ff40:	4b41      	ldr	r3, [pc, #260]	; (10010048 <__aeabi_dmul+0x4f0>)
1000ff42:	e66f      	b.n	1000fc24 <__aeabi_dmul+0xcc>
1000ff44:	465d      	mov	r5, fp
1000ff46:	4315      	orrs	r5, r2
1000ff48:	032d      	lsls	r5, r5, #12
1000ff4a:	0b2d      	lsrs	r5, r5, #12
1000ff4c:	4b3e      	ldr	r3, [pc, #248]	; (10010048 <__aeabi_dmul+0x4f0>)
1000ff4e:	e669      	b.n	1000fc24 <__aeabi_dmul+0xcc>
1000ff50:	0003      	movs	r3, r0
1000ff52:	4655      	mov	r5, sl
1000ff54:	3b28      	subs	r3, #40	; 0x28
1000ff56:	409d      	lsls	r5, r3
1000ff58:	2300      	movs	r3, #0
1000ff5a:	e6bc      	b.n	1000fcd6 <__aeabi_dmul+0x17e>
1000ff5c:	4650      	mov	r0, sl
1000ff5e:	f000 fc75 	bl	1001084c <__clzsi2>
1000ff62:	3020      	adds	r0, #32
1000ff64:	e6a8      	b.n	1000fcb8 <__aeabi_dmul+0x160>
1000ff66:	0003      	movs	r3, r0
1000ff68:	3b28      	subs	r3, #40	; 0x28
1000ff6a:	409f      	lsls	r7, r3
1000ff6c:	2300      	movs	r3, #0
1000ff6e:	46bb      	mov	fp, r7
1000ff70:	4698      	mov	r8, r3
1000ff72:	e689      	b.n	1000fc88 <__aeabi_dmul+0x130>
1000ff74:	f000 fc6a 	bl	1001084c <__clzsi2>
1000ff78:	3020      	adds	r0, #32
1000ff7a:	e673      	b.n	1000fc64 <__aeabi_dmul+0x10c>
1000ff7c:	2401      	movs	r4, #1
1000ff7e:	1aa6      	subs	r6, r4, r2
1000ff80:	2e38      	cmp	r6, #56	; 0x38
1000ff82:	dd07      	ble.n	1000ff94 <__aeabi_dmul+0x43c>
1000ff84:	2200      	movs	r2, #0
1000ff86:	400c      	ands	r4, r1
1000ff88:	2300      	movs	r3, #0
1000ff8a:	2500      	movs	r5, #0
1000ff8c:	4690      	mov	r8, r2
1000ff8e:	e649      	b.n	1000fc24 <__aeabi_dmul+0xcc>
1000ff90:	9e02      	ldr	r6, [sp, #8]
1000ff92:	e7a3      	b.n	1000fedc <__aeabi_dmul+0x384>
1000ff94:	2e1f      	cmp	r6, #31
1000ff96:	dc20      	bgt.n	1000ffda <__aeabi_dmul+0x482>
1000ff98:	2220      	movs	r2, #32
1000ff9a:	002c      	movs	r4, r5
1000ff9c:	0018      	movs	r0, r3
1000ff9e:	1b92      	subs	r2, r2, r6
1000ffa0:	40f0      	lsrs	r0, r6
1000ffa2:	4094      	lsls	r4, r2
1000ffa4:	4093      	lsls	r3, r2
1000ffa6:	4304      	orrs	r4, r0
1000ffa8:	1e58      	subs	r0, r3, #1
1000ffaa:	4183      	sbcs	r3, r0
1000ffac:	431c      	orrs	r4, r3
1000ffae:	40f5      	lsrs	r5, r6
1000ffb0:	0763      	lsls	r3, r4, #29
1000ffb2:	d009      	beq.n	1000ffc8 <__aeabi_dmul+0x470>
1000ffb4:	230f      	movs	r3, #15
1000ffb6:	4023      	ands	r3, r4
1000ffb8:	2b04      	cmp	r3, #4
1000ffba:	d005      	beq.n	1000ffc8 <__aeabi_dmul+0x470>
1000ffbc:	0023      	movs	r3, r4
1000ffbe:	1d1c      	adds	r4, r3, #4
1000ffc0:	429c      	cmp	r4, r3
1000ffc2:	4192      	sbcs	r2, r2
1000ffc4:	4252      	negs	r2, r2
1000ffc6:	18ad      	adds	r5, r5, r2
1000ffc8:	022b      	lsls	r3, r5, #8
1000ffca:	d51f      	bpl.n	1001000c <__aeabi_dmul+0x4b4>
1000ffcc:	2401      	movs	r4, #1
1000ffce:	2200      	movs	r2, #0
1000ffd0:	400c      	ands	r4, r1
1000ffd2:	2301      	movs	r3, #1
1000ffd4:	2500      	movs	r5, #0
1000ffd6:	4690      	mov	r8, r2
1000ffd8:	e624      	b.n	1000fc24 <__aeabi_dmul+0xcc>
1000ffda:	201f      	movs	r0, #31
1000ffdc:	002c      	movs	r4, r5
1000ffde:	4240      	negs	r0, r0
1000ffe0:	1a82      	subs	r2, r0, r2
1000ffe2:	40d4      	lsrs	r4, r2
1000ffe4:	2e20      	cmp	r6, #32
1000ffe6:	d01c      	beq.n	10010022 <__aeabi_dmul+0x4ca>
1000ffe8:	2240      	movs	r2, #64	; 0x40
1000ffea:	1b96      	subs	r6, r2, r6
1000ffec:	40b5      	lsls	r5, r6
1000ffee:	432b      	orrs	r3, r5
1000fff0:	1e58      	subs	r0, r3, #1
1000fff2:	4183      	sbcs	r3, r0
1000fff4:	2007      	movs	r0, #7
1000fff6:	4323      	orrs	r3, r4
1000fff8:	4018      	ands	r0, r3
1000fffa:	2500      	movs	r5, #0
1000fffc:	2800      	cmp	r0, #0
1000fffe:	d009      	beq.n	10010014 <__aeabi_dmul+0x4bc>
10010000:	220f      	movs	r2, #15
10010002:	2500      	movs	r5, #0
10010004:	401a      	ands	r2, r3
10010006:	001c      	movs	r4, r3
10010008:	2a04      	cmp	r2, #4
1001000a:	d1d8      	bne.n	1000ffbe <__aeabi_dmul+0x466>
1001000c:	0023      	movs	r3, r4
1001000e:	0768      	lsls	r0, r5, #29
10010010:	026d      	lsls	r5, r5, #9
10010012:	0b2d      	lsrs	r5, r5, #12
10010014:	2401      	movs	r4, #1
10010016:	08db      	lsrs	r3, r3, #3
10010018:	4303      	orrs	r3, r0
1001001a:	4698      	mov	r8, r3
1001001c:	400c      	ands	r4, r1
1001001e:	2300      	movs	r3, #0
10010020:	e600      	b.n	1000fc24 <__aeabi_dmul+0xcc>
10010022:	2500      	movs	r5, #0
10010024:	e7e3      	b.n	1000ffee <__aeabi_dmul+0x496>
10010026:	2280      	movs	r2, #128	; 0x80
10010028:	2401      	movs	r4, #1
1001002a:	0312      	lsls	r2, r2, #12
1001002c:	4315      	orrs	r5, r2
1001002e:	032d      	lsls	r5, r5, #12
10010030:	4698      	mov	r8, r3
10010032:	0b2d      	lsrs	r5, r5, #12
10010034:	400c      	ands	r4, r1
10010036:	4b04      	ldr	r3, [pc, #16]	; (10010048 <__aeabi_dmul+0x4f0>)
10010038:	e5f4      	b.n	1000fc24 <__aeabi_dmul+0xcc>
1001003a:	46c0      	nop			; (mov r8, r8)
1001003c:	000003ff 	.word	0x000003ff
10010040:	feffffff 	.word	0xfeffffff
10010044:	000007fe 	.word	0x000007fe
10010048:	000007ff 	.word	0x000007ff

1001004c <__aeabi_dsub>:
1001004c:	b5f0      	push	{r4, r5, r6, r7, lr}
1001004e:	4657      	mov	r7, sl
10010050:	464e      	mov	r6, r9
10010052:	4645      	mov	r5, r8
10010054:	b4e0      	push	{r5, r6, r7}
10010056:	000e      	movs	r6, r1
10010058:	0011      	movs	r1, r2
1001005a:	0ff2      	lsrs	r2, r6, #31
1001005c:	4692      	mov	sl, r2
1001005e:	00c5      	lsls	r5, r0, #3
10010060:	0f42      	lsrs	r2, r0, #29
10010062:	0318      	lsls	r0, r3, #12
10010064:	0337      	lsls	r7, r6, #12
10010066:	0074      	lsls	r4, r6, #1
10010068:	0a40      	lsrs	r0, r0, #9
1001006a:	0f4e      	lsrs	r6, r1, #29
1001006c:	0a7f      	lsrs	r7, r7, #9
1001006e:	4330      	orrs	r0, r6
10010070:	4ecf      	ldr	r6, [pc, #828]	; (100103b0 <__aeabi_dsub+0x364>)
10010072:	4317      	orrs	r7, r2
10010074:	005a      	lsls	r2, r3, #1
10010076:	0d64      	lsrs	r4, r4, #21
10010078:	0d52      	lsrs	r2, r2, #21
1001007a:	0fdb      	lsrs	r3, r3, #31
1001007c:	00c9      	lsls	r1, r1, #3
1001007e:	42b2      	cmp	r2, r6
10010080:	d100      	bne.n	10010084 <__aeabi_dsub+0x38>
10010082:	e0e5      	b.n	10010250 <__aeabi_dsub+0x204>
10010084:	2601      	movs	r6, #1
10010086:	4073      	eors	r3, r6
10010088:	1aa6      	subs	r6, r4, r2
1001008a:	46b4      	mov	ip, r6
1001008c:	4553      	cmp	r3, sl
1001008e:	d100      	bne.n	10010092 <__aeabi_dsub+0x46>
10010090:	e0af      	b.n	100101f2 <__aeabi_dsub+0x1a6>
10010092:	2e00      	cmp	r6, #0
10010094:	dc00      	bgt.n	10010098 <__aeabi_dsub+0x4c>
10010096:	e10d      	b.n	100102b4 <__aeabi_dsub+0x268>
10010098:	2a00      	cmp	r2, #0
1001009a:	d13a      	bne.n	10010112 <__aeabi_dsub+0xc6>
1001009c:	0003      	movs	r3, r0
1001009e:	430b      	orrs	r3, r1
100100a0:	d000      	beq.n	100100a4 <__aeabi_dsub+0x58>
100100a2:	e0e4      	b.n	1001026e <__aeabi_dsub+0x222>
100100a4:	076b      	lsls	r3, r5, #29
100100a6:	d009      	beq.n	100100bc <__aeabi_dsub+0x70>
100100a8:	230f      	movs	r3, #15
100100aa:	402b      	ands	r3, r5
100100ac:	2b04      	cmp	r3, #4
100100ae:	d005      	beq.n	100100bc <__aeabi_dsub+0x70>
100100b0:	1d2b      	adds	r3, r5, #4
100100b2:	42ab      	cmp	r3, r5
100100b4:	41ad      	sbcs	r5, r5
100100b6:	426d      	negs	r5, r5
100100b8:	197f      	adds	r7, r7, r5
100100ba:	001d      	movs	r5, r3
100100bc:	023b      	lsls	r3, r7, #8
100100be:	d400      	bmi.n	100100c2 <__aeabi_dsub+0x76>
100100c0:	e088      	b.n	100101d4 <__aeabi_dsub+0x188>
100100c2:	4bbb      	ldr	r3, [pc, #748]	; (100103b0 <__aeabi_dsub+0x364>)
100100c4:	3401      	adds	r4, #1
100100c6:	429c      	cmp	r4, r3
100100c8:	d100      	bne.n	100100cc <__aeabi_dsub+0x80>
100100ca:	e110      	b.n	100102ee <__aeabi_dsub+0x2a2>
100100cc:	003a      	movs	r2, r7
100100ce:	4bb9      	ldr	r3, [pc, #740]	; (100103b4 <__aeabi_dsub+0x368>)
100100d0:	4651      	mov	r1, sl
100100d2:	401a      	ands	r2, r3
100100d4:	2301      	movs	r3, #1
100100d6:	0750      	lsls	r0, r2, #29
100100d8:	08ed      	lsrs	r5, r5, #3
100100da:	0252      	lsls	r2, r2, #9
100100dc:	0564      	lsls	r4, r4, #21
100100de:	4305      	orrs	r5, r0
100100e0:	0b12      	lsrs	r2, r2, #12
100100e2:	0d64      	lsrs	r4, r4, #21
100100e4:	400b      	ands	r3, r1
100100e6:	2100      	movs	r1, #0
100100e8:	0028      	movs	r0, r5
100100ea:	0312      	lsls	r2, r2, #12
100100ec:	0d0d      	lsrs	r5, r1, #20
100100ee:	0b12      	lsrs	r2, r2, #12
100100f0:	0564      	lsls	r4, r4, #21
100100f2:	052d      	lsls	r5, r5, #20
100100f4:	4315      	orrs	r5, r2
100100f6:	0862      	lsrs	r2, r4, #1
100100f8:	4caf      	ldr	r4, [pc, #700]	; (100103b8 <__aeabi_dsub+0x36c>)
100100fa:	07db      	lsls	r3, r3, #31
100100fc:	402c      	ands	r4, r5
100100fe:	4314      	orrs	r4, r2
10010100:	0064      	lsls	r4, r4, #1
10010102:	0864      	lsrs	r4, r4, #1
10010104:	431c      	orrs	r4, r3
10010106:	0021      	movs	r1, r4
10010108:	bc1c      	pop	{r2, r3, r4}
1001010a:	4690      	mov	r8, r2
1001010c:	4699      	mov	r9, r3
1001010e:	46a2      	mov	sl, r4
10010110:	bdf0      	pop	{r4, r5, r6, r7, pc}
10010112:	4ba7      	ldr	r3, [pc, #668]	; (100103b0 <__aeabi_dsub+0x364>)
10010114:	429c      	cmp	r4, r3
10010116:	d0c5      	beq.n	100100a4 <__aeabi_dsub+0x58>
10010118:	2380      	movs	r3, #128	; 0x80
1001011a:	041b      	lsls	r3, r3, #16
1001011c:	4318      	orrs	r0, r3
1001011e:	4663      	mov	r3, ip
10010120:	2b38      	cmp	r3, #56	; 0x38
10010122:	dd00      	ble.n	10010126 <__aeabi_dsub+0xda>
10010124:	e0fd      	b.n	10010322 <__aeabi_dsub+0x2d6>
10010126:	2b1f      	cmp	r3, #31
10010128:	dd00      	ble.n	1001012c <__aeabi_dsub+0xe0>
1001012a:	e130      	b.n	1001038e <__aeabi_dsub+0x342>
1001012c:	4662      	mov	r2, ip
1001012e:	2320      	movs	r3, #32
10010130:	1a9b      	subs	r3, r3, r2
10010132:	0002      	movs	r2, r0
10010134:	409a      	lsls	r2, r3
10010136:	4666      	mov	r6, ip
10010138:	4690      	mov	r8, r2
1001013a:	000a      	movs	r2, r1
1001013c:	4099      	lsls	r1, r3
1001013e:	40f2      	lsrs	r2, r6
10010140:	4646      	mov	r6, r8
10010142:	1e4b      	subs	r3, r1, #1
10010144:	4199      	sbcs	r1, r3
10010146:	4332      	orrs	r2, r6
10010148:	4311      	orrs	r1, r2
1001014a:	4663      	mov	r3, ip
1001014c:	0002      	movs	r2, r0
1001014e:	40da      	lsrs	r2, r3
10010150:	1a69      	subs	r1, r5, r1
10010152:	428d      	cmp	r5, r1
10010154:	419b      	sbcs	r3, r3
10010156:	000d      	movs	r5, r1
10010158:	1aba      	subs	r2, r7, r2
1001015a:	425b      	negs	r3, r3
1001015c:	1ad7      	subs	r7, r2, r3
1001015e:	023b      	lsls	r3, r7, #8
10010160:	d535      	bpl.n	100101ce <__aeabi_dsub+0x182>
10010162:	027a      	lsls	r2, r7, #9
10010164:	0a53      	lsrs	r3, r2, #9
10010166:	4698      	mov	r8, r3
10010168:	4643      	mov	r3, r8
1001016a:	2b00      	cmp	r3, #0
1001016c:	d100      	bne.n	10010170 <__aeabi_dsub+0x124>
1001016e:	e0c4      	b.n	100102fa <__aeabi_dsub+0x2ae>
10010170:	4640      	mov	r0, r8
10010172:	f000 fb6b 	bl	1001084c <__clzsi2>
10010176:	0003      	movs	r3, r0
10010178:	3b08      	subs	r3, #8
1001017a:	2b1f      	cmp	r3, #31
1001017c:	dd00      	ble.n	10010180 <__aeabi_dsub+0x134>
1001017e:	e0c5      	b.n	1001030c <__aeabi_dsub+0x2c0>
10010180:	2220      	movs	r2, #32
10010182:	0029      	movs	r1, r5
10010184:	1ad2      	subs	r2, r2, r3
10010186:	4647      	mov	r7, r8
10010188:	40d1      	lsrs	r1, r2
1001018a:	409f      	lsls	r7, r3
1001018c:	000a      	movs	r2, r1
1001018e:	409d      	lsls	r5, r3
10010190:	433a      	orrs	r2, r7
10010192:	429c      	cmp	r4, r3
10010194:	dd00      	ble.n	10010198 <__aeabi_dsub+0x14c>
10010196:	e0c0      	b.n	1001031a <__aeabi_dsub+0x2ce>
10010198:	1b1c      	subs	r4, r3, r4
1001019a:	1c63      	adds	r3, r4, #1
1001019c:	2b1f      	cmp	r3, #31
1001019e:	dd00      	ble.n	100101a2 <__aeabi_dsub+0x156>
100101a0:	e0e4      	b.n	1001036c <__aeabi_dsub+0x320>
100101a2:	2120      	movs	r1, #32
100101a4:	0014      	movs	r4, r2
100101a6:	0028      	movs	r0, r5
100101a8:	1ac9      	subs	r1, r1, r3
100101aa:	40d8      	lsrs	r0, r3
100101ac:	408c      	lsls	r4, r1
100101ae:	408d      	lsls	r5, r1
100101b0:	4304      	orrs	r4, r0
100101b2:	40da      	lsrs	r2, r3
100101b4:	1e68      	subs	r0, r5, #1
100101b6:	4185      	sbcs	r5, r0
100101b8:	0017      	movs	r7, r2
100101ba:	4325      	orrs	r5, r4
100101bc:	2400      	movs	r4, #0
100101be:	e771      	b.n	100100a4 <__aeabi_dsub+0x58>
100101c0:	4642      	mov	r2, r8
100101c2:	4663      	mov	r3, ip
100101c4:	431a      	orrs	r2, r3
100101c6:	d100      	bne.n	100101ca <__aeabi_dsub+0x17e>
100101c8:	e24c      	b.n	10010664 <__aeabi_dsub+0x618>
100101ca:	4667      	mov	r7, ip
100101cc:	4645      	mov	r5, r8
100101ce:	076b      	lsls	r3, r5, #29
100101d0:	d000      	beq.n	100101d4 <__aeabi_dsub+0x188>
100101d2:	e769      	b.n	100100a8 <__aeabi_dsub+0x5c>
100101d4:	2301      	movs	r3, #1
100101d6:	4651      	mov	r1, sl
100101d8:	0778      	lsls	r0, r7, #29
100101da:	08ed      	lsrs	r5, r5, #3
100101dc:	08fa      	lsrs	r2, r7, #3
100101de:	400b      	ands	r3, r1
100101e0:	4305      	orrs	r5, r0
100101e2:	4973      	ldr	r1, [pc, #460]	; (100103b0 <__aeabi_dsub+0x364>)
100101e4:	428c      	cmp	r4, r1
100101e6:	d038      	beq.n	1001025a <__aeabi_dsub+0x20e>
100101e8:	0312      	lsls	r2, r2, #12
100101ea:	0564      	lsls	r4, r4, #21
100101ec:	0b12      	lsrs	r2, r2, #12
100101ee:	0d64      	lsrs	r4, r4, #21
100101f0:	e779      	b.n	100100e6 <__aeabi_dsub+0x9a>
100101f2:	2e00      	cmp	r6, #0
100101f4:	dc00      	bgt.n	100101f8 <__aeabi_dsub+0x1ac>
100101f6:	e09a      	b.n	1001032e <__aeabi_dsub+0x2e2>
100101f8:	2a00      	cmp	r2, #0
100101fa:	d047      	beq.n	1001028c <__aeabi_dsub+0x240>
100101fc:	4a6c      	ldr	r2, [pc, #432]	; (100103b0 <__aeabi_dsub+0x364>)
100101fe:	4294      	cmp	r4, r2
10010200:	d100      	bne.n	10010204 <__aeabi_dsub+0x1b8>
10010202:	e74f      	b.n	100100a4 <__aeabi_dsub+0x58>
10010204:	2280      	movs	r2, #128	; 0x80
10010206:	0412      	lsls	r2, r2, #16
10010208:	4310      	orrs	r0, r2
1001020a:	4662      	mov	r2, ip
1001020c:	2a38      	cmp	r2, #56	; 0x38
1001020e:	dc00      	bgt.n	10010212 <__aeabi_dsub+0x1c6>
10010210:	e108      	b.n	10010424 <__aeabi_dsub+0x3d8>
10010212:	4301      	orrs	r1, r0
10010214:	1e48      	subs	r0, r1, #1
10010216:	4181      	sbcs	r1, r0
10010218:	2200      	movs	r2, #0
1001021a:	b2c9      	uxtb	r1, r1
1001021c:	1949      	adds	r1, r1, r5
1001021e:	19d2      	adds	r2, r2, r7
10010220:	42a9      	cmp	r1, r5
10010222:	41bf      	sbcs	r7, r7
10010224:	000d      	movs	r5, r1
10010226:	427f      	negs	r7, r7
10010228:	18bf      	adds	r7, r7, r2
1001022a:	023a      	lsls	r2, r7, #8
1001022c:	d400      	bmi.n	10010230 <__aeabi_dsub+0x1e4>
1001022e:	e142      	b.n	100104b6 <__aeabi_dsub+0x46a>
10010230:	4a5f      	ldr	r2, [pc, #380]	; (100103b0 <__aeabi_dsub+0x364>)
10010232:	3401      	adds	r4, #1
10010234:	4294      	cmp	r4, r2
10010236:	d100      	bne.n	1001023a <__aeabi_dsub+0x1ee>
10010238:	e14e      	b.n	100104d8 <__aeabi_dsub+0x48c>
1001023a:	2001      	movs	r0, #1
1001023c:	4a5d      	ldr	r2, [pc, #372]	; (100103b4 <__aeabi_dsub+0x368>)
1001023e:	0869      	lsrs	r1, r5, #1
10010240:	403a      	ands	r2, r7
10010242:	4028      	ands	r0, r5
10010244:	4308      	orrs	r0, r1
10010246:	07d5      	lsls	r5, r2, #31
10010248:	4305      	orrs	r5, r0
1001024a:	0857      	lsrs	r7, r2, #1
1001024c:	469a      	mov	sl, r3
1001024e:	e729      	b.n	100100a4 <__aeabi_dsub+0x58>
10010250:	0006      	movs	r6, r0
10010252:	430e      	orrs	r6, r1
10010254:	d000      	beq.n	10010258 <__aeabi_dsub+0x20c>
10010256:	e717      	b.n	10010088 <__aeabi_dsub+0x3c>
10010258:	e714      	b.n	10010084 <__aeabi_dsub+0x38>
1001025a:	0029      	movs	r1, r5
1001025c:	4311      	orrs	r1, r2
1001025e:	d100      	bne.n	10010262 <__aeabi_dsub+0x216>
10010260:	e1f9      	b.n	10010656 <__aeabi_dsub+0x60a>
10010262:	2180      	movs	r1, #128	; 0x80
10010264:	0309      	lsls	r1, r1, #12
10010266:	430a      	orrs	r2, r1
10010268:	0312      	lsls	r2, r2, #12
1001026a:	0b12      	lsrs	r2, r2, #12
1001026c:	e73b      	b.n	100100e6 <__aeabi_dsub+0x9a>
1001026e:	2301      	movs	r3, #1
10010270:	425b      	negs	r3, r3
10010272:	4698      	mov	r8, r3
10010274:	44c4      	add	ip, r8
10010276:	4663      	mov	r3, ip
10010278:	2b00      	cmp	r3, #0
1001027a:	d172      	bne.n	10010362 <__aeabi_dsub+0x316>
1001027c:	1a69      	subs	r1, r5, r1
1001027e:	428d      	cmp	r5, r1
10010280:	419b      	sbcs	r3, r3
10010282:	1a3f      	subs	r7, r7, r0
10010284:	425b      	negs	r3, r3
10010286:	1aff      	subs	r7, r7, r3
10010288:	000d      	movs	r5, r1
1001028a:	e768      	b.n	1001015e <__aeabi_dsub+0x112>
1001028c:	0002      	movs	r2, r0
1001028e:	430a      	orrs	r2, r1
10010290:	d100      	bne.n	10010294 <__aeabi_dsub+0x248>
10010292:	e707      	b.n	100100a4 <__aeabi_dsub+0x58>
10010294:	2201      	movs	r2, #1
10010296:	4252      	negs	r2, r2
10010298:	4690      	mov	r8, r2
1001029a:	44c4      	add	ip, r8
1001029c:	4662      	mov	r2, ip
1001029e:	2a00      	cmp	r2, #0
100102a0:	d000      	beq.n	100102a4 <__aeabi_dsub+0x258>
100102a2:	e0e6      	b.n	10010472 <__aeabi_dsub+0x426>
100102a4:	1869      	adds	r1, r5, r1
100102a6:	42a9      	cmp	r1, r5
100102a8:	41b6      	sbcs	r6, r6
100102aa:	183f      	adds	r7, r7, r0
100102ac:	4276      	negs	r6, r6
100102ae:	19f7      	adds	r7, r6, r7
100102b0:	000d      	movs	r5, r1
100102b2:	e7ba      	b.n	1001022a <__aeabi_dsub+0x1de>
100102b4:	2e00      	cmp	r6, #0
100102b6:	d000      	beq.n	100102ba <__aeabi_dsub+0x26e>
100102b8:	e080      	b.n	100103bc <__aeabi_dsub+0x370>
100102ba:	1c62      	adds	r2, r4, #1
100102bc:	0552      	lsls	r2, r2, #21
100102be:	0d52      	lsrs	r2, r2, #21
100102c0:	2a01      	cmp	r2, #1
100102c2:	dc00      	bgt.n	100102c6 <__aeabi_dsub+0x27a>
100102c4:	e0f9      	b.n	100104ba <__aeabi_dsub+0x46e>
100102c6:	1a6a      	subs	r2, r5, r1
100102c8:	4691      	mov	r9, r2
100102ca:	454d      	cmp	r5, r9
100102cc:	41b6      	sbcs	r6, r6
100102ce:	1a3a      	subs	r2, r7, r0
100102d0:	4276      	negs	r6, r6
100102d2:	1b92      	subs	r2, r2, r6
100102d4:	4690      	mov	r8, r2
100102d6:	0212      	lsls	r2, r2, #8
100102d8:	d400      	bmi.n	100102dc <__aeabi_dsub+0x290>
100102da:	e099      	b.n	10010410 <__aeabi_dsub+0x3c4>
100102dc:	1b4d      	subs	r5, r1, r5
100102de:	42a9      	cmp	r1, r5
100102e0:	4189      	sbcs	r1, r1
100102e2:	1bc7      	subs	r7, r0, r7
100102e4:	4249      	negs	r1, r1
100102e6:	1a7a      	subs	r2, r7, r1
100102e8:	4690      	mov	r8, r2
100102ea:	469a      	mov	sl, r3
100102ec:	e73c      	b.n	10010168 <__aeabi_dsub+0x11c>
100102ee:	4652      	mov	r2, sl
100102f0:	2301      	movs	r3, #1
100102f2:	2500      	movs	r5, #0
100102f4:	4013      	ands	r3, r2
100102f6:	2200      	movs	r2, #0
100102f8:	e6f5      	b.n	100100e6 <__aeabi_dsub+0x9a>
100102fa:	0028      	movs	r0, r5
100102fc:	f000 faa6 	bl	1001084c <__clzsi2>
10010300:	3020      	adds	r0, #32
10010302:	0003      	movs	r3, r0
10010304:	3b08      	subs	r3, #8
10010306:	2b1f      	cmp	r3, #31
10010308:	dc00      	bgt.n	1001030c <__aeabi_dsub+0x2c0>
1001030a:	e739      	b.n	10010180 <__aeabi_dsub+0x134>
1001030c:	002a      	movs	r2, r5
1001030e:	3828      	subs	r0, #40	; 0x28
10010310:	4082      	lsls	r2, r0
10010312:	2500      	movs	r5, #0
10010314:	429c      	cmp	r4, r3
10010316:	dc00      	bgt.n	1001031a <__aeabi_dsub+0x2ce>
10010318:	e73e      	b.n	10010198 <__aeabi_dsub+0x14c>
1001031a:	4f26      	ldr	r7, [pc, #152]	; (100103b4 <__aeabi_dsub+0x368>)
1001031c:	1ae4      	subs	r4, r4, r3
1001031e:	4017      	ands	r7, r2
10010320:	e6c0      	b.n	100100a4 <__aeabi_dsub+0x58>
10010322:	4301      	orrs	r1, r0
10010324:	1e48      	subs	r0, r1, #1
10010326:	4181      	sbcs	r1, r0
10010328:	2200      	movs	r2, #0
1001032a:	b2c9      	uxtb	r1, r1
1001032c:	e710      	b.n	10010150 <__aeabi_dsub+0x104>
1001032e:	2e00      	cmp	r6, #0
10010330:	d000      	beq.n	10010334 <__aeabi_dsub+0x2e8>
10010332:	e0f1      	b.n	10010518 <__aeabi_dsub+0x4cc>
10010334:	1c62      	adds	r2, r4, #1
10010336:	4694      	mov	ip, r2
10010338:	0552      	lsls	r2, r2, #21
1001033a:	0d52      	lsrs	r2, r2, #21
1001033c:	2a01      	cmp	r2, #1
1001033e:	dc00      	bgt.n	10010342 <__aeabi_dsub+0x2f6>
10010340:	e0a0      	b.n	10010484 <__aeabi_dsub+0x438>
10010342:	4a1b      	ldr	r2, [pc, #108]	; (100103b0 <__aeabi_dsub+0x364>)
10010344:	4594      	cmp	ip, r2
10010346:	d100      	bne.n	1001034a <__aeabi_dsub+0x2fe>
10010348:	e0c5      	b.n	100104d6 <__aeabi_dsub+0x48a>
1001034a:	1869      	adds	r1, r5, r1
1001034c:	42a9      	cmp	r1, r5
1001034e:	4192      	sbcs	r2, r2
10010350:	183f      	adds	r7, r7, r0
10010352:	4252      	negs	r2, r2
10010354:	19d2      	adds	r2, r2, r7
10010356:	0849      	lsrs	r1, r1, #1
10010358:	07d5      	lsls	r5, r2, #31
1001035a:	430d      	orrs	r5, r1
1001035c:	0857      	lsrs	r7, r2, #1
1001035e:	4664      	mov	r4, ip
10010360:	e6a0      	b.n	100100a4 <__aeabi_dsub+0x58>
10010362:	4b13      	ldr	r3, [pc, #76]	; (100103b0 <__aeabi_dsub+0x364>)
10010364:	429c      	cmp	r4, r3
10010366:	d000      	beq.n	1001036a <__aeabi_dsub+0x31e>
10010368:	e6d9      	b.n	1001011e <__aeabi_dsub+0xd2>
1001036a:	e69b      	b.n	100100a4 <__aeabi_dsub+0x58>
1001036c:	0011      	movs	r1, r2
1001036e:	3c1f      	subs	r4, #31
10010370:	40e1      	lsrs	r1, r4
10010372:	000c      	movs	r4, r1
10010374:	2b20      	cmp	r3, #32
10010376:	d100      	bne.n	1001037a <__aeabi_dsub+0x32e>
10010378:	e080      	b.n	1001047c <__aeabi_dsub+0x430>
1001037a:	2140      	movs	r1, #64	; 0x40
1001037c:	1acb      	subs	r3, r1, r3
1001037e:	409a      	lsls	r2, r3
10010380:	4315      	orrs	r5, r2
10010382:	1e6a      	subs	r2, r5, #1
10010384:	4195      	sbcs	r5, r2
10010386:	2700      	movs	r7, #0
10010388:	4325      	orrs	r5, r4
1001038a:	2400      	movs	r4, #0
1001038c:	e71f      	b.n	100101ce <__aeabi_dsub+0x182>
1001038e:	4663      	mov	r3, ip
10010390:	0002      	movs	r2, r0
10010392:	3b20      	subs	r3, #32
10010394:	40da      	lsrs	r2, r3
10010396:	4663      	mov	r3, ip
10010398:	2b20      	cmp	r3, #32
1001039a:	d071      	beq.n	10010480 <__aeabi_dsub+0x434>
1001039c:	2340      	movs	r3, #64	; 0x40
1001039e:	4666      	mov	r6, ip
100103a0:	1b9b      	subs	r3, r3, r6
100103a2:	4098      	lsls	r0, r3
100103a4:	4301      	orrs	r1, r0
100103a6:	1e48      	subs	r0, r1, #1
100103a8:	4181      	sbcs	r1, r0
100103aa:	4311      	orrs	r1, r2
100103ac:	2200      	movs	r2, #0
100103ae:	e6cf      	b.n	10010150 <__aeabi_dsub+0x104>
100103b0:	000007ff 	.word	0x000007ff
100103b4:	ff7fffff 	.word	0xff7fffff
100103b8:	800fffff 	.word	0x800fffff
100103bc:	2c00      	cmp	r4, #0
100103be:	d048      	beq.n	10010452 <__aeabi_dsub+0x406>
100103c0:	4cca      	ldr	r4, [pc, #808]	; (100106ec <__aeabi_dsub+0x6a0>)
100103c2:	42a2      	cmp	r2, r4
100103c4:	d100      	bne.n	100103c8 <__aeabi_dsub+0x37c>
100103c6:	e0a2      	b.n	1001050e <__aeabi_dsub+0x4c2>
100103c8:	4274      	negs	r4, r6
100103ca:	46a1      	mov	r9, r4
100103cc:	2480      	movs	r4, #128	; 0x80
100103ce:	0424      	lsls	r4, r4, #16
100103d0:	4327      	orrs	r7, r4
100103d2:	464c      	mov	r4, r9
100103d4:	2c38      	cmp	r4, #56	; 0x38
100103d6:	dd00      	ble.n	100103da <__aeabi_dsub+0x38e>
100103d8:	e0db      	b.n	10010592 <__aeabi_dsub+0x546>
100103da:	2c1f      	cmp	r4, #31
100103dc:	dd00      	ble.n	100103e0 <__aeabi_dsub+0x394>
100103de:	e144      	b.n	1001066a <__aeabi_dsub+0x61e>
100103e0:	464e      	mov	r6, r9
100103e2:	2420      	movs	r4, #32
100103e4:	1ba4      	subs	r4, r4, r6
100103e6:	003e      	movs	r6, r7
100103e8:	40a6      	lsls	r6, r4
100103ea:	46a2      	mov	sl, r4
100103ec:	46b0      	mov	r8, r6
100103ee:	464c      	mov	r4, r9
100103f0:	002e      	movs	r6, r5
100103f2:	40e6      	lsrs	r6, r4
100103f4:	46b4      	mov	ip, r6
100103f6:	4646      	mov	r6, r8
100103f8:	4664      	mov	r4, ip
100103fa:	4326      	orrs	r6, r4
100103fc:	4654      	mov	r4, sl
100103fe:	40a5      	lsls	r5, r4
10010400:	1e6c      	subs	r4, r5, #1
10010402:	41a5      	sbcs	r5, r4
10010404:	0034      	movs	r4, r6
10010406:	432c      	orrs	r4, r5
10010408:	464d      	mov	r5, r9
1001040a:	40ef      	lsrs	r7, r5
1001040c:	1b0d      	subs	r5, r1, r4
1001040e:	e028      	b.n	10010462 <__aeabi_dsub+0x416>
10010410:	464a      	mov	r2, r9
10010412:	4643      	mov	r3, r8
10010414:	464d      	mov	r5, r9
10010416:	431a      	orrs	r2, r3
10010418:	d000      	beq.n	1001041c <__aeabi_dsub+0x3d0>
1001041a:	e6a5      	b.n	10010168 <__aeabi_dsub+0x11c>
1001041c:	2300      	movs	r3, #0
1001041e:	2400      	movs	r4, #0
10010420:	2500      	movs	r5, #0
10010422:	e6de      	b.n	100101e2 <__aeabi_dsub+0x196>
10010424:	2a1f      	cmp	r2, #31
10010426:	dc5a      	bgt.n	100104de <__aeabi_dsub+0x492>
10010428:	4666      	mov	r6, ip
1001042a:	2220      	movs	r2, #32
1001042c:	1b92      	subs	r2, r2, r6
1001042e:	0006      	movs	r6, r0
10010430:	4096      	lsls	r6, r2
10010432:	4691      	mov	r9, r2
10010434:	46b0      	mov	r8, r6
10010436:	4662      	mov	r2, ip
10010438:	000e      	movs	r6, r1
1001043a:	40d6      	lsrs	r6, r2
1001043c:	4642      	mov	r2, r8
1001043e:	4316      	orrs	r6, r2
10010440:	464a      	mov	r2, r9
10010442:	4091      	lsls	r1, r2
10010444:	1e4a      	subs	r2, r1, #1
10010446:	4191      	sbcs	r1, r2
10010448:	0002      	movs	r2, r0
1001044a:	4660      	mov	r0, ip
1001044c:	4331      	orrs	r1, r6
1001044e:	40c2      	lsrs	r2, r0
10010450:	e6e4      	b.n	1001021c <__aeabi_dsub+0x1d0>
10010452:	003c      	movs	r4, r7
10010454:	432c      	orrs	r4, r5
10010456:	d05a      	beq.n	1001050e <__aeabi_dsub+0x4c2>
10010458:	43f4      	mvns	r4, r6
1001045a:	46a1      	mov	r9, r4
1001045c:	2c00      	cmp	r4, #0
1001045e:	d152      	bne.n	10010506 <__aeabi_dsub+0x4ba>
10010460:	1b4d      	subs	r5, r1, r5
10010462:	42a9      	cmp	r1, r5
10010464:	4189      	sbcs	r1, r1
10010466:	1bc7      	subs	r7, r0, r7
10010468:	4249      	negs	r1, r1
1001046a:	1a7f      	subs	r7, r7, r1
1001046c:	0014      	movs	r4, r2
1001046e:	469a      	mov	sl, r3
10010470:	e675      	b.n	1001015e <__aeabi_dsub+0x112>
10010472:	4a9e      	ldr	r2, [pc, #632]	; (100106ec <__aeabi_dsub+0x6a0>)
10010474:	4294      	cmp	r4, r2
10010476:	d000      	beq.n	1001047a <__aeabi_dsub+0x42e>
10010478:	e6c7      	b.n	1001020a <__aeabi_dsub+0x1be>
1001047a:	e613      	b.n	100100a4 <__aeabi_dsub+0x58>
1001047c:	2200      	movs	r2, #0
1001047e:	e77f      	b.n	10010380 <__aeabi_dsub+0x334>
10010480:	2000      	movs	r0, #0
10010482:	e78f      	b.n	100103a4 <__aeabi_dsub+0x358>
10010484:	2c00      	cmp	r4, #0
10010486:	d000      	beq.n	1001048a <__aeabi_dsub+0x43e>
10010488:	e0c8      	b.n	1001061c <__aeabi_dsub+0x5d0>
1001048a:	003b      	movs	r3, r7
1001048c:	432b      	orrs	r3, r5
1001048e:	d100      	bne.n	10010492 <__aeabi_dsub+0x446>
10010490:	e10f      	b.n	100106b2 <__aeabi_dsub+0x666>
10010492:	0003      	movs	r3, r0
10010494:	430b      	orrs	r3, r1
10010496:	d100      	bne.n	1001049a <__aeabi_dsub+0x44e>
10010498:	e604      	b.n	100100a4 <__aeabi_dsub+0x58>
1001049a:	1869      	adds	r1, r5, r1
1001049c:	42a9      	cmp	r1, r5
1001049e:	419b      	sbcs	r3, r3
100104a0:	183f      	adds	r7, r7, r0
100104a2:	425b      	negs	r3, r3
100104a4:	19df      	adds	r7, r3, r7
100104a6:	023b      	lsls	r3, r7, #8
100104a8:	d400      	bmi.n	100104ac <__aeabi_dsub+0x460>
100104aa:	e11a      	b.n	100106e2 <__aeabi_dsub+0x696>
100104ac:	4b90      	ldr	r3, [pc, #576]	; (100106f0 <__aeabi_dsub+0x6a4>)
100104ae:	000d      	movs	r5, r1
100104b0:	401f      	ands	r7, r3
100104b2:	4664      	mov	r4, ip
100104b4:	e5f6      	b.n	100100a4 <__aeabi_dsub+0x58>
100104b6:	469a      	mov	sl, r3
100104b8:	e689      	b.n	100101ce <__aeabi_dsub+0x182>
100104ba:	003a      	movs	r2, r7
100104bc:	432a      	orrs	r2, r5
100104be:	2c00      	cmp	r4, #0
100104c0:	d15c      	bne.n	1001057c <__aeabi_dsub+0x530>
100104c2:	2a00      	cmp	r2, #0
100104c4:	d175      	bne.n	100105b2 <__aeabi_dsub+0x566>
100104c6:	0002      	movs	r2, r0
100104c8:	430a      	orrs	r2, r1
100104ca:	d100      	bne.n	100104ce <__aeabi_dsub+0x482>
100104cc:	e0ca      	b.n	10010664 <__aeabi_dsub+0x618>
100104ce:	0007      	movs	r7, r0
100104d0:	000d      	movs	r5, r1
100104d2:	469a      	mov	sl, r3
100104d4:	e5e6      	b.n	100100a4 <__aeabi_dsub+0x58>
100104d6:	4664      	mov	r4, ip
100104d8:	2200      	movs	r2, #0
100104da:	2500      	movs	r5, #0
100104dc:	e681      	b.n	100101e2 <__aeabi_dsub+0x196>
100104de:	4662      	mov	r2, ip
100104e0:	0006      	movs	r6, r0
100104e2:	3a20      	subs	r2, #32
100104e4:	40d6      	lsrs	r6, r2
100104e6:	4662      	mov	r2, ip
100104e8:	46b0      	mov	r8, r6
100104ea:	2a20      	cmp	r2, #32
100104ec:	d100      	bne.n	100104f0 <__aeabi_dsub+0x4a4>
100104ee:	e0b7      	b.n	10010660 <__aeabi_dsub+0x614>
100104f0:	2240      	movs	r2, #64	; 0x40
100104f2:	4666      	mov	r6, ip
100104f4:	1b92      	subs	r2, r2, r6
100104f6:	4090      	lsls	r0, r2
100104f8:	4301      	orrs	r1, r0
100104fa:	4642      	mov	r2, r8
100104fc:	1e48      	subs	r0, r1, #1
100104fe:	4181      	sbcs	r1, r0
10010500:	4311      	orrs	r1, r2
10010502:	2200      	movs	r2, #0
10010504:	e68a      	b.n	1001021c <__aeabi_dsub+0x1d0>
10010506:	4c79      	ldr	r4, [pc, #484]	; (100106ec <__aeabi_dsub+0x6a0>)
10010508:	42a2      	cmp	r2, r4
1001050a:	d000      	beq.n	1001050e <__aeabi_dsub+0x4c2>
1001050c:	e761      	b.n	100103d2 <__aeabi_dsub+0x386>
1001050e:	0007      	movs	r7, r0
10010510:	000d      	movs	r5, r1
10010512:	0014      	movs	r4, r2
10010514:	469a      	mov	sl, r3
10010516:	e5c5      	b.n	100100a4 <__aeabi_dsub+0x58>
10010518:	2c00      	cmp	r4, #0
1001051a:	d141      	bne.n	100105a0 <__aeabi_dsub+0x554>
1001051c:	003c      	movs	r4, r7
1001051e:	432c      	orrs	r4, r5
10010520:	d078      	beq.n	10010614 <__aeabi_dsub+0x5c8>
10010522:	43f4      	mvns	r4, r6
10010524:	46a1      	mov	r9, r4
10010526:	2c00      	cmp	r4, #0
10010528:	d020      	beq.n	1001056c <__aeabi_dsub+0x520>
1001052a:	4c70      	ldr	r4, [pc, #448]	; (100106ec <__aeabi_dsub+0x6a0>)
1001052c:	42a2      	cmp	r2, r4
1001052e:	d071      	beq.n	10010614 <__aeabi_dsub+0x5c8>
10010530:	464c      	mov	r4, r9
10010532:	2c38      	cmp	r4, #56	; 0x38
10010534:	dd00      	ble.n	10010538 <__aeabi_dsub+0x4ec>
10010536:	e0b2      	b.n	1001069e <__aeabi_dsub+0x652>
10010538:	2c1f      	cmp	r4, #31
1001053a:	dd00      	ble.n	1001053e <__aeabi_dsub+0x4f2>
1001053c:	e0bc      	b.n	100106b8 <__aeabi_dsub+0x66c>
1001053e:	2620      	movs	r6, #32
10010540:	1b34      	subs	r4, r6, r4
10010542:	46a2      	mov	sl, r4
10010544:	003c      	movs	r4, r7
10010546:	4656      	mov	r6, sl
10010548:	40b4      	lsls	r4, r6
1001054a:	464e      	mov	r6, r9
1001054c:	46a0      	mov	r8, r4
1001054e:	002c      	movs	r4, r5
10010550:	40f4      	lsrs	r4, r6
10010552:	46a4      	mov	ip, r4
10010554:	4644      	mov	r4, r8
10010556:	4666      	mov	r6, ip
10010558:	4334      	orrs	r4, r6
1001055a:	46a4      	mov	ip, r4
1001055c:	4654      	mov	r4, sl
1001055e:	40a5      	lsls	r5, r4
10010560:	4664      	mov	r4, ip
10010562:	1e6e      	subs	r6, r5, #1
10010564:	41b5      	sbcs	r5, r6
10010566:	4325      	orrs	r5, r4
10010568:	464c      	mov	r4, r9
1001056a:	40e7      	lsrs	r7, r4
1001056c:	186d      	adds	r5, r5, r1
1001056e:	428d      	cmp	r5, r1
10010570:	4189      	sbcs	r1, r1
10010572:	183f      	adds	r7, r7, r0
10010574:	4249      	negs	r1, r1
10010576:	19cf      	adds	r7, r1, r7
10010578:	0014      	movs	r4, r2
1001057a:	e656      	b.n	1001022a <__aeabi_dsub+0x1de>
1001057c:	2a00      	cmp	r2, #0
1001057e:	d12f      	bne.n	100105e0 <__aeabi_dsub+0x594>
10010580:	0002      	movs	r2, r0
10010582:	430a      	orrs	r2, r1
10010584:	d100      	bne.n	10010588 <__aeabi_dsub+0x53c>
10010586:	e084      	b.n	10010692 <__aeabi_dsub+0x646>
10010588:	0007      	movs	r7, r0
1001058a:	000d      	movs	r5, r1
1001058c:	469a      	mov	sl, r3
1001058e:	4c57      	ldr	r4, [pc, #348]	; (100106ec <__aeabi_dsub+0x6a0>)
10010590:	e588      	b.n	100100a4 <__aeabi_dsub+0x58>
10010592:	433d      	orrs	r5, r7
10010594:	1e6f      	subs	r7, r5, #1
10010596:	41bd      	sbcs	r5, r7
10010598:	b2ec      	uxtb	r4, r5
1001059a:	2700      	movs	r7, #0
1001059c:	1b0d      	subs	r5, r1, r4
1001059e:	e760      	b.n	10010462 <__aeabi_dsub+0x416>
100105a0:	4c52      	ldr	r4, [pc, #328]	; (100106ec <__aeabi_dsub+0x6a0>)
100105a2:	42a2      	cmp	r2, r4
100105a4:	d036      	beq.n	10010614 <__aeabi_dsub+0x5c8>
100105a6:	4274      	negs	r4, r6
100105a8:	2680      	movs	r6, #128	; 0x80
100105aa:	0436      	lsls	r6, r6, #16
100105ac:	46a1      	mov	r9, r4
100105ae:	4337      	orrs	r7, r6
100105b0:	e7be      	b.n	10010530 <__aeabi_dsub+0x4e4>
100105b2:	0002      	movs	r2, r0
100105b4:	430a      	orrs	r2, r1
100105b6:	d100      	bne.n	100105ba <__aeabi_dsub+0x56e>
100105b8:	e574      	b.n	100100a4 <__aeabi_dsub+0x58>
100105ba:	1a6a      	subs	r2, r5, r1
100105bc:	4690      	mov	r8, r2
100105be:	4545      	cmp	r5, r8
100105c0:	41b6      	sbcs	r6, r6
100105c2:	1a3a      	subs	r2, r7, r0
100105c4:	4276      	negs	r6, r6
100105c6:	1b92      	subs	r2, r2, r6
100105c8:	4694      	mov	ip, r2
100105ca:	0212      	lsls	r2, r2, #8
100105cc:	d400      	bmi.n	100105d0 <__aeabi_dsub+0x584>
100105ce:	e5f7      	b.n	100101c0 <__aeabi_dsub+0x174>
100105d0:	1b4d      	subs	r5, r1, r5
100105d2:	42a9      	cmp	r1, r5
100105d4:	4189      	sbcs	r1, r1
100105d6:	1bc7      	subs	r7, r0, r7
100105d8:	4249      	negs	r1, r1
100105da:	1a7f      	subs	r7, r7, r1
100105dc:	469a      	mov	sl, r3
100105de:	e561      	b.n	100100a4 <__aeabi_dsub+0x58>
100105e0:	0002      	movs	r2, r0
100105e2:	430a      	orrs	r2, r1
100105e4:	d03a      	beq.n	1001065c <__aeabi_dsub+0x610>
100105e6:	08ed      	lsrs	r5, r5, #3
100105e8:	077c      	lsls	r4, r7, #29
100105ea:	432c      	orrs	r4, r5
100105ec:	2580      	movs	r5, #128	; 0x80
100105ee:	08fa      	lsrs	r2, r7, #3
100105f0:	032d      	lsls	r5, r5, #12
100105f2:	422a      	tst	r2, r5
100105f4:	d008      	beq.n	10010608 <__aeabi_dsub+0x5bc>
100105f6:	08c7      	lsrs	r7, r0, #3
100105f8:	422f      	tst	r7, r5
100105fa:	d105      	bne.n	10010608 <__aeabi_dsub+0x5bc>
100105fc:	0745      	lsls	r5, r0, #29
100105fe:	002c      	movs	r4, r5
10010600:	003a      	movs	r2, r7
10010602:	469a      	mov	sl, r3
10010604:	08c9      	lsrs	r1, r1, #3
10010606:	430c      	orrs	r4, r1
10010608:	0f67      	lsrs	r7, r4, #29
1001060a:	00d2      	lsls	r2, r2, #3
1001060c:	00e5      	lsls	r5, r4, #3
1001060e:	4317      	orrs	r7, r2
10010610:	4c36      	ldr	r4, [pc, #216]	; (100106ec <__aeabi_dsub+0x6a0>)
10010612:	e547      	b.n	100100a4 <__aeabi_dsub+0x58>
10010614:	0007      	movs	r7, r0
10010616:	000d      	movs	r5, r1
10010618:	0014      	movs	r4, r2
1001061a:	e543      	b.n	100100a4 <__aeabi_dsub+0x58>
1001061c:	003a      	movs	r2, r7
1001061e:	432a      	orrs	r2, r5
10010620:	d043      	beq.n	100106aa <__aeabi_dsub+0x65e>
10010622:	0002      	movs	r2, r0
10010624:	430a      	orrs	r2, r1
10010626:	d019      	beq.n	1001065c <__aeabi_dsub+0x610>
10010628:	08ed      	lsrs	r5, r5, #3
1001062a:	077c      	lsls	r4, r7, #29
1001062c:	432c      	orrs	r4, r5
1001062e:	2580      	movs	r5, #128	; 0x80
10010630:	08fa      	lsrs	r2, r7, #3
10010632:	032d      	lsls	r5, r5, #12
10010634:	422a      	tst	r2, r5
10010636:	d007      	beq.n	10010648 <__aeabi_dsub+0x5fc>
10010638:	08c6      	lsrs	r6, r0, #3
1001063a:	422e      	tst	r6, r5
1001063c:	d104      	bne.n	10010648 <__aeabi_dsub+0x5fc>
1001063e:	0747      	lsls	r7, r0, #29
10010640:	003c      	movs	r4, r7
10010642:	0032      	movs	r2, r6
10010644:	08c9      	lsrs	r1, r1, #3
10010646:	430c      	orrs	r4, r1
10010648:	00d7      	lsls	r7, r2, #3
1001064a:	0f62      	lsrs	r2, r4, #29
1001064c:	00e5      	lsls	r5, r4, #3
1001064e:	4317      	orrs	r7, r2
10010650:	469a      	mov	sl, r3
10010652:	4c26      	ldr	r4, [pc, #152]	; (100106ec <__aeabi_dsub+0x6a0>)
10010654:	e526      	b.n	100100a4 <__aeabi_dsub+0x58>
10010656:	2200      	movs	r2, #0
10010658:	2500      	movs	r5, #0
1001065a:	e544      	b.n	100100e6 <__aeabi_dsub+0x9a>
1001065c:	4c23      	ldr	r4, [pc, #140]	; (100106ec <__aeabi_dsub+0x6a0>)
1001065e:	e521      	b.n	100100a4 <__aeabi_dsub+0x58>
10010660:	2000      	movs	r0, #0
10010662:	e749      	b.n	100104f8 <__aeabi_dsub+0x4ac>
10010664:	2300      	movs	r3, #0
10010666:	2500      	movs	r5, #0
10010668:	e5bb      	b.n	100101e2 <__aeabi_dsub+0x196>
1001066a:	464c      	mov	r4, r9
1001066c:	003e      	movs	r6, r7
1001066e:	3c20      	subs	r4, #32
10010670:	40e6      	lsrs	r6, r4
10010672:	464c      	mov	r4, r9
10010674:	46b4      	mov	ip, r6
10010676:	2c20      	cmp	r4, #32
10010678:	d031      	beq.n	100106de <__aeabi_dsub+0x692>
1001067a:	2440      	movs	r4, #64	; 0x40
1001067c:	464e      	mov	r6, r9
1001067e:	1ba6      	subs	r6, r4, r6
10010680:	40b7      	lsls	r7, r6
10010682:	433d      	orrs	r5, r7
10010684:	1e6c      	subs	r4, r5, #1
10010686:	41a5      	sbcs	r5, r4
10010688:	4664      	mov	r4, ip
1001068a:	432c      	orrs	r4, r5
1001068c:	2700      	movs	r7, #0
1001068e:	1b0d      	subs	r5, r1, r4
10010690:	e6e7      	b.n	10010462 <__aeabi_dsub+0x416>
10010692:	2280      	movs	r2, #128	; 0x80
10010694:	2300      	movs	r3, #0
10010696:	0312      	lsls	r2, r2, #12
10010698:	4c14      	ldr	r4, [pc, #80]	; (100106ec <__aeabi_dsub+0x6a0>)
1001069a:	2500      	movs	r5, #0
1001069c:	e5a1      	b.n	100101e2 <__aeabi_dsub+0x196>
1001069e:	433d      	orrs	r5, r7
100106a0:	1e6f      	subs	r7, r5, #1
100106a2:	41bd      	sbcs	r5, r7
100106a4:	2700      	movs	r7, #0
100106a6:	b2ed      	uxtb	r5, r5
100106a8:	e760      	b.n	1001056c <__aeabi_dsub+0x520>
100106aa:	0007      	movs	r7, r0
100106ac:	000d      	movs	r5, r1
100106ae:	4c0f      	ldr	r4, [pc, #60]	; (100106ec <__aeabi_dsub+0x6a0>)
100106b0:	e4f8      	b.n	100100a4 <__aeabi_dsub+0x58>
100106b2:	0007      	movs	r7, r0
100106b4:	000d      	movs	r5, r1
100106b6:	e4f5      	b.n	100100a4 <__aeabi_dsub+0x58>
100106b8:	464e      	mov	r6, r9
100106ba:	003c      	movs	r4, r7
100106bc:	3e20      	subs	r6, #32
100106be:	40f4      	lsrs	r4, r6
100106c0:	46a0      	mov	r8, r4
100106c2:	464c      	mov	r4, r9
100106c4:	2c20      	cmp	r4, #32
100106c6:	d00e      	beq.n	100106e6 <__aeabi_dsub+0x69a>
100106c8:	2440      	movs	r4, #64	; 0x40
100106ca:	464e      	mov	r6, r9
100106cc:	1ba4      	subs	r4, r4, r6
100106ce:	40a7      	lsls	r7, r4
100106d0:	433d      	orrs	r5, r7
100106d2:	1e6f      	subs	r7, r5, #1
100106d4:	41bd      	sbcs	r5, r7
100106d6:	4644      	mov	r4, r8
100106d8:	2700      	movs	r7, #0
100106da:	4325      	orrs	r5, r4
100106dc:	e746      	b.n	1001056c <__aeabi_dsub+0x520>
100106de:	2700      	movs	r7, #0
100106e0:	e7cf      	b.n	10010682 <__aeabi_dsub+0x636>
100106e2:	000d      	movs	r5, r1
100106e4:	e573      	b.n	100101ce <__aeabi_dsub+0x182>
100106e6:	2700      	movs	r7, #0
100106e8:	e7f2      	b.n	100106d0 <__aeabi_dsub+0x684>
100106ea:	46c0      	nop			; (mov r8, r8)
100106ec:	000007ff 	.word	0x000007ff
100106f0:	ff7fffff 	.word	0xff7fffff

100106f4 <__aeabi_d2iz>:
100106f4:	030b      	lsls	r3, r1, #12
100106f6:	b530      	push	{r4, r5, lr}
100106f8:	4d13      	ldr	r5, [pc, #76]	; (10010748 <__aeabi_d2iz+0x54>)
100106fa:	0b1a      	lsrs	r2, r3, #12
100106fc:	004b      	lsls	r3, r1, #1
100106fe:	0d5b      	lsrs	r3, r3, #21
10010700:	0fc9      	lsrs	r1, r1, #31
10010702:	2400      	movs	r4, #0
10010704:	42ab      	cmp	r3, r5
10010706:	dd11      	ble.n	1001072c <__aeabi_d2iz+0x38>
10010708:	4c10      	ldr	r4, [pc, #64]	; (1001074c <__aeabi_d2iz+0x58>)
1001070a:	42a3      	cmp	r3, r4
1001070c:	dc10      	bgt.n	10010730 <__aeabi_d2iz+0x3c>
1001070e:	2480      	movs	r4, #128	; 0x80
10010710:	0364      	lsls	r4, r4, #13
10010712:	4322      	orrs	r2, r4
10010714:	4c0e      	ldr	r4, [pc, #56]	; (10010750 <__aeabi_d2iz+0x5c>)
10010716:	1ae4      	subs	r4, r4, r3
10010718:	2c1f      	cmp	r4, #31
1001071a:	dd0c      	ble.n	10010736 <__aeabi_d2iz+0x42>
1001071c:	480d      	ldr	r0, [pc, #52]	; (10010754 <__aeabi_d2iz+0x60>)
1001071e:	1ac3      	subs	r3, r0, r3
10010720:	40da      	lsrs	r2, r3
10010722:	0013      	movs	r3, r2
10010724:	425c      	negs	r4, r3
10010726:	2900      	cmp	r1, #0
10010728:	d100      	bne.n	1001072c <__aeabi_d2iz+0x38>
1001072a:	001c      	movs	r4, r3
1001072c:	0020      	movs	r0, r4
1001072e:	bd30      	pop	{r4, r5, pc}
10010730:	4b09      	ldr	r3, [pc, #36]	; (10010758 <__aeabi_d2iz+0x64>)
10010732:	18cc      	adds	r4, r1, r3
10010734:	e7fa      	b.n	1001072c <__aeabi_d2iz+0x38>
10010736:	40e0      	lsrs	r0, r4
10010738:	4c08      	ldr	r4, [pc, #32]	; (1001075c <__aeabi_d2iz+0x68>)
1001073a:	46a4      	mov	ip, r4
1001073c:	4463      	add	r3, ip
1001073e:	409a      	lsls	r2, r3
10010740:	0013      	movs	r3, r2
10010742:	4303      	orrs	r3, r0
10010744:	e7ee      	b.n	10010724 <__aeabi_d2iz+0x30>
10010746:	46c0      	nop			; (mov r8, r8)
10010748:	000003fe 	.word	0x000003fe
1001074c:	0000041d 	.word	0x0000041d
10010750:	00000433 	.word	0x00000433
10010754:	00000413 	.word	0x00000413
10010758:	7fffffff 	.word	0x7fffffff
1001075c:	fffffbed 	.word	0xfffffbed

10010760 <__aeabi_ui2d>:
10010760:	b570      	push	{r4, r5, r6, lr}
10010762:	1e05      	subs	r5, r0, #0
10010764:	d028      	beq.n	100107b8 <__aeabi_ui2d+0x58>
10010766:	f000 f871 	bl	1001084c <__clzsi2>
1001076a:	4b15      	ldr	r3, [pc, #84]	; (100107c0 <__aeabi_ui2d+0x60>)
1001076c:	4a15      	ldr	r2, [pc, #84]	; (100107c4 <__aeabi_ui2d+0x64>)
1001076e:	1a1b      	subs	r3, r3, r0
10010770:	1ad2      	subs	r2, r2, r3
10010772:	2a1f      	cmp	r2, #31
10010774:	dd16      	ble.n	100107a4 <__aeabi_ui2d+0x44>
10010776:	002c      	movs	r4, r5
10010778:	4a13      	ldr	r2, [pc, #76]	; (100107c8 <__aeabi_ui2d+0x68>)
1001077a:	2500      	movs	r5, #0
1001077c:	1ad2      	subs	r2, r2, r3
1001077e:	4094      	lsls	r4, r2
10010780:	055a      	lsls	r2, r3, #21
10010782:	0324      	lsls	r4, r4, #12
10010784:	0b24      	lsrs	r4, r4, #12
10010786:	0d52      	lsrs	r2, r2, #21
10010788:	2100      	movs	r1, #0
1001078a:	0324      	lsls	r4, r4, #12
1001078c:	0d0b      	lsrs	r3, r1, #20
1001078e:	0b24      	lsrs	r4, r4, #12
10010790:	051b      	lsls	r3, r3, #20
10010792:	4323      	orrs	r3, r4
10010794:	4c0d      	ldr	r4, [pc, #52]	; (100107cc <__aeabi_ui2d+0x6c>)
10010796:	0512      	lsls	r2, r2, #20
10010798:	4023      	ands	r3, r4
1001079a:	4313      	orrs	r3, r2
1001079c:	005b      	lsls	r3, r3, #1
1001079e:	0028      	movs	r0, r5
100107a0:	0859      	lsrs	r1, r3, #1
100107a2:	bd70      	pop	{r4, r5, r6, pc}
100107a4:	210b      	movs	r1, #11
100107a6:	002c      	movs	r4, r5
100107a8:	1a08      	subs	r0, r1, r0
100107aa:	40c4      	lsrs	r4, r0
100107ac:	4095      	lsls	r5, r2
100107ae:	0324      	lsls	r4, r4, #12
100107b0:	055a      	lsls	r2, r3, #21
100107b2:	0b24      	lsrs	r4, r4, #12
100107b4:	0d52      	lsrs	r2, r2, #21
100107b6:	e7e7      	b.n	10010788 <__aeabi_ui2d+0x28>
100107b8:	2200      	movs	r2, #0
100107ba:	2400      	movs	r4, #0
100107bc:	e7e4      	b.n	10010788 <__aeabi_ui2d+0x28>
100107be:	46c0      	nop			; (mov r8, r8)
100107c0:	0000041e 	.word	0x0000041e
100107c4:	00000433 	.word	0x00000433
100107c8:	00000413 	.word	0x00000413
100107cc:	800fffff 	.word	0x800fffff

100107d0 <__aeabi_cdrcmple>:
100107d0:	4684      	mov	ip, r0
100107d2:	1c10      	adds	r0, r2, #0
100107d4:	4662      	mov	r2, ip
100107d6:	468c      	mov	ip, r1
100107d8:	1c19      	adds	r1, r3, #0
100107da:	4663      	mov	r3, ip
100107dc:	e000      	b.n	100107e0 <__aeabi_cdcmpeq>
100107de:	46c0      	nop			; (mov r8, r8)

100107e0 <__aeabi_cdcmpeq>:
100107e0:	b51f      	push	{r0, r1, r2, r3, r4, lr}
100107e2:	f000 f8f5 	bl	100109d0 <__ledf2>
100107e6:	2800      	cmp	r0, #0
100107e8:	d401      	bmi.n	100107ee <__aeabi_cdcmpeq+0xe>
100107ea:	2100      	movs	r1, #0
100107ec:	42c8      	cmn	r0, r1
100107ee:	bd1f      	pop	{r0, r1, r2, r3, r4, pc}

100107f0 <__aeabi_dcmpeq>:
100107f0:	b510      	push	{r4, lr}
100107f2:	f000 f849 	bl	10010888 <__eqdf2>
100107f6:	4240      	negs	r0, r0
100107f8:	3001      	adds	r0, #1
100107fa:	bd10      	pop	{r4, pc}

100107fc <__aeabi_dcmplt>:
100107fc:	b510      	push	{r4, lr}
100107fe:	f000 f8e7 	bl	100109d0 <__ledf2>
10010802:	2800      	cmp	r0, #0
10010804:	db01      	blt.n	1001080a <__aeabi_dcmplt+0xe>
10010806:	2000      	movs	r0, #0
10010808:	bd10      	pop	{r4, pc}
1001080a:	2001      	movs	r0, #1
1001080c:	bd10      	pop	{r4, pc}
1001080e:	46c0      	nop			; (mov r8, r8)

10010810 <__aeabi_dcmple>:
10010810:	b510      	push	{r4, lr}
10010812:	f000 f8dd 	bl	100109d0 <__ledf2>
10010816:	2800      	cmp	r0, #0
10010818:	dd01      	ble.n	1001081e <__aeabi_dcmple+0xe>
1001081a:	2000      	movs	r0, #0
1001081c:	bd10      	pop	{r4, pc}
1001081e:	2001      	movs	r0, #1
10010820:	bd10      	pop	{r4, pc}
10010822:	46c0      	nop			; (mov r8, r8)

10010824 <__aeabi_dcmpgt>:
10010824:	b510      	push	{r4, lr}
10010826:	f000 f86f 	bl	10010908 <__gedf2>
1001082a:	2800      	cmp	r0, #0
1001082c:	dc01      	bgt.n	10010832 <__aeabi_dcmpgt+0xe>
1001082e:	2000      	movs	r0, #0
10010830:	bd10      	pop	{r4, pc}
10010832:	2001      	movs	r0, #1
10010834:	bd10      	pop	{r4, pc}
10010836:	46c0      	nop			; (mov r8, r8)

10010838 <__aeabi_dcmpge>:
10010838:	b510      	push	{r4, lr}
1001083a:	f000 f865 	bl	10010908 <__gedf2>
1001083e:	2800      	cmp	r0, #0
10010840:	da01      	bge.n	10010846 <__aeabi_dcmpge+0xe>
10010842:	2000      	movs	r0, #0
10010844:	bd10      	pop	{r4, pc}
10010846:	2001      	movs	r0, #1
10010848:	bd10      	pop	{r4, pc}
1001084a:	46c0      	nop			; (mov r8, r8)

1001084c <__clzsi2>:
1001084c:	211c      	movs	r1, #28
1001084e:	2301      	movs	r3, #1
10010850:	041b      	lsls	r3, r3, #16
10010852:	4298      	cmp	r0, r3
10010854:	d301      	bcc.n	1001085a <__clzsi2+0xe>
10010856:	0c00      	lsrs	r0, r0, #16
10010858:	3910      	subs	r1, #16
1001085a:	0a1b      	lsrs	r3, r3, #8
1001085c:	4298      	cmp	r0, r3
1001085e:	d301      	bcc.n	10010864 <__clzsi2+0x18>
10010860:	0a00      	lsrs	r0, r0, #8
10010862:	3908      	subs	r1, #8
10010864:	091b      	lsrs	r3, r3, #4
10010866:	4298      	cmp	r0, r3
10010868:	d301      	bcc.n	1001086e <__clzsi2+0x22>
1001086a:	0900      	lsrs	r0, r0, #4
1001086c:	3904      	subs	r1, #4
1001086e:	a202      	add	r2, pc, #8	; (adr r2, 10010878 <__clzsi2+0x2c>)
10010870:	5c10      	ldrb	r0, [r2, r0]
10010872:	1840      	adds	r0, r0, r1
10010874:	4770      	bx	lr
10010876:	46c0      	nop			; (mov r8, r8)
10010878:	02020304 	.word	0x02020304
1001087c:	01010101 	.word	0x01010101
	...

10010888 <__eqdf2>:
10010888:	b5f0      	push	{r4, r5, r6, r7, lr}
1001088a:	465f      	mov	r7, fp
1001088c:	4656      	mov	r6, sl
1001088e:	464d      	mov	r5, r9
10010890:	4644      	mov	r4, r8
10010892:	b4f0      	push	{r4, r5, r6, r7}
10010894:	031f      	lsls	r7, r3, #12
10010896:	005c      	lsls	r4, r3, #1
10010898:	0fdb      	lsrs	r3, r3, #31
1001089a:	469a      	mov	sl, r3
1001089c:	4b19      	ldr	r3, [pc, #100]	; (10010904 <__eqdf2+0x7c>)
1001089e:	030e      	lsls	r6, r1, #12
100108a0:	004d      	lsls	r5, r1, #1
100108a2:	0fc9      	lsrs	r1, r1, #31
100108a4:	4680      	mov	r8, r0
100108a6:	0b36      	lsrs	r6, r6, #12
100108a8:	0d6d      	lsrs	r5, r5, #21
100108aa:	468b      	mov	fp, r1
100108ac:	4691      	mov	r9, r2
100108ae:	0b3f      	lsrs	r7, r7, #12
100108b0:	0d64      	lsrs	r4, r4, #21
100108b2:	429d      	cmp	r5, r3
100108b4:	d019      	beq.n	100108ea <__eqdf2+0x62>
100108b6:	4b13      	ldr	r3, [pc, #76]	; (10010904 <__eqdf2+0x7c>)
100108b8:	429c      	cmp	r4, r3
100108ba:	d01b      	beq.n	100108f4 <__eqdf2+0x6c>
100108bc:	2301      	movs	r3, #1
100108be:	42a5      	cmp	r5, r4
100108c0:	d006      	beq.n	100108d0 <__eqdf2+0x48>
100108c2:	0018      	movs	r0, r3
100108c4:	bc3c      	pop	{r2, r3, r4, r5}
100108c6:	4690      	mov	r8, r2
100108c8:	4699      	mov	r9, r3
100108ca:	46a2      	mov	sl, r4
100108cc:	46ab      	mov	fp, r5
100108ce:	bdf0      	pop	{r4, r5, r6, r7, pc}
100108d0:	42be      	cmp	r6, r7
100108d2:	d1f6      	bne.n	100108c2 <__eqdf2+0x3a>
100108d4:	45c8      	cmp	r8, r9
100108d6:	d1f4      	bne.n	100108c2 <__eqdf2+0x3a>
100108d8:	45d3      	cmp	fp, sl
100108da:	d010      	beq.n	100108fe <__eqdf2+0x76>
100108dc:	2d00      	cmp	r5, #0
100108de:	d1f0      	bne.n	100108c2 <__eqdf2+0x3a>
100108e0:	4330      	orrs	r0, r6
100108e2:	0003      	movs	r3, r0
100108e4:	1e5a      	subs	r2, r3, #1
100108e6:	4193      	sbcs	r3, r2
100108e8:	e7eb      	b.n	100108c2 <__eqdf2+0x3a>
100108ea:	0031      	movs	r1, r6
100108ec:	2301      	movs	r3, #1
100108ee:	4301      	orrs	r1, r0
100108f0:	d1e7      	bne.n	100108c2 <__eqdf2+0x3a>
100108f2:	e7e0      	b.n	100108b6 <__eqdf2+0x2e>
100108f4:	433a      	orrs	r2, r7
100108f6:	2301      	movs	r3, #1
100108f8:	2a00      	cmp	r2, #0
100108fa:	d1e2      	bne.n	100108c2 <__eqdf2+0x3a>
100108fc:	e7de      	b.n	100108bc <__eqdf2+0x34>
100108fe:	2300      	movs	r3, #0
10010900:	e7df      	b.n	100108c2 <__eqdf2+0x3a>
10010902:	46c0      	nop			; (mov r8, r8)
10010904:	000007ff 	.word	0x000007ff

10010908 <__gedf2>:
10010908:	b5f0      	push	{r4, r5, r6, r7, lr}
1001090a:	465f      	mov	r7, fp
1001090c:	4644      	mov	r4, r8
1001090e:	4656      	mov	r6, sl
10010910:	464d      	mov	r5, r9
10010912:	b4f0      	push	{r4, r5, r6, r7}
10010914:	031f      	lsls	r7, r3, #12
10010916:	0b3c      	lsrs	r4, r7, #12
10010918:	4f2c      	ldr	r7, [pc, #176]	; (100109cc <__gedf2+0xc4>)
1001091a:	030e      	lsls	r6, r1, #12
1001091c:	004d      	lsls	r5, r1, #1
1001091e:	46a3      	mov	fp, r4
10010920:	005c      	lsls	r4, r3, #1
10010922:	4684      	mov	ip, r0
10010924:	0b36      	lsrs	r6, r6, #12
10010926:	0d6d      	lsrs	r5, r5, #21
10010928:	0fc9      	lsrs	r1, r1, #31
1001092a:	4690      	mov	r8, r2
1001092c:	0d64      	lsrs	r4, r4, #21
1001092e:	0fdb      	lsrs	r3, r3, #31
10010930:	42bd      	cmp	r5, r7
10010932:	d02b      	beq.n	1001098c <__gedf2+0x84>
10010934:	4f25      	ldr	r7, [pc, #148]	; (100109cc <__gedf2+0xc4>)
10010936:	42bc      	cmp	r4, r7
10010938:	d02e      	beq.n	10010998 <__gedf2+0x90>
1001093a:	2d00      	cmp	r5, #0
1001093c:	d10e      	bne.n	1001095c <__gedf2+0x54>
1001093e:	4330      	orrs	r0, r6
10010940:	0007      	movs	r7, r0
10010942:	4681      	mov	r9, r0
10010944:	4278      	negs	r0, r7
10010946:	4178      	adcs	r0, r7
10010948:	2c00      	cmp	r4, #0
1001094a:	d117      	bne.n	1001097c <__gedf2+0x74>
1001094c:	465f      	mov	r7, fp
1001094e:	433a      	orrs	r2, r7
10010950:	d114      	bne.n	1001097c <__gedf2+0x74>
10010952:	464b      	mov	r3, r9
10010954:	2000      	movs	r0, #0
10010956:	2b00      	cmp	r3, #0
10010958:	d00a      	beq.n	10010970 <__gedf2+0x68>
1001095a:	e006      	b.n	1001096a <__gedf2+0x62>
1001095c:	2c00      	cmp	r4, #0
1001095e:	d102      	bne.n	10010966 <__gedf2+0x5e>
10010960:	4658      	mov	r0, fp
10010962:	4302      	orrs	r2, r0
10010964:	d001      	beq.n	1001096a <__gedf2+0x62>
10010966:	4299      	cmp	r1, r3
10010968:	d01a      	beq.n	100109a0 <__gedf2+0x98>
1001096a:	2301      	movs	r3, #1
1001096c:	4248      	negs	r0, r1
1001096e:	4318      	orrs	r0, r3
10010970:	bc3c      	pop	{r2, r3, r4, r5}
10010972:	4690      	mov	r8, r2
10010974:	4699      	mov	r9, r3
10010976:	46a2      	mov	sl, r4
10010978:	46ab      	mov	fp, r5
1001097a:	bdf0      	pop	{r4, r5, r6, r7, pc}
1001097c:	2800      	cmp	r0, #0
1001097e:	d0f2      	beq.n	10010966 <__gedf2+0x5e>
10010980:	4258      	negs	r0, r3
10010982:	4158      	adcs	r0, r3
10010984:	2201      	movs	r2, #1
10010986:	4240      	negs	r0, r0
10010988:	4310      	orrs	r0, r2
1001098a:	e7f1      	b.n	10010970 <__gedf2+0x68>
1001098c:	0037      	movs	r7, r6
1001098e:	4307      	orrs	r7, r0
10010990:	d0d0      	beq.n	10010934 <__gedf2+0x2c>
10010992:	2002      	movs	r0, #2
10010994:	4240      	negs	r0, r0
10010996:	e7eb      	b.n	10010970 <__gedf2+0x68>
10010998:	465f      	mov	r7, fp
1001099a:	4317      	orrs	r7, r2
1001099c:	d0cd      	beq.n	1001093a <__gedf2+0x32>
1001099e:	e7f8      	b.n	10010992 <__gedf2+0x8a>
100109a0:	42a5      	cmp	r5, r4
100109a2:	dce2      	bgt.n	1001096a <__gedf2+0x62>
100109a4:	db05      	blt.n	100109b2 <__gedf2+0xaa>
100109a6:	455e      	cmp	r6, fp
100109a8:	d8df      	bhi.n	1001096a <__gedf2+0x62>
100109aa:	d008      	beq.n	100109be <__gedf2+0xb6>
100109ac:	2000      	movs	r0, #0
100109ae:	455e      	cmp	r6, fp
100109b0:	d2de      	bcs.n	10010970 <__gedf2+0x68>
100109b2:	4248      	negs	r0, r1
100109b4:	4148      	adcs	r0, r1
100109b6:	2301      	movs	r3, #1
100109b8:	4240      	negs	r0, r0
100109ba:	4318      	orrs	r0, r3
100109bc:	e7d8      	b.n	10010970 <__gedf2+0x68>
100109be:	45c4      	cmp	ip, r8
100109c0:	d8d3      	bhi.n	1001096a <__gedf2+0x62>
100109c2:	2000      	movs	r0, #0
100109c4:	45c4      	cmp	ip, r8
100109c6:	d3f4      	bcc.n	100109b2 <__gedf2+0xaa>
100109c8:	e7d2      	b.n	10010970 <__gedf2+0x68>
100109ca:	46c0      	nop			; (mov r8, r8)
100109cc:	000007ff 	.word	0x000007ff

100109d0 <__ledf2>:
100109d0:	b5f0      	push	{r4, r5, r6, r7, lr}
100109d2:	465f      	mov	r7, fp
100109d4:	464d      	mov	r5, r9
100109d6:	4644      	mov	r4, r8
100109d8:	4656      	mov	r6, sl
100109da:	b4f0      	push	{r4, r5, r6, r7}
100109dc:	031c      	lsls	r4, r3, #12
100109de:	0b24      	lsrs	r4, r4, #12
100109e0:	46a4      	mov	ip, r4
100109e2:	4c2f      	ldr	r4, [pc, #188]	; (10010aa0 <__ledf2+0xd0>)
100109e4:	030f      	lsls	r7, r1, #12
100109e6:	004d      	lsls	r5, r1, #1
100109e8:	005e      	lsls	r6, r3, #1
100109ea:	0fc9      	lsrs	r1, r1, #31
100109ec:	4680      	mov	r8, r0
100109ee:	0b3f      	lsrs	r7, r7, #12
100109f0:	0d6d      	lsrs	r5, r5, #21
100109f2:	468b      	mov	fp, r1
100109f4:	4691      	mov	r9, r2
100109f6:	0d76      	lsrs	r6, r6, #21
100109f8:	0fdb      	lsrs	r3, r3, #31
100109fa:	42a5      	cmp	r5, r4
100109fc:	d020      	beq.n	10010a40 <__ledf2+0x70>
100109fe:	4c28      	ldr	r4, [pc, #160]	; (10010aa0 <__ledf2+0xd0>)
10010a00:	42a6      	cmp	r6, r4
10010a02:	d022      	beq.n	10010a4a <__ledf2+0x7a>
10010a04:	2d00      	cmp	r5, #0
10010a06:	d112      	bne.n	10010a2e <__ledf2+0x5e>
10010a08:	4338      	orrs	r0, r7
10010a0a:	4244      	negs	r4, r0
10010a0c:	4144      	adcs	r4, r0
10010a0e:	2e00      	cmp	r6, #0
10010a10:	d020      	beq.n	10010a54 <__ledf2+0x84>
10010a12:	2c00      	cmp	r4, #0
10010a14:	d00d      	beq.n	10010a32 <__ledf2+0x62>
10010a16:	425c      	negs	r4, r3
10010a18:	4163      	adcs	r3, r4
10010a1a:	2401      	movs	r4, #1
10010a1c:	425b      	negs	r3, r3
10010a1e:	431c      	orrs	r4, r3
10010a20:	0020      	movs	r0, r4
10010a22:	bc3c      	pop	{r2, r3, r4, r5}
10010a24:	4690      	mov	r8, r2
10010a26:	4699      	mov	r9, r3
10010a28:	46a2      	mov	sl, r4
10010a2a:	46ab      	mov	fp, r5
10010a2c:	bdf0      	pop	{r4, r5, r6, r7, pc}
10010a2e:	2e00      	cmp	r6, #0
10010a30:	d017      	beq.n	10010a62 <__ledf2+0x92>
10010a32:	455b      	cmp	r3, fp
10010a34:	d019      	beq.n	10010a6a <__ledf2+0x9a>
10010a36:	465b      	mov	r3, fp
10010a38:	425c      	negs	r4, r3
10010a3a:	2301      	movs	r3, #1
10010a3c:	431c      	orrs	r4, r3
10010a3e:	e7ef      	b.n	10010a20 <__ledf2+0x50>
10010a40:	0039      	movs	r1, r7
10010a42:	2402      	movs	r4, #2
10010a44:	4301      	orrs	r1, r0
10010a46:	d1eb      	bne.n	10010a20 <__ledf2+0x50>
10010a48:	e7d9      	b.n	100109fe <__ledf2+0x2e>
10010a4a:	4661      	mov	r1, ip
10010a4c:	2402      	movs	r4, #2
10010a4e:	4311      	orrs	r1, r2
10010a50:	d1e6      	bne.n	10010a20 <__ledf2+0x50>
10010a52:	e7d7      	b.n	10010a04 <__ledf2+0x34>
10010a54:	4661      	mov	r1, ip
10010a56:	430a      	orrs	r2, r1
10010a58:	d1db      	bne.n	10010a12 <__ledf2+0x42>
10010a5a:	2400      	movs	r4, #0
10010a5c:	2800      	cmp	r0, #0
10010a5e:	d0df      	beq.n	10010a20 <__ledf2+0x50>
10010a60:	e7e9      	b.n	10010a36 <__ledf2+0x66>
10010a62:	4661      	mov	r1, ip
10010a64:	430a      	orrs	r2, r1
10010a66:	d1e4      	bne.n	10010a32 <__ledf2+0x62>
10010a68:	e7e5      	b.n	10010a36 <__ledf2+0x66>
10010a6a:	42b5      	cmp	r5, r6
10010a6c:	dd03      	ble.n	10010a76 <__ledf2+0xa6>
10010a6e:	2201      	movs	r2, #1
10010a70:	425c      	negs	r4, r3
10010a72:	4314      	orrs	r4, r2
10010a74:	e7d4      	b.n	10010a20 <__ledf2+0x50>
10010a76:	42b5      	cmp	r5, r6
10010a78:	dbcd      	blt.n	10010a16 <__ledf2+0x46>
10010a7a:	4567      	cmp	r7, ip
10010a7c:	d8db      	bhi.n	10010a36 <__ledf2+0x66>
10010a7e:	d009      	beq.n	10010a94 <__ledf2+0xc4>
10010a80:	2400      	movs	r4, #0
10010a82:	4567      	cmp	r7, ip
10010a84:	d2cc      	bcs.n	10010a20 <__ledf2+0x50>
10010a86:	4659      	mov	r1, fp
10010a88:	424c      	negs	r4, r1
10010a8a:	4161      	adcs	r1, r4
10010a8c:	2401      	movs	r4, #1
10010a8e:	4249      	negs	r1, r1
10010a90:	430c      	orrs	r4, r1
10010a92:	e7c5      	b.n	10010a20 <__ledf2+0x50>
10010a94:	45c8      	cmp	r8, r9
10010a96:	d8ce      	bhi.n	10010a36 <__ledf2+0x66>
10010a98:	2400      	movs	r4, #0
10010a9a:	45c8      	cmp	r8, r9
10010a9c:	d3f3      	bcc.n	10010a86 <__ledf2+0xb6>
10010a9e:	e7bf      	b.n	10010a20 <__ledf2+0x50>
10010aa0:	000007ff 	.word	0x000007ff

10010aa4 <__libc_init_array>:
10010aa4:	4b0e      	ldr	r3, [pc, #56]	; (10010ae0 <__libc_init_array+0x3c>)
10010aa6:	b570      	push	{r4, r5, r6, lr}
10010aa8:	2500      	movs	r5, #0
10010aaa:	001e      	movs	r6, r3
10010aac:	4c0d      	ldr	r4, [pc, #52]	; (10010ae4 <__libc_init_array+0x40>)
10010aae:	1ae4      	subs	r4, r4, r3
10010ab0:	10a4      	asrs	r4, r4, #2
10010ab2:	42a5      	cmp	r5, r4
10010ab4:	d004      	beq.n	10010ac0 <__libc_init_array+0x1c>
10010ab6:	00ab      	lsls	r3, r5, #2
10010ab8:	58f3      	ldr	r3, [r6, r3]
10010aba:	4798      	blx	r3
10010abc:	3501      	adds	r5, #1
10010abe:	e7f8      	b.n	10010ab2 <__libc_init_array+0xe>
10010ac0:	f001 f9da 	bl	10011e78 <_init>
10010ac4:	4b08      	ldr	r3, [pc, #32]	; (10010ae8 <__libc_init_array+0x44>)
10010ac6:	2500      	movs	r5, #0
10010ac8:	001e      	movs	r6, r3
10010aca:	4c08      	ldr	r4, [pc, #32]	; (10010aec <__libc_init_array+0x48>)
10010acc:	1ae4      	subs	r4, r4, r3
10010ace:	10a4      	asrs	r4, r4, #2
10010ad0:	42a5      	cmp	r5, r4
10010ad2:	d004      	beq.n	10010ade <__libc_init_array+0x3a>
10010ad4:	00ab      	lsls	r3, r5, #2
10010ad6:	58f3      	ldr	r3, [r6, r3]
10010ad8:	4798      	blx	r3
10010ada:	3501      	adds	r5, #1
10010adc:	e7f8      	b.n	10010ad0 <__libc_init_array+0x2c>
10010ade:	bd70      	pop	{r4, r5, r6, pc}
10010ae0:	10011e84 	.word	0x10011e84
10010ae4:	10011e84 	.word	0x10011e84
10010ae8:	10011e84 	.word	0x10011e84
10010aec:	10011e88 	.word	0x10011e88

10010af0 <malloc>:
10010af0:	b510      	push	{r4, lr}
10010af2:	4b03      	ldr	r3, [pc, #12]	; (10010b00 <malloc+0x10>)
10010af4:	0001      	movs	r1, r0
10010af6:	6818      	ldr	r0, [r3, #0]
10010af8:	f000 f874 	bl	10010be4 <_malloc_r>
10010afc:	bd10      	pop	{r4, pc}
10010afe:	46c0      	nop			; (mov r8, r8)
10010b00:	10011f00 	.word	0x10011f00

10010b04 <free>:
10010b04:	b510      	push	{r4, lr}
10010b06:	4b03      	ldr	r3, [pc, #12]	; (10010b14 <free+0x10>)
10010b08:	0001      	movs	r1, r0
10010b0a:	6818      	ldr	r0, [r3, #0]
10010b0c:	f000 f824 	bl	10010b58 <_free_r>
10010b10:	bd10      	pop	{r4, pc}
10010b12:	46c0      	nop			; (mov r8, r8)
10010b14:	10011f00 	.word	0x10011f00

10010b18 <memcmp>:
10010b18:	b530      	push	{r4, r5, lr}
10010b1a:	2400      	movs	r4, #0
10010b1c:	42a2      	cmp	r2, r4
10010b1e:	d008      	beq.n	10010b32 <memcmp+0x1a>
10010b20:	5d03      	ldrb	r3, [r0, r4]
10010b22:	1c65      	adds	r5, r4, #1
10010b24:	5d0c      	ldrb	r4, [r1, r4]
10010b26:	42a3      	cmp	r3, r4
10010b28:	d001      	beq.n	10010b2e <memcmp+0x16>
10010b2a:	1b18      	subs	r0, r3, r4
10010b2c:	e002      	b.n	10010b34 <memcmp+0x1c>
10010b2e:	002c      	movs	r4, r5
10010b30:	e7f4      	b.n	10010b1c <memcmp+0x4>
10010b32:	2000      	movs	r0, #0
10010b34:	bd30      	pop	{r4, r5, pc}

10010b36 <memcpy>:
10010b36:	2300      	movs	r3, #0
10010b38:	b510      	push	{r4, lr}
10010b3a:	429a      	cmp	r2, r3
10010b3c:	d003      	beq.n	10010b46 <memcpy+0x10>
10010b3e:	5ccc      	ldrb	r4, [r1, r3]
10010b40:	54c4      	strb	r4, [r0, r3]
10010b42:	3301      	adds	r3, #1
10010b44:	e7f9      	b.n	10010b3a <memcpy+0x4>
10010b46:	bd10      	pop	{r4, pc}

10010b48 <memset>:
10010b48:	0003      	movs	r3, r0
10010b4a:	1882      	adds	r2, r0, r2
10010b4c:	4293      	cmp	r3, r2
10010b4e:	d002      	beq.n	10010b56 <memset+0xe>
10010b50:	7019      	strb	r1, [r3, #0]
10010b52:	3301      	adds	r3, #1
10010b54:	e7fa      	b.n	10010b4c <memset+0x4>
10010b56:	4770      	bx	lr

10010b58 <_free_r>:
10010b58:	b530      	push	{r4, r5, lr}
10010b5a:	2900      	cmp	r1, #0
10010b5c:	d03e      	beq.n	10010bdc <_free_r+0x84>
10010b5e:	3904      	subs	r1, #4
10010b60:	680b      	ldr	r3, [r1, #0]
10010b62:	2b00      	cmp	r3, #0
10010b64:	da00      	bge.n	10010b68 <_free_r+0x10>
10010b66:	18c9      	adds	r1, r1, r3
10010b68:	4a1d      	ldr	r2, [pc, #116]	; (10010be0 <_free_r+0x88>)
10010b6a:	6813      	ldr	r3, [r2, #0]
10010b6c:	0014      	movs	r4, r2
10010b6e:	2b00      	cmp	r3, #0
10010b70:	d102      	bne.n	10010b78 <_free_r+0x20>
10010b72:	604b      	str	r3, [r1, #4]
10010b74:	6011      	str	r1, [r2, #0]
10010b76:	e031      	b.n	10010bdc <_free_r+0x84>
10010b78:	428b      	cmp	r3, r1
10010b7a:	d90d      	bls.n	10010b98 <_free_r+0x40>
10010b7c:	680a      	ldr	r2, [r1, #0]
10010b7e:	1888      	adds	r0, r1, r2
10010b80:	4283      	cmp	r3, r0
10010b82:	d103      	bne.n	10010b8c <_free_r+0x34>
10010b84:	6818      	ldr	r0, [r3, #0]
10010b86:	685b      	ldr	r3, [r3, #4]
10010b88:	1882      	adds	r2, r0, r2
10010b8a:	600a      	str	r2, [r1, #0]
10010b8c:	604b      	str	r3, [r1, #4]
10010b8e:	6021      	str	r1, [r4, #0]
10010b90:	e024      	b.n	10010bdc <_free_r+0x84>
10010b92:	428a      	cmp	r2, r1
10010b94:	d803      	bhi.n	10010b9e <_free_r+0x46>
10010b96:	0013      	movs	r3, r2
10010b98:	685a      	ldr	r2, [r3, #4]
10010b9a:	2a00      	cmp	r2, #0
10010b9c:	d1f9      	bne.n	10010b92 <_free_r+0x3a>
10010b9e:	681d      	ldr	r5, [r3, #0]
10010ba0:	195c      	adds	r4, r3, r5
10010ba2:	428c      	cmp	r4, r1
10010ba4:	d10b      	bne.n	10010bbe <_free_r+0x66>
10010ba6:	6809      	ldr	r1, [r1, #0]
10010ba8:	1869      	adds	r1, r5, r1
10010baa:	1858      	adds	r0, r3, r1
10010bac:	6019      	str	r1, [r3, #0]
10010bae:	4282      	cmp	r2, r0
10010bb0:	d114      	bne.n	10010bdc <_free_r+0x84>
10010bb2:	6810      	ldr	r0, [r2, #0]
10010bb4:	6852      	ldr	r2, [r2, #4]
10010bb6:	1841      	adds	r1, r0, r1
10010bb8:	6019      	str	r1, [r3, #0]
10010bba:	605a      	str	r2, [r3, #4]
10010bbc:	e00e      	b.n	10010bdc <_free_r+0x84>
10010bbe:	428c      	cmp	r4, r1
10010bc0:	d902      	bls.n	10010bc8 <_free_r+0x70>
10010bc2:	230c      	movs	r3, #12
10010bc4:	6003      	str	r3, [r0, #0]
10010bc6:	e009      	b.n	10010bdc <_free_r+0x84>
10010bc8:	6808      	ldr	r0, [r1, #0]
10010bca:	180c      	adds	r4, r1, r0
10010bcc:	42a2      	cmp	r2, r4
10010bce:	d103      	bne.n	10010bd8 <_free_r+0x80>
10010bd0:	6814      	ldr	r4, [r2, #0]
10010bd2:	6852      	ldr	r2, [r2, #4]
10010bd4:	1820      	adds	r0, r4, r0
10010bd6:	6008      	str	r0, [r1, #0]
10010bd8:	604a      	str	r2, [r1, #4]
10010bda:	6059      	str	r1, [r3, #4]
10010bdc:	bd30      	pop	{r4, r5, pc}
10010bde:	46c0      	nop			; (mov r8, r8)
10010be0:	100139c0 	.word	0x100139c0

10010be4 <_malloc_r>:
10010be4:	2303      	movs	r3, #3
10010be6:	b570      	push	{r4, r5, r6, lr}
10010be8:	1ccd      	adds	r5, r1, #3
10010bea:	439d      	bics	r5, r3
10010bec:	3508      	adds	r5, #8
10010bee:	0006      	movs	r6, r0
10010bf0:	2d0c      	cmp	r5, #12
10010bf2:	d201      	bcs.n	10010bf8 <_malloc_r+0x14>
10010bf4:	250c      	movs	r5, #12
10010bf6:	e005      	b.n	10010c04 <_malloc_r+0x20>
10010bf8:	2d00      	cmp	r5, #0
10010bfa:	da03      	bge.n	10010c04 <_malloc_r+0x20>
10010bfc:	230c      	movs	r3, #12
10010bfe:	2000      	movs	r0, #0
10010c00:	6033      	str	r3, [r6, #0]
10010c02:	e040      	b.n	10010c86 <_malloc_r+0xa2>
10010c04:	42a9      	cmp	r1, r5
10010c06:	d8f9      	bhi.n	10010bfc <_malloc_r+0x18>
10010c08:	4b1f      	ldr	r3, [pc, #124]	; (10010c88 <_malloc_r+0xa4>)
10010c0a:	681c      	ldr	r4, [r3, #0]
10010c0c:	001a      	movs	r2, r3
10010c0e:	0021      	movs	r1, r4
10010c10:	2900      	cmp	r1, #0
10010c12:	d013      	beq.n	10010c3c <_malloc_r+0x58>
10010c14:	680b      	ldr	r3, [r1, #0]
10010c16:	1b5b      	subs	r3, r3, r5
10010c18:	d40d      	bmi.n	10010c36 <_malloc_r+0x52>
10010c1a:	2b0b      	cmp	r3, #11
10010c1c:	d902      	bls.n	10010c24 <_malloc_r+0x40>
10010c1e:	600b      	str	r3, [r1, #0]
10010c20:	18cc      	adds	r4, r1, r3
10010c22:	e01e      	b.n	10010c62 <_malloc_r+0x7e>
10010c24:	428c      	cmp	r4, r1
10010c26:	d102      	bne.n	10010c2e <_malloc_r+0x4a>
10010c28:	6863      	ldr	r3, [r4, #4]
10010c2a:	6013      	str	r3, [r2, #0]
10010c2c:	e01a      	b.n	10010c64 <_malloc_r+0x80>
10010c2e:	684b      	ldr	r3, [r1, #4]
10010c30:	6063      	str	r3, [r4, #4]
10010c32:	000c      	movs	r4, r1
10010c34:	e016      	b.n	10010c64 <_malloc_r+0x80>
10010c36:	000c      	movs	r4, r1
10010c38:	6849      	ldr	r1, [r1, #4]
10010c3a:	e7e9      	b.n	10010c10 <_malloc_r+0x2c>
10010c3c:	4c13      	ldr	r4, [pc, #76]	; (10010c8c <_malloc_r+0xa8>)
10010c3e:	6823      	ldr	r3, [r4, #0]
10010c40:	2b00      	cmp	r3, #0
10010c42:	d103      	bne.n	10010c4c <_malloc_r+0x68>
10010c44:	0030      	movs	r0, r6
10010c46:	f000 f879 	bl	10010d3c <_sbrk_r>
10010c4a:	6020      	str	r0, [r4, #0]
10010c4c:	0029      	movs	r1, r5
10010c4e:	0030      	movs	r0, r6
10010c50:	f000 f874 	bl	10010d3c <_sbrk_r>
10010c54:	1c43      	adds	r3, r0, #1
10010c56:	d0d1      	beq.n	10010bfc <_malloc_r+0x18>
10010c58:	2303      	movs	r3, #3
10010c5a:	1cc4      	adds	r4, r0, #3
10010c5c:	439c      	bics	r4, r3
10010c5e:	42a0      	cmp	r0, r4
10010c60:	d10a      	bne.n	10010c78 <_malloc_r+0x94>
10010c62:	6025      	str	r5, [r4, #0]
10010c64:	0020      	movs	r0, r4
10010c66:	2207      	movs	r2, #7
10010c68:	300b      	adds	r0, #11
10010c6a:	1d23      	adds	r3, r4, #4
10010c6c:	4390      	bics	r0, r2
10010c6e:	1ac3      	subs	r3, r0, r3
10010c70:	d009      	beq.n	10010c86 <_malloc_r+0xa2>
10010c72:	425a      	negs	r2, r3
10010c74:	50e2      	str	r2, [r4, r3]
10010c76:	e006      	b.n	10010c86 <_malloc_r+0xa2>
10010c78:	1a21      	subs	r1, r4, r0
10010c7a:	0030      	movs	r0, r6
10010c7c:	f000 f85e 	bl	10010d3c <_sbrk_r>
10010c80:	1c43      	adds	r3, r0, #1
10010c82:	d1ee      	bne.n	10010c62 <_malloc_r+0x7e>
10010c84:	e7ba      	b.n	10010bfc <_malloc_r+0x18>
10010c86:	bd70      	pop	{r4, r5, r6, pc}
10010c88:	100139c0 	.word	0x100139c0
10010c8c:	100139bc 	.word	0x100139bc

10010c90 <iprintf>:
10010c90:	b40f      	push	{r0, r1, r2, r3}
10010c92:	4b0b      	ldr	r3, [pc, #44]	; (10010cc0 <iprintf+0x30>)
10010c94:	b513      	push	{r0, r1, r4, lr}
10010c96:	681c      	ldr	r4, [r3, #0]
10010c98:	2c00      	cmp	r4, #0
10010c9a:	d005      	beq.n	10010ca8 <iprintf+0x18>
10010c9c:	69a3      	ldr	r3, [r4, #24]
10010c9e:	2b00      	cmp	r3, #0
10010ca0:	d102      	bne.n	10010ca8 <iprintf+0x18>
10010ca2:	0020      	movs	r0, r4
10010ca4:	f000 fa0a 	bl	100110bc <__sinit>
10010ca8:	ab05      	add	r3, sp, #20
10010caa:	9a04      	ldr	r2, [sp, #16]
10010cac:	68a1      	ldr	r1, [r4, #8]
10010cae:	0020      	movs	r0, r4
10010cb0:	9301      	str	r3, [sp, #4]
10010cb2:	f000 fb23 	bl	100112fc <_vfiprintf_r>
10010cb6:	bc16      	pop	{r1, r2, r4}
10010cb8:	bc08      	pop	{r3}
10010cba:	b004      	add	sp, #16
10010cbc:	4718      	bx	r3
10010cbe:	46c0      	nop			; (mov r8, r8)
10010cc0:	10011f00 	.word	0x10011f00

10010cc4 <rand>:
10010cc4:	4b15      	ldr	r3, [pc, #84]	; (10010d1c <rand+0x58>)
10010cc6:	b510      	push	{r4, lr}
10010cc8:	681c      	ldr	r4, [r3, #0]
10010cca:	6ba3      	ldr	r3, [r4, #56]	; 0x38
10010ccc:	2b00      	cmp	r3, #0
10010cce:	d115      	bne.n	10010cfc <rand+0x38>
10010cd0:	2018      	movs	r0, #24
10010cd2:	f7ff ff0d 	bl	10010af0 <malloc>
10010cd6:	4b12      	ldr	r3, [pc, #72]	; (10010d20 <rand+0x5c>)
10010cd8:	63a0      	str	r0, [r4, #56]	; 0x38
10010cda:	8003      	strh	r3, [r0, #0]
10010cdc:	4b11      	ldr	r3, [pc, #68]	; (10010d24 <rand+0x60>)
10010cde:	2201      	movs	r2, #1
10010ce0:	8043      	strh	r3, [r0, #2]
10010ce2:	4b11      	ldr	r3, [pc, #68]	; (10010d28 <rand+0x64>)
10010ce4:	8083      	strh	r3, [r0, #4]
10010ce6:	4b11      	ldr	r3, [pc, #68]	; (10010d2c <rand+0x68>)
10010ce8:	80c3      	strh	r3, [r0, #6]
10010cea:	4b11      	ldr	r3, [pc, #68]	; (10010d30 <rand+0x6c>)
10010cec:	8103      	strh	r3, [r0, #8]
10010cee:	2305      	movs	r3, #5
10010cf0:	8143      	strh	r3, [r0, #10]
10010cf2:	3306      	adds	r3, #6
10010cf4:	8183      	strh	r3, [r0, #12]
10010cf6:	2300      	movs	r3, #0
10010cf8:	6102      	str	r2, [r0, #16]
10010cfa:	6143      	str	r3, [r0, #20]
10010cfc:	6ba4      	ldr	r4, [r4, #56]	; 0x38
10010cfe:	4a0d      	ldr	r2, [pc, #52]	; (10010d34 <rand+0x70>)
10010d00:	6920      	ldr	r0, [r4, #16]
10010d02:	6961      	ldr	r1, [r4, #20]
10010d04:	4b0c      	ldr	r3, [pc, #48]	; (10010d38 <rand+0x74>)
10010d06:	f7fe fedd 	bl	1000fac4 <__aeabi_lmul>
10010d0a:	2201      	movs	r2, #1
10010d0c:	2300      	movs	r3, #0
10010d0e:	1880      	adds	r0, r0, r2
10010d10:	4159      	adcs	r1, r3
10010d12:	6120      	str	r0, [r4, #16]
10010d14:	6161      	str	r1, [r4, #20]
10010d16:	0048      	lsls	r0, r1, #1
10010d18:	0840      	lsrs	r0, r0, #1
10010d1a:	bd10      	pop	{r4, pc}
10010d1c:	10011f00 	.word	0x10011f00
10010d20:	0000330e 	.word	0x0000330e
10010d24:	ffffabcd 	.word	0xffffabcd
10010d28:	00001234 	.word	0x00001234
10010d2c:	ffffe66d 	.word	0xffffe66d
10010d30:	ffffdeec 	.word	0xffffdeec
10010d34:	4c957f2d 	.word	0x4c957f2d
10010d38:	5851f42d 	.word	0x5851f42d

10010d3c <_sbrk_r>:
10010d3c:	2300      	movs	r3, #0
10010d3e:	b570      	push	{r4, r5, r6, lr}
10010d40:	4c06      	ldr	r4, [pc, #24]	; (10010d5c <_sbrk_r+0x20>)
10010d42:	0005      	movs	r5, r0
10010d44:	0008      	movs	r0, r1
10010d46:	6023      	str	r3, [r4, #0]
10010d48:	f7f9 fee4 	bl	1000ab14 <_sbrk>
10010d4c:	1c43      	adds	r3, r0, #1
10010d4e:	d103      	bne.n	10010d58 <_sbrk_r+0x1c>
10010d50:	6823      	ldr	r3, [r4, #0]
10010d52:	2b00      	cmp	r3, #0
10010d54:	d000      	beq.n	10010d58 <_sbrk_r+0x1c>
10010d56:	602b      	str	r3, [r5, #0]
10010d58:	bd70      	pop	{r4, r5, r6, pc}
10010d5a:	46c0      	nop			; (mov r8, r8)
10010d5c:	10014cd0 	.word	0x10014cd0

10010d60 <setbuf>:
10010d60:	424a      	negs	r2, r1
10010d62:	414a      	adcs	r2, r1
10010d64:	2380      	movs	r3, #128	; 0x80
10010d66:	b510      	push	{r4, lr}
10010d68:	0052      	lsls	r2, r2, #1
10010d6a:	00db      	lsls	r3, r3, #3
10010d6c:	f000 f802 	bl	10010d74 <setvbuf>
10010d70:	bd10      	pop	{r4, pc}
	...

10010d74 <setvbuf>:
10010d74:	b5f0      	push	{r4, r5, r6, r7, lr}
10010d76:	001d      	movs	r5, r3
10010d78:	4b51      	ldr	r3, [pc, #324]	; (10010ec0 <setvbuf+0x14c>)
10010d7a:	b085      	sub	sp, #20
10010d7c:	681e      	ldr	r6, [r3, #0]
10010d7e:	0004      	movs	r4, r0
10010d80:	000f      	movs	r7, r1
10010d82:	9200      	str	r2, [sp, #0]
10010d84:	2e00      	cmp	r6, #0
10010d86:	d005      	beq.n	10010d94 <setvbuf+0x20>
10010d88:	69b3      	ldr	r3, [r6, #24]
10010d8a:	2b00      	cmp	r3, #0
10010d8c:	d102      	bne.n	10010d94 <setvbuf+0x20>
10010d8e:	0030      	movs	r0, r6
10010d90:	f000 f994 	bl	100110bc <__sinit>
10010d94:	4b4b      	ldr	r3, [pc, #300]	; (10010ec4 <setvbuf+0x150>)
10010d96:	429c      	cmp	r4, r3
10010d98:	d101      	bne.n	10010d9e <setvbuf+0x2a>
10010d9a:	6874      	ldr	r4, [r6, #4]
10010d9c:	e008      	b.n	10010db0 <setvbuf+0x3c>
10010d9e:	4b4a      	ldr	r3, [pc, #296]	; (10010ec8 <setvbuf+0x154>)
10010da0:	429c      	cmp	r4, r3
10010da2:	d101      	bne.n	10010da8 <setvbuf+0x34>
10010da4:	68b4      	ldr	r4, [r6, #8]
10010da6:	e003      	b.n	10010db0 <setvbuf+0x3c>
10010da8:	4b48      	ldr	r3, [pc, #288]	; (10010ecc <setvbuf+0x158>)
10010daa:	429c      	cmp	r4, r3
10010dac:	d100      	bne.n	10010db0 <setvbuf+0x3c>
10010dae:	68f4      	ldr	r4, [r6, #12]
10010db0:	9b00      	ldr	r3, [sp, #0]
10010db2:	2b02      	cmp	r3, #2
10010db4:	d005      	beq.n	10010dc2 <setvbuf+0x4e>
10010db6:	2b01      	cmp	r3, #1
10010db8:	d900      	bls.n	10010dbc <setvbuf+0x48>
10010dba:	e07c      	b.n	10010eb6 <setvbuf+0x142>
10010dbc:	2d00      	cmp	r5, #0
10010dbe:	da00      	bge.n	10010dc2 <setvbuf+0x4e>
10010dc0:	e079      	b.n	10010eb6 <setvbuf+0x142>
10010dc2:	0021      	movs	r1, r4
10010dc4:	0030      	movs	r0, r6
10010dc6:	f000 f90b 	bl	10010fe0 <_fflush_r>
10010dca:	6b61      	ldr	r1, [r4, #52]	; 0x34
10010dcc:	2900      	cmp	r1, #0
10010dce:	d008      	beq.n	10010de2 <setvbuf+0x6e>
10010dd0:	0023      	movs	r3, r4
10010dd2:	3344      	adds	r3, #68	; 0x44
10010dd4:	4299      	cmp	r1, r3
10010dd6:	d002      	beq.n	10010dde <setvbuf+0x6a>
10010dd8:	0030      	movs	r0, r6
10010dda:	f7ff febd 	bl	10010b58 <_free_r>
10010dde:	2300      	movs	r3, #0
10010de0:	6363      	str	r3, [r4, #52]	; 0x34
10010de2:	2300      	movs	r3, #0
10010de4:	61a3      	str	r3, [r4, #24]
10010de6:	6063      	str	r3, [r4, #4]
10010de8:	89a3      	ldrh	r3, [r4, #12]
10010dea:	061b      	lsls	r3, r3, #24
10010dec:	d503      	bpl.n	10010df6 <setvbuf+0x82>
10010dee:	6921      	ldr	r1, [r4, #16]
10010df0:	0030      	movs	r0, r6
10010df2:	f7ff feb1 	bl	10010b58 <_free_r>
10010df6:	89a2      	ldrh	r2, [r4, #12]
10010df8:	4b35      	ldr	r3, [pc, #212]	; (10010ed0 <setvbuf+0x15c>)
10010dfa:	4013      	ands	r3, r2
10010dfc:	81a3      	strh	r3, [r4, #12]
10010dfe:	9b00      	ldr	r3, [sp, #0]
10010e00:	2b02      	cmp	r3, #2
10010e02:	d021      	beq.n	10010e48 <setvbuf+0xd4>
10010e04:	ab03      	add	r3, sp, #12
10010e06:	aa02      	add	r2, sp, #8
10010e08:	0021      	movs	r1, r4
10010e0a:	0030      	movs	r0, r6
10010e0c:	f000 f9ea 	bl	100111e4 <__swhatbuf_r>
10010e10:	89a3      	ldrh	r3, [r4, #12]
10010e12:	4318      	orrs	r0, r3
10010e14:	81a0      	strh	r0, [r4, #12]
10010e16:	2d00      	cmp	r5, #0
10010e18:	d101      	bne.n	10010e1e <setvbuf+0xaa>
10010e1a:	9d02      	ldr	r5, [sp, #8]
10010e1c:	e001      	b.n	10010e22 <setvbuf+0xae>
10010e1e:	2f00      	cmp	r7, #0
10010e20:	d125      	bne.n	10010e6e <setvbuf+0xfa>
10010e22:	0028      	movs	r0, r5
10010e24:	f7ff fe64 	bl	10010af0 <malloc>
10010e28:	9501      	str	r5, [sp, #4]
10010e2a:	1e07      	subs	r7, r0, #0
10010e2c:	d11a      	bne.n	10010e64 <setvbuf+0xf0>
10010e2e:	9b02      	ldr	r3, [sp, #8]
10010e30:	9301      	str	r3, [sp, #4]
10010e32:	42ab      	cmp	r3, r5
10010e34:	d102      	bne.n	10010e3c <setvbuf+0xc8>
10010e36:	2001      	movs	r0, #1
10010e38:	4240      	negs	r0, r0
10010e3a:	e006      	b.n	10010e4a <setvbuf+0xd6>
10010e3c:	9801      	ldr	r0, [sp, #4]
10010e3e:	f7ff fe57 	bl	10010af0 <malloc>
10010e42:	1e07      	subs	r7, r0, #0
10010e44:	d10e      	bne.n	10010e64 <setvbuf+0xf0>
10010e46:	e7f6      	b.n	10010e36 <setvbuf+0xc2>
10010e48:	2000      	movs	r0, #0
10010e4a:	2202      	movs	r2, #2
10010e4c:	89a3      	ldrh	r3, [r4, #12]
10010e4e:	4313      	orrs	r3, r2
10010e50:	81a3      	strh	r3, [r4, #12]
10010e52:	2300      	movs	r3, #0
10010e54:	60a3      	str	r3, [r4, #8]
10010e56:	0023      	movs	r3, r4
10010e58:	3347      	adds	r3, #71	; 0x47
10010e5a:	6023      	str	r3, [r4, #0]
10010e5c:	6123      	str	r3, [r4, #16]
10010e5e:	2301      	movs	r3, #1
10010e60:	6163      	str	r3, [r4, #20]
10010e62:	e02a      	b.n	10010eba <setvbuf+0x146>
10010e64:	2280      	movs	r2, #128	; 0x80
10010e66:	89a3      	ldrh	r3, [r4, #12]
10010e68:	9d01      	ldr	r5, [sp, #4]
10010e6a:	4313      	orrs	r3, r2
10010e6c:	81a3      	strh	r3, [r4, #12]
10010e6e:	69b3      	ldr	r3, [r6, #24]
10010e70:	2b00      	cmp	r3, #0
10010e72:	d102      	bne.n	10010e7a <setvbuf+0x106>
10010e74:	0030      	movs	r0, r6
10010e76:	f000 f921 	bl	100110bc <__sinit>
10010e7a:	9b00      	ldr	r3, [sp, #0]
10010e7c:	2b01      	cmp	r3, #1
10010e7e:	d103      	bne.n	10010e88 <setvbuf+0x114>
10010e80:	89a3      	ldrh	r3, [r4, #12]
10010e82:	9a00      	ldr	r2, [sp, #0]
10010e84:	431a      	orrs	r2, r3
10010e86:	81a2      	strh	r2, [r4, #12]
10010e88:	2308      	movs	r3, #8
10010e8a:	89a2      	ldrh	r2, [r4, #12]
10010e8c:	6027      	str	r7, [r4, #0]
10010e8e:	4013      	ands	r3, r2
10010e90:	6127      	str	r7, [r4, #16]
10010e92:	6165      	str	r5, [r4, #20]
10010e94:	1e18      	subs	r0, r3, #0
10010e96:	d00c      	beq.n	10010eb2 <setvbuf+0x13e>
10010e98:	2301      	movs	r3, #1
10010e9a:	401a      	ands	r2, r3
10010e9c:	2300      	movs	r3, #0
10010e9e:	1e10      	subs	r0, r2, #0
10010ea0:	4298      	cmp	r0, r3
10010ea2:	d004      	beq.n	10010eae <setvbuf+0x13a>
10010ea4:	426d      	negs	r5, r5
10010ea6:	60a3      	str	r3, [r4, #8]
10010ea8:	61a5      	str	r5, [r4, #24]
10010eaa:	0018      	movs	r0, r3
10010eac:	e005      	b.n	10010eba <setvbuf+0x146>
10010eae:	60a5      	str	r5, [r4, #8]
10010eb0:	e003      	b.n	10010eba <setvbuf+0x146>
10010eb2:	60a3      	str	r3, [r4, #8]
10010eb4:	e001      	b.n	10010eba <setvbuf+0x146>
10010eb6:	2001      	movs	r0, #1
10010eb8:	4240      	negs	r0, r0
10010eba:	b005      	add	sp, #20
10010ebc:	bdf0      	pop	{r4, r5, r6, r7, pc}
10010ebe:	46c0      	nop			; (mov r8, r8)
10010ec0:	10011f00 	.word	0x10011f00
10010ec4:	10011de4 	.word	0x10011de4
10010ec8:	10011e04 	.word	0x10011e04
10010ecc:	10011e24 	.word	0x10011e24
10010ed0:	fffff35c 	.word	0xfffff35c

10010ed4 <__sflush_r>:
10010ed4:	b5f7      	push	{r0, r1, r2, r4, r5, r6, r7, lr}
10010ed6:	898a      	ldrh	r2, [r1, #12]
10010ed8:	0005      	movs	r5, r0
10010eda:	000c      	movs	r4, r1
10010edc:	0713      	lsls	r3, r2, #28
10010ede:	d45a      	bmi.n	10010f96 <__sflush_r+0xc2>
10010ee0:	684b      	ldr	r3, [r1, #4]
10010ee2:	2b00      	cmp	r3, #0
10010ee4:	dc02      	bgt.n	10010eec <__sflush_r+0x18>
10010ee6:	6c0b      	ldr	r3, [r1, #64]	; 0x40
10010ee8:	2b00      	cmp	r3, #0
10010eea:	dd19      	ble.n	10010f20 <__sflush_r+0x4c>
10010eec:	6ae7      	ldr	r7, [r4, #44]	; 0x2c
10010eee:	2f00      	cmp	r7, #0
10010ef0:	d016      	beq.n	10010f20 <__sflush_r+0x4c>
10010ef2:	2300      	movs	r3, #0
10010ef4:	682e      	ldr	r6, [r5, #0]
10010ef6:	602b      	str	r3, [r5, #0]
10010ef8:	2380      	movs	r3, #128	; 0x80
10010efa:	015b      	lsls	r3, r3, #5
10010efc:	401a      	ands	r2, r3
10010efe:	d001      	beq.n	10010f04 <__sflush_r+0x30>
10010f00:	6d60      	ldr	r0, [r4, #84]	; 0x54
10010f02:	e014      	b.n	10010f2e <__sflush_r+0x5a>
10010f04:	2301      	movs	r3, #1
10010f06:	6a21      	ldr	r1, [r4, #32]
10010f08:	0028      	movs	r0, r5
10010f0a:	47b8      	blx	r7
10010f0c:	1c43      	adds	r3, r0, #1
10010f0e:	d10e      	bne.n	10010f2e <__sflush_r+0x5a>
10010f10:	682b      	ldr	r3, [r5, #0]
10010f12:	2b00      	cmp	r3, #0
10010f14:	d00b      	beq.n	10010f2e <__sflush_r+0x5a>
10010f16:	2b1d      	cmp	r3, #29
10010f18:	d001      	beq.n	10010f1e <__sflush_r+0x4a>
10010f1a:	2b16      	cmp	r3, #22
10010f1c:	d102      	bne.n	10010f24 <__sflush_r+0x50>
10010f1e:	602e      	str	r6, [r5, #0]
10010f20:	2000      	movs	r0, #0
10010f22:	e05a      	b.n	10010fda <__sflush_r+0x106>
10010f24:	2240      	movs	r2, #64	; 0x40
10010f26:	89a3      	ldrh	r3, [r4, #12]
10010f28:	4313      	orrs	r3, r2
10010f2a:	81a3      	strh	r3, [r4, #12]
10010f2c:	e055      	b.n	10010fda <__sflush_r+0x106>
10010f2e:	89a3      	ldrh	r3, [r4, #12]
10010f30:	075b      	lsls	r3, r3, #29
10010f32:	d506      	bpl.n	10010f42 <__sflush_r+0x6e>
10010f34:	6863      	ldr	r3, [r4, #4]
10010f36:	1ac0      	subs	r0, r0, r3
10010f38:	6b63      	ldr	r3, [r4, #52]	; 0x34
10010f3a:	2b00      	cmp	r3, #0
10010f3c:	d001      	beq.n	10010f42 <__sflush_r+0x6e>
10010f3e:	6c23      	ldr	r3, [r4, #64]	; 0x40
10010f40:	1ac0      	subs	r0, r0, r3
10010f42:	2300      	movs	r3, #0
10010f44:	0002      	movs	r2, r0
10010f46:	6a21      	ldr	r1, [r4, #32]
10010f48:	0028      	movs	r0, r5
10010f4a:	6ae7      	ldr	r7, [r4, #44]	; 0x2c
10010f4c:	47b8      	blx	r7
10010f4e:	89a3      	ldrh	r3, [r4, #12]
10010f50:	1c42      	adds	r2, r0, #1
10010f52:	d106      	bne.n	10010f62 <__sflush_r+0x8e>
10010f54:	6829      	ldr	r1, [r5, #0]
10010f56:	291d      	cmp	r1, #29
10010f58:	d83a      	bhi.n	10010fd0 <__sflush_r+0xfc>
10010f5a:	4a20      	ldr	r2, [pc, #128]	; (10010fdc <__sflush_r+0x108>)
10010f5c:	40ca      	lsrs	r2, r1
10010f5e:	07d2      	lsls	r2, r2, #31
10010f60:	d536      	bpl.n	10010fd0 <__sflush_r+0xfc>
10010f62:	2200      	movs	r2, #0
10010f64:	6062      	str	r2, [r4, #4]
10010f66:	6922      	ldr	r2, [r4, #16]
10010f68:	6022      	str	r2, [r4, #0]
10010f6a:	04db      	lsls	r3, r3, #19
10010f6c:	d505      	bpl.n	10010f7a <__sflush_r+0xa6>
10010f6e:	1c43      	adds	r3, r0, #1
10010f70:	d102      	bne.n	10010f78 <__sflush_r+0xa4>
10010f72:	682b      	ldr	r3, [r5, #0]
10010f74:	2b00      	cmp	r3, #0
10010f76:	d100      	bne.n	10010f7a <__sflush_r+0xa6>
10010f78:	6560      	str	r0, [r4, #84]	; 0x54
10010f7a:	6b61      	ldr	r1, [r4, #52]	; 0x34
10010f7c:	602e      	str	r6, [r5, #0]
10010f7e:	2900      	cmp	r1, #0
10010f80:	d0ce      	beq.n	10010f20 <__sflush_r+0x4c>
10010f82:	0023      	movs	r3, r4
10010f84:	3344      	adds	r3, #68	; 0x44
10010f86:	4299      	cmp	r1, r3
10010f88:	d002      	beq.n	10010f90 <__sflush_r+0xbc>
10010f8a:	0028      	movs	r0, r5
10010f8c:	f7ff fde4 	bl	10010b58 <_free_r>
10010f90:	2000      	movs	r0, #0
10010f92:	6360      	str	r0, [r4, #52]	; 0x34
10010f94:	e021      	b.n	10010fda <__sflush_r+0x106>
10010f96:	690f      	ldr	r7, [r1, #16]
10010f98:	2f00      	cmp	r7, #0
10010f9a:	d0c1      	beq.n	10010f20 <__sflush_r+0x4c>
10010f9c:	680b      	ldr	r3, [r1, #0]
10010f9e:	600f      	str	r7, [r1, #0]
10010fa0:	1bdb      	subs	r3, r3, r7
10010fa2:	9301      	str	r3, [sp, #4]
10010fa4:	2300      	movs	r3, #0
10010fa6:	0792      	lsls	r2, r2, #30
10010fa8:	d100      	bne.n	10010fac <__sflush_r+0xd8>
10010faa:	694b      	ldr	r3, [r1, #20]
10010fac:	60a3      	str	r3, [r4, #8]
10010fae:	e003      	b.n	10010fb8 <__sflush_r+0xe4>
10010fb0:	9b01      	ldr	r3, [sp, #4]
10010fb2:	183f      	adds	r7, r7, r0
10010fb4:	1a1b      	subs	r3, r3, r0
10010fb6:	9301      	str	r3, [sp, #4]
10010fb8:	9b01      	ldr	r3, [sp, #4]
10010fba:	2b00      	cmp	r3, #0
10010fbc:	ddb0      	ble.n	10010f20 <__sflush_r+0x4c>
10010fbe:	9b01      	ldr	r3, [sp, #4]
10010fc0:	003a      	movs	r2, r7
10010fc2:	6a21      	ldr	r1, [r4, #32]
10010fc4:	0028      	movs	r0, r5
10010fc6:	6aa6      	ldr	r6, [r4, #40]	; 0x28
10010fc8:	47b0      	blx	r6
10010fca:	2800      	cmp	r0, #0
10010fcc:	dcf0      	bgt.n	10010fb0 <__sflush_r+0xdc>
10010fce:	89a3      	ldrh	r3, [r4, #12]
10010fd0:	2240      	movs	r2, #64	; 0x40
10010fd2:	2001      	movs	r0, #1
10010fd4:	4313      	orrs	r3, r2
10010fd6:	81a3      	strh	r3, [r4, #12]
10010fd8:	4240      	negs	r0, r0
10010fda:	bdfe      	pop	{r1, r2, r3, r4, r5, r6, r7, pc}
10010fdc:	20400001 	.word	0x20400001

10010fe0 <_fflush_r>:
10010fe0:	690b      	ldr	r3, [r1, #16]
10010fe2:	b570      	push	{r4, r5, r6, lr}
10010fe4:	0005      	movs	r5, r0
10010fe6:	000c      	movs	r4, r1
10010fe8:	2b00      	cmp	r3, #0
10010fea:	d101      	bne.n	10010ff0 <_fflush_r+0x10>
10010fec:	2000      	movs	r0, #0
10010fee:	e01c      	b.n	1001102a <_fflush_r+0x4a>
10010ff0:	2800      	cmp	r0, #0
10010ff2:	d004      	beq.n	10010ffe <_fflush_r+0x1e>
10010ff4:	6983      	ldr	r3, [r0, #24]
10010ff6:	2b00      	cmp	r3, #0
10010ff8:	d101      	bne.n	10010ffe <_fflush_r+0x1e>
10010ffa:	f000 f85f 	bl	100110bc <__sinit>
10010ffe:	4b0b      	ldr	r3, [pc, #44]	; (1001102c <_fflush_r+0x4c>)
10011000:	429c      	cmp	r4, r3
10011002:	d101      	bne.n	10011008 <_fflush_r+0x28>
10011004:	686c      	ldr	r4, [r5, #4]
10011006:	e008      	b.n	1001101a <_fflush_r+0x3a>
10011008:	4b09      	ldr	r3, [pc, #36]	; (10011030 <_fflush_r+0x50>)
1001100a:	429c      	cmp	r4, r3
1001100c:	d101      	bne.n	10011012 <_fflush_r+0x32>
1001100e:	68ac      	ldr	r4, [r5, #8]
10011010:	e003      	b.n	1001101a <_fflush_r+0x3a>
10011012:	4b08      	ldr	r3, [pc, #32]	; (10011034 <_fflush_r+0x54>)
10011014:	429c      	cmp	r4, r3
10011016:	d100      	bne.n	1001101a <_fflush_r+0x3a>
10011018:	68ec      	ldr	r4, [r5, #12]
1001101a:	220c      	movs	r2, #12
1001101c:	5ea3      	ldrsh	r3, [r4, r2]
1001101e:	2b00      	cmp	r3, #0
10011020:	d0e4      	beq.n	10010fec <_fflush_r+0xc>
10011022:	0021      	movs	r1, r4
10011024:	0028      	movs	r0, r5
10011026:	f7ff ff55 	bl	10010ed4 <__sflush_r>
1001102a:	bd70      	pop	{r4, r5, r6, pc}
1001102c:	10011de4 	.word	0x10011de4
10011030:	10011e04 	.word	0x10011e04
10011034:	10011e24 	.word	0x10011e24

10011038 <_cleanup_r>:
10011038:	b510      	push	{r4, lr}
1001103a:	4902      	ldr	r1, [pc, #8]	; (10011044 <_cleanup_r+0xc>)
1001103c:	f000 f8b0 	bl	100111a0 <_fwalk_reent>
10011040:	bd10      	pop	{r4, pc}
10011042:	46c0      	nop			; (mov r8, r8)
10011044:	10010fe1 	.word	0x10010fe1

10011048 <std.isra.0>:
10011048:	2300      	movs	r3, #0
1001104a:	b510      	push	{r4, lr}
1001104c:	0004      	movs	r4, r0
1001104e:	6003      	str	r3, [r0, #0]
10011050:	6043      	str	r3, [r0, #4]
10011052:	6083      	str	r3, [r0, #8]
10011054:	8181      	strh	r1, [r0, #12]
10011056:	6643      	str	r3, [r0, #100]	; 0x64
10011058:	81c2      	strh	r2, [r0, #14]
1001105a:	6103      	str	r3, [r0, #16]
1001105c:	6143      	str	r3, [r0, #20]
1001105e:	6183      	str	r3, [r0, #24]
10011060:	0019      	movs	r1, r3
10011062:	2208      	movs	r2, #8
10011064:	305c      	adds	r0, #92	; 0x5c
10011066:	f7ff fd6f 	bl	10010b48 <memset>
1001106a:	4b05      	ldr	r3, [pc, #20]	; (10011080 <std.isra.0+0x38>)
1001106c:	6224      	str	r4, [r4, #32]
1001106e:	6263      	str	r3, [r4, #36]	; 0x24
10011070:	4b04      	ldr	r3, [pc, #16]	; (10011084 <std.isra.0+0x3c>)
10011072:	62a3      	str	r3, [r4, #40]	; 0x28
10011074:	4b04      	ldr	r3, [pc, #16]	; (10011088 <std.isra.0+0x40>)
10011076:	62e3      	str	r3, [r4, #44]	; 0x2c
10011078:	4b04      	ldr	r3, [pc, #16]	; (1001108c <std.isra.0+0x44>)
1001107a:	6323      	str	r3, [r4, #48]	; 0x30
1001107c:	bd10      	pop	{r4, pc}
1001107e:	46c0      	nop			; (mov r8, r8)
10011080:	10011855 	.word	0x10011855
10011084:	1001187d 	.word	0x1001187d
10011088:	100118b5 	.word	0x100118b5
1001108c:	100118e1 	.word	0x100118e1

10011090 <__sfmoreglue>:
10011090:	b570      	push	{r4, r5, r6, lr}
10011092:	2568      	movs	r5, #104	; 0x68
10011094:	1e4b      	subs	r3, r1, #1
10011096:	435d      	muls	r5, r3
10011098:	000e      	movs	r6, r1
1001109a:	0029      	movs	r1, r5
1001109c:	3174      	adds	r1, #116	; 0x74
1001109e:	f7ff fda1 	bl	10010be4 <_malloc_r>
100110a2:	1e04      	subs	r4, r0, #0
100110a4:	d008      	beq.n	100110b8 <__sfmoreglue+0x28>
100110a6:	2100      	movs	r1, #0
100110a8:	002a      	movs	r2, r5
100110aa:	6001      	str	r1, [r0, #0]
100110ac:	6046      	str	r6, [r0, #4]
100110ae:	300c      	adds	r0, #12
100110b0:	60a0      	str	r0, [r4, #8]
100110b2:	3268      	adds	r2, #104	; 0x68
100110b4:	f7ff fd48 	bl	10010b48 <memset>
100110b8:	0020      	movs	r0, r4
100110ba:	bd70      	pop	{r4, r5, r6, pc}

100110bc <__sinit>:
100110bc:	6983      	ldr	r3, [r0, #24]
100110be:	b513      	push	{r0, r1, r4, lr}
100110c0:	0004      	movs	r4, r0
100110c2:	2b00      	cmp	r3, #0
100110c4:	d128      	bne.n	10011118 <__sinit+0x5c>
100110c6:	6483      	str	r3, [r0, #72]	; 0x48
100110c8:	64c3      	str	r3, [r0, #76]	; 0x4c
100110ca:	6503      	str	r3, [r0, #80]	; 0x50
100110cc:	4b13      	ldr	r3, [pc, #76]	; (1001111c <__sinit+0x60>)
100110ce:	4a14      	ldr	r2, [pc, #80]	; (10011120 <__sinit+0x64>)
100110d0:	681b      	ldr	r3, [r3, #0]
100110d2:	6282      	str	r2, [r0, #40]	; 0x28
100110d4:	9301      	str	r3, [sp, #4]
100110d6:	4298      	cmp	r0, r3
100110d8:	d101      	bne.n	100110de <__sinit+0x22>
100110da:	2301      	movs	r3, #1
100110dc:	6183      	str	r3, [r0, #24]
100110de:	0020      	movs	r0, r4
100110e0:	f000 f820 	bl	10011124 <__sfp>
100110e4:	6060      	str	r0, [r4, #4]
100110e6:	0020      	movs	r0, r4
100110e8:	f000 f81c 	bl	10011124 <__sfp>
100110ec:	60a0      	str	r0, [r4, #8]
100110ee:	0020      	movs	r0, r4
100110f0:	f000 f818 	bl	10011124 <__sfp>
100110f4:	2200      	movs	r2, #0
100110f6:	60e0      	str	r0, [r4, #12]
100110f8:	2104      	movs	r1, #4
100110fa:	6860      	ldr	r0, [r4, #4]
100110fc:	f7ff ffa4 	bl	10011048 <std.isra.0>
10011100:	2201      	movs	r2, #1
10011102:	2109      	movs	r1, #9
10011104:	68a0      	ldr	r0, [r4, #8]
10011106:	f7ff ff9f 	bl	10011048 <std.isra.0>
1001110a:	2202      	movs	r2, #2
1001110c:	2112      	movs	r1, #18
1001110e:	68e0      	ldr	r0, [r4, #12]
10011110:	f7ff ff9a 	bl	10011048 <std.isra.0>
10011114:	2301      	movs	r3, #1
10011116:	61a3      	str	r3, [r4, #24]
10011118:	bd13      	pop	{r0, r1, r4, pc}
1001111a:	46c0      	nop			; (mov r8, r8)
1001111c:	10011de0 	.word	0x10011de0
10011120:	10011039 	.word	0x10011039

10011124 <__sfp>:
10011124:	b5f8      	push	{r3, r4, r5, r6, r7, lr}
10011126:	4b1d      	ldr	r3, [pc, #116]	; (1001119c <__sfp+0x78>)
10011128:	0006      	movs	r6, r0
1001112a:	681d      	ldr	r5, [r3, #0]
1001112c:	69ab      	ldr	r3, [r5, #24]
1001112e:	2b00      	cmp	r3, #0
10011130:	d102      	bne.n	10011138 <__sfp+0x14>
10011132:	0028      	movs	r0, r5
10011134:	f7ff ffc2 	bl	100110bc <__sinit>
10011138:	3548      	adds	r5, #72	; 0x48
1001113a:	68ac      	ldr	r4, [r5, #8]
1001113c:	686b      	ldr	r3, [r5, #4]
1001113e:	3b01      	subs	r3, #1
10011140:	d405      	bmi.n	1001114e <__sfp+0x2a>
10011142:	220c      	movs	r2, #12
10011144:	5ea7      	ldrsh	r7, [r4, r2]
10011146:	2f00      	cmp	r7, #0
10011148:	d010      	beq.n	1001116c <__sfp+0x48>
1001114a:	3468      	adds	r4, #104	; 0x68
1001114c:	e7f7      	b.n	1001113e <__sfp+0x1a>
1001114e:	682b      	ldr	r3, [r5, #0]
10011150:	2b00      	cmp	r3, #0
10011152:	d001      	beq.n	10011158 <__sfp+0x34>
10011154:	682d      	ldr	r5, [r5, #0]
10011156:	e7f0      	b.n	1001113a <__sfp+0x16>
10011158:	2104      	movs	r1, #4
1001115a:	0030      	movs	r0, r6
1001115c:	f7ff ff98 	bl	10011090 <__sfmoreglue>
10011160:	6028      	str	r0, [r5, #0]
10011162:	2800      	cmp	r0, #0
10011164:	d1f6      	bne.n	10011154 <__sfp+0x30>
10011166:	230c      	movs	r3, #12
10011168:	6033      	str	r3, [r6, #0]
1001116a:	e016      	b.n	1001119a <__sfp+0x76>
1001116c:	2301      	movs	r3, #1
1001116e:	0020      	movs	r0, r4
10011170:	425b      	negs	r3, r3
10011172:	81e3      	strh	r3, [r4, #14]
10011174:	3302      	adds	r3, #2
10011176:	81a3      	strh	r3, [r4, #12]
10011178:	6667      	str	r7, [r4, #100]	; 0x64
1001117a:	6027      	str	r7, [r4, #0]
1001117c:	60a7      	str	r7, [r4, #8]
1001117e:	6067      	str	r7, [r4, #4]
10011180:	6127      	str	r7, [r4, #16]
10011182:	6167      	str	r7, [r4, #20]
10011184:	61a7      	str	r7, [r4, #24]
10011186:	305c      	adds	r0, #92	; 0x5c
10011188:	2208      	movs	r2, #8
1001118a:	0039      	movs	r1, r7
1001118c:	f7ff fcdc 	bl	10010b48 <memset>
10011190:	0020      	movs	r0, r4
10011192:	6367      	str	r7, [r4, #52]	; 0x34
10011194:	63a7      	str	r7, [r4, #56]	; 0x38
10011196:	64a7      	str	r7, [r4, #72]	; 0x48
10011198:	64e7      	str	r7, [r4, #76]	; 0x4c
1001119a:	bdf8      	pop	{r3, r4, r5, r6, r7, pc}
1001119c:	10011de0 	.word	0x10011de0

100111a0 <_fwalk_reent>:
100111a0:	b5f7      	push	{r0, r1, r2, r4, r5, r6, r7, lr}
100111a2:	0004      	movs	r4, r0
100111a4:	0007      	movs	r7, r0
100111a6:	2600      	movs	r6, #0
100111a8:	9101      	str	r1, [sp, #4]
100111aa:	3448      	adds	r4, #72	; 0x48
100111ac:	2c00      	cmp	r4, #0
100111ae:	d016      	beq.n	100111de <_fwalk_reent+0x3e>
100111b0:	6863      	ldr	r3, [r4, #4]
100111b2:	68a5      	ldr	r5, [r4, #8]
100111b4:	9300      	str	r3, [sp, #0]
100111b6:	9b00      	ldr	r3, [sp, #0]
100111b8:	3b01      	subs	r3, #1
100111ba:	9300      	str	r3, [sp, #0]
100111bc:	d40d      	bmi.n	100111da <_fwalk_reent+0x3a>
100111be:	89ab      	ldrh	r3, [r5, #12]
100111c0:	2b01      	cmp	r3, #1
100111c2:	d908      	bls.n	100111d6 <_fwalk_reent+0x36>
100111c4:	220e      	movs	r2, #14
100111c6:	5eab      	ldrsh	r3, [r5, r2]
100111c8:	3301      	adds	r3, #1
100111ca:	d004      	beq.n	100111d6 <_fwalk_reent+0x36>
100111cc:	0029      	movs	r1, r5
100111ce:	0038      	movs	r0, r7
100111d0:	9b01      	ldr	r3, [sp, #4]
100111d2:	4798      	blx	r3
100111d4:	4306      	orrs	r6, r0
100111d6:	3568      	adds	r5, #104	; 0x68
100111d8:	e7ed      	b.n	100111b6 <_fwalk_reent+0x16>
100111da:	6824      	ldr	r4, [r4, #0]
100111dc:	e7e6      	b.n	100111ac <_fwalk_reent+0xc>
100111de:	0030      	movs	r0, r6
100111e0:	bdfe      	pop	{r1, r2, r3, r4, r5, r6, r7, pc}
	...

100111e4 <__swhatbuf_r>:
100111e4:	b570      	push	{r4, r5, r6, lr}
100111e6:	000e      	movs	r6, r1
100111e8:	001d      	movs	r5, r3
100111ea:	230e      	movs	r3, #14
100111ec:	5ec9      	ldrsh	r1, [r1, r3]
100111ee:	b090      	sub	sp, #64	; 0x40
100111f0:	0014      	movs	r4, r2
100111f2:	2900      	cmp	r1, #0
100111f4:	da06      	bge.n	10011204 <__swhatbuf_r+0x20>
100111f6:	2300      	movs	r3, #0
100111f8:	602b      	str	r3, [r5, #0]
100111fa:	89b3      	ldrh	r3, [r6, #12]
100111fc:	061b      	lsls	r3, r3, #24
100111fe:	d50f      	bpl.n	10011220 <__swhatbuf_r+0x3c>
10011200:	2340      	movs	r3, #64	; 0x40
10011202:	e00f      	b.n	10011224 <__swhatbuf_r+0x40>
10011204:	aa01      	add	r2, sp, #4
10011206:	f000 fc65 	bl	10011ad4 <_fstat_r>
1001120a:	2800      	cmp	r0, #0
1001120c:	dbf3      	blt.n	100111f6 <__swhatbuf_r+0x12>
1001120e:	23f0      	movs	r3, #240	; 0xf0
10011210:	9a02      	ldr	r2, [sp, #8]
10011212:	021b      	lsls	r3, r3, #8
10011214:	4013      	ands	r3, r2
10011216:	4a05      	ldr	r2, [pc, #20]	; (1001122c <__swhatbuf_r+0x48>)
10011218:	189b      	adds	r3, r3, r2
1001121a:	425a      	negs	r2, r3
1001121c:	4153      	adcs	r3, r2
1001121e:	602b      	str	r3, [r5, #0]
10011220:	2380      	movs	r3, #128	; 0x80
10011222:	00db      	lsls	r3, r3, #3
10011224:	2000      	movs	r0, #0
10011226:	6023      	str	r3, [r4, #0]
10011228:	b010      	add	sp, #64	; 0x40
1001122a:	bd70      	pop	{r4, r5, r6, pc}
1001122c:	ffffe000 	.word	0xffffe000

10011230 <__smakebuf_r>:
10011230:	b5f7      	push	{r0, r1, r2, r4, r5, r6, r7, lr}
10011232:	2602      	movs	r6, #2
10011234:	898b      	ldrh	r3, [r1, #12]
10011236:	0005      	movs	r5, r0
10011238:	000c      	movs	r4, r1
1001123a:	4233      	tst	r3, r6
1001123c:	d110      	bne.n	10011260 <__smakebuf_r+0x30>
1001123e:	ab01      	add	r3, sp, #4
10011240:	466a      	mov	r2, sp
10011242:	f7ff ffcf 	bl	100111e4 <__swhatbuf_r>
10011246:	9900      	ldr	r1, [sp, #0]
10011248:	0007      	movs	r7, r0
1001124a:	0028      	movs	r0, r5
1001124c:	f7ff fcca 	bl	10010be4 <_malloc_r>
10011250:	2800      	cmp	r0, #0
10011252:	d10c      	bne.n	1001126e <__smakebuf_r+0x3e>
10011254:	220c      	movs	r2, #12
10011256:	5ea3      	ldrsh	r3, [r4, r2]
10011258:	059a      	lsls	r2, r3, #22
1001125a:	d423      	bmi.n	100112a4 <__smakebuf_r+0x74>
1001125c:	4333      	orrs	r3, r6
1001125e:	81a3      	strh	r3, [r4, #12]
10011260:	0023      	movs	r3, r4
10011262:	3347      	adds	r3, #71	; 0x47
10011264:	6023      	str	r3, [r4, #0]
10011266:	6123      	str	r3, [r4, #16]
10011268:	2301      	movs	r3, #1
1001126a:	6163      	str	r3, [r4, #20]
1001126c:	e01a      	b.n	100112a4 <__smakebuf_r+0x74>
1001126e:	2280      	movs	r2, #128	; 0x80
10011270:	4b0d      	ldr	r3, [pc, #52]	; (100112a8 <__smakebuf_r+0x78>)
10011272:	62ab      	str	r3, [r5, #40]	; 0x28
10011274:	89a3      	ldrh	r3, [r4, #12]
10011276:	6020      	str	r0, [r4, #0]
10011278:	4313      	orrs	r3, r2
1001127a:	81a3      	strh	r3, [r4, #12]
1001127c:	9b00      	ldr	r3, [sp, #0]
1001127e:	6120      	str	r0, [r4, #16]
10011280:	6163      	str	r3, [r4, #20]
10011282:	9b01      	ldr	r3, [sp, #4]
10011284:	2b00      	cmp	r3, #0
10011286:	d00a      	beq.n	1001129e <__smakebuf_r+0x6e>
10011288:	230e      	movs	r3, #14
1001128a:	5ee1      	ldrsh	r1, [r4, r3]
1001128c:	0028      	movs	r0, r5
1001128e:	f000 fc33 	bl	10011af8 <_isatty_r>
10011292:	2800      	cmp	r0, #0
10011294:	d003      	beq.n	1001129e <__smakebuf_r+0x6e>
10011296:	2201      	movs	r2, #1
10011298:	89a3      	ldrh	r3, [r4, #12]
1001129a:	4313      	orrs	r3, r2
1001129c:	81a3      	strh	r3, [r4, #12]
1001129e:	89a3      	ldrh	r3, [r4, #12]
100112a0:	431f      	orrs	r7, r3
100112a2:	81a7      	strh	r7, [r4, #12]
100112a4:	bdf7      	pop	{r0, r1, r2, r4, r5, r6, r7, pc}
100112a6:	46c0      	nop			; (mov r8, r8)
100112a8:	10011039 	.word	0x10011039

100112ac <__sfputc_r>:
100112ac:	6893      	ldr	r3, [r2, #8]
100112ae:	b510      	push	{r4, lr}
100112b0:	3b01      	subs	r3, #1
100112b2:	6093      	str	r3, [r2, #8]
100112b4:	2b00      	cmp	r3, #0
100112b6:	da05      	bge.n	100112c4 <__sfputc_r+0x18>
100112b8:	6994      	ldr	r4, [r2, #24]
100112ba:	42a3      	cmp	r3, r4
100112bc:	db08      	blt.n	100112d0 <__sfputc_r+0x24>
100112be:	b2cb      	uxtb	r3, r1
100112c0:	2b0a      	cmp	r3, #10
100112c2:	d005      	beq.n	100112d0 <__sfputc_r+0x24>
100112c4:	6813      	ldr	r3, [r2, #0]
100112c6:	1c58      	adds	r0, r3, #1
100112c8:	6010      	str	r0, [r2, #0]
100112ca:	7019      	strb	r1, [r3, #0]
100112cc:	b2c8      	uxtb	r0, r1
100112ce:	e001      	b.n	100112d4 <__sfputc_r+0x28>
100112d0:	f000 fb0c 	bl	100118ec <__swbuf_r>
100112d4:	bd10      	pop	{r4, pc}

100112d6 <__sfputs_r>:
100112d6:	b5f8      	push	{r3, r4, r5, r6, r7, lr}
100112d8:	0006      	movs	r6, r0
100112da:	000f      	movs	r7, r1
100112dc:	0014      	movs	r4, r2
100112de:	18d5      	adds	r5, r2, r3
100112e0:	42ac      	cmp	r4, r5
100112e2:	d008      	beq.n	100112f6 <__sfputs_r+0x20>
100112e4:	7821      	ldrb	r1, [r4, #0]
100112e6:	003a      	movs	r2, r7
100112e8:	0030      	movs	r0, r6
100112ea:	f7ff ffdf 	bl	100112ac <__sfputc_r>
100112ee:	3401      	adds	r4, #1
100112f0:	1c43      	adds	r3, r0, #1
100112f2:	d1f5      	bne.n	100112e0 <__sfputs_r+0xa>
100112f4:	e000      	b.n	100112f8 <__sfputs_r+0x22>
100112f6:	2000      	movs	r0, #0
100112f8:	bdf8      	pop	{r3, r4, r5, r6, r7, pc}
	...

100112fc <_vfiprintf_r>:
100112fc:	b5f0      	push	{r4, r5, r6, r7, lr}
100112fe:	b09f      	sub	sp, #124	; 0x7c
10011300:	0006      	movs	r6, r0
10011302:	000f      	movs	r7, r1
10011304:	9202      	str	r2, [sp, #8]
10011306:	9305      	str	r3, [sp, #20]
10011308:	2800      	cmp	r0, #0
1001130a:	d004      	beq.n	10011316 <_vfiprintf_r+0x1a>
1001130c:	6983      	ldr	r3, [r0, #24]
1001130e:	2b00      	cmp	r3, #0
10011310:	d101      	bne.n	10011316 <_vfiprintf_r+0x1a>
10011312:	f7ff fed3 	bl	100110bc <__sinit>
10011316:	4b7f      	ldr	r3, [pc, #508]	; (10011514 <_vfiprintf_r+0x218>)
10011318:	429f      	cmp	r7, r3
1001131a:	d101      	bne.n	10011320 <_vfiprintf_r+0x24>
1001131c:	6877      	ldr	r7, [r6, #4]
1001131e:	e008      	b.n	10011332 <_vfiprintf_r+0x36>
10011320:	4b7d      	ldr	r3, [pc, #500]	; (10011518 <_vfiprintf_r+0x21c>)
10011322:	429f      	cmp	r7, r3
10011324:	d101      	bne.n	1001132a <_vfiprintf_r+0x2e>
10011326:	68b7      	ldr	r7, [r6, #8]
10011328:	e003      	b.n	10011332 <_vfiprintf_r+0x36>
1001132a:	4b7c      	ldr	r3, [pc, #496]	; (1001151c <_vfiprintf_r+0x220>)
1001132c:	429f      	cmp	r7, r3
1001132e:	d100      	bne.n	10011332 <_vfiprintf_r+0x36>
10011330:	68f7      	ldr	r7, [r6, #12]
10011332:	89bb      	ldrh	r3, [r7, #12]
10011334:	071b      	lsls	r3, r3, #28
10011336:	d50a      	bpl.n	1001134e <_vfiprintf_r+0x52>
10011338:	693b      	ldr	r3, [r7, #16]
1001133a:	2b00      	cmp	r3, #0
1001133c:	d007      	beq.n	1001134e <_vfiprintf_r+0x52>
1001133e:	2300      	movs	r3, #0
10011340:	ad06      	add	r5, sp, #24
10011342:	616b      	str	r3, [r5, #20]
10011344:	3320      	adds	r3, #32
10011346:	766b      	strb	r3, [r5, #25]
10011348:	3310      	adds	r3, #16
1001134a:	76ab      	strb	r3, [r5, #26]
1001134c:	e03d      	b.n	100113ca <_vfiprintf_r+0xce>
1001134e:	0039      	movs	r1, r7
10011350:	0030      	movs	r0, r6
10011352:	f000 fb37 	bl	100119c4 <__swsetup_r>
10011356:	2800      	cmp	r0, #0
10011358:	d0f1      	beq.n	1001133e <_vfiprintf_r+0x42>
1001135a:	2001      	movs	r0, #1
1001135c:	4240      	negs	r0, r0
1001135e:	e0d6      	b.n	1001150e <_vfiprintf_r+0x212>
10011360:	9a05      	ldr	r2, [sp, #20]
10011362:	1d11      	adds	r1, r2, #4
10011364:	6812      	ldr	r2, [r2, #0]
10011366:	9105      	str	r1, [sp, #20]
10011368:	2a00      	cmp	r2, #0
1001136a:	da00      	bge.n	1001136e <_vfiprintf_r+0x72>
1001136c:	e07f      	b.n	1001146e <_vfiprintf_r+0x172>
1001136e:	9209      	str	r2, [sp, #36]	; 0x24
10011370:	3401      	adds	r4, #1
10011372:	7823      	ldrb	r3, [r4, #0]
10011374:	2b2e      	cmp	r3, #46	; 0x2e
10011376:	d100      	bne.n	1001137a <_vfiprintf_r+0x7e>
10011378:	e08d      	b.n	10011496 <_vfiprintf_r+0x19a>
1001137a:	7821      	ldrb	r1, [r4, #0]
1001137c:	2203      	movs	r2, #3
1001137e:	4868      	ldr	r0, [pc, #416]	; (10011520 <_vfiprintf_r+0x224>)
10011380:	f000 fbe0 	bl	10011b44 <memchr>
10011384:	2800      	cmp	r0, #0
10011386:	d007      	beq.n	10011398 <_vfiprintf_r+0x9c>
10011388:	4b65      	ldr	r3, [pc, #404]	; (10011520 <_vfiprintf_r+0x224>)
1001138a:	682a      	ldr	r2, [r5, #0]
1001138c:	1ac0      	subs	r0, r0, r3
1001138e:	2340      	movs	r3, #64	; 0x40
10011390:	4083      	lsls	r3, r0
10011392:	4313      	orrs	r3, r2
10011394:	602b      	str	r3, [r5, #0]
10011396:	3401      	adds	r4, #1
10011398:	7821      	ldrb	r1, [r4, #0]
1001139a:	1c63      	adds	r3, r4, #1
1001139c:	2206      	movs	r2, #6
1001139e:	4861      	ldr	r0, [pc, #388]	; (10011524 <_vfiprintf_r+0x228>)
100113a0:	9302      	str	r3, [sp, #8]
100113a2:	7629      	strb	r1, [r5, #24]
100113a4:	f000 fbce 	bl	10011b44 <memchr>
100113a8:	2800      	cmp	r0, #0
100113aa:	d100      	bne.n	100113ae <_vfiprintf_r+0xb2>
100113ac:	e09d      	b.n	100114ea <_vfiprintf_r+0x1ee>
100113ae:	4b5e      	ldr	r3, [pc, #376]	; (10011528 <_vfiprintf_r+0x22c>)
100113b0:	2b00      	cmp	r3, #0
100113b2:	d000      	beq.n	100113b6 <_vfiprintf_r+0xba>
100113b4:	e090      	b.n	100114d8 <_vfiprintf_r+0x1dc>
100113b6:	2207      	movs	r2, #7
100113b8:	9b05      	ldr	r3, [sp, #20]
100113ba:	3307      	adds	r3, #7
100113bc:	4393      	bics	r3, r2
100113be:	3308      	adds	r3, #8
100113c0:	9305      	str	r3, [sp, #20]
100113c2:	696b      	ldr	r3, [r5, #20]
100113c4:	9a03      	ldr	r2, [sp, #12]
100113c6:	189b      	adds	r3, r3, r2
100113c8:	616b      	str	r3, [r5, #20]
100113ca:	9c02      	ldr	r4, [sp, #8]
100113cc:	7823      	ldrb	r3, [r4, #0]
100113ce:	2b00      	cmp	r3, #0
100113d0:	d104      	bne.n	100113dc <_vfiprintf_r+0xe0>
100113d2:	9b02      	ldr	r3, [sp, #8]
100113d4:	1ae3      	subs	r3, r4, r3
100113d6:	9304      	str	r3, [sp, #16]
100113d8:	d012      	beq.n	10011400 <_vfiprintf_r+0x104>
100113da:	e003      	b.n	100113e4 <_vfiprintf_r+0xe8>
100113dc:	2b25      	cmp	r3, #37	; 0x25
100113de:	d0f8      	beq.n	100113d2 <_vfiprintf_r+0xd6>
100113e0:	3401      	adds	r4, #1
100113e2:	e7f3      	b.n	100113cc <_vfiprintf_r+0xd0>
100113e4:	9b04      	ldr	r3, [sp, #16]
100113e6:	9a02      	ldr	r2, [sp, #8]
100113e8:	0039      	movs	r1, r7
100113ea:	0030      	movs	r0, r6
100113ec:	f7ff ff73 	bl	100112d6 <__sfputs_r>
100113f0:	1c43      	adds	r3, r0, #1
100113f2:	d100      	bne.n	100113f6 <_vfiprintf_r+0xfa>
100113f4:	e086      	b.n	10011504 <_vfiprintf_r+0x208>
100113f6:	696a      	ldr	r2, [r5, #20]
100113f8:	9b04      	ldr	r3, [sp, #16]
100113fa:	4694      	mov	ip, r2
100113fc:	4463      	add	r3, ip
100113fe:	616b      	str	r3, [r5, #20]
10011400:	7823      	ldrb	r3, [r4, #0]
10011402:	2b00      	cmp	r3, #0
10011404:	d07e      	beq.n	10011504 <_vfiprintf_r+0x208>
10011406:	2201      	movs	r2, #1
10011408:	2300      	movs	r3, #0
1001140a:	4252      	negs	r2, r2
1001140c:	606a      	str	r2, [r5, #4]
1001140e:	a902      	add	r1, sp, #8
10011410:	3254      	adds	r2, #84	; 0x54
10011412:	1852      	adds	r2, r2, r1
10011414:	3401      	adds	r4, #1
10011416:	602b      	str	r3, [r5, #0]
10011418:	60eb      	str	r3, [r5, #12]
1001141a:	60ab      	str	r3, [r5, #8]
1001141c:	7013      	strb	r3, [r2, #0]
1001141e:	65ab      	str	r3, [r5, #88]	; 0x58
10011420:	7821      	ldrb	r1, [r4, #0]
10011422:	2205      	movs	r2, #5
10011424:	4841      	ldr	r0, [pc, #260]	; (1001152c <_vfiprintf_r+0x230>)
10011426:	f000 fb8d 	bl	10011b44 <memchr>
1001142a:	2800      	cmp	r0, #0
1001142c:	d008      	beq.n	10011440 <_vfiprintf_r+0x144>
1001142e:	4b3f      	ldr	r3, [pc, #252]	; (1001152c <_vfiprintf_r+0x230>)
10011430:	682a      	ldr	r2, [r5, #0]
10011432:	1ac0      	subs	r0, r0, r3
10011434:	2301      	movs	r3, #1
10011436:	4083      	lsls	r3, r0
10011438:	4313      	orrs	r3, r2
1001143a:	602b      	str	r3, [r5, #0]
1001143c:	3401      	adds	r4, #1
1001143e:	e7ef      	b.n	10011420 <_vfiprintf_r+0x124>
10011440:	682b      	ldr	r3, [r5, #0]
10011442:	06da      	lsls	r2, r3, #27
10011444:	d504      	bpl.n	10011450 <_vfiprintf_r+0x154>
10011446:	2253      	movs	r2, #83	; 0x53
10011448:	2120      	movs	r1, #32
1001144a:	a802      	add	r0, sp, #8
1001144c:	1812      	adds	r2, r2, r0
1001144e:	7011      	strb	r1, [r2, #0]
10011450:	071a      	lsls	r2, r3, #28
10011452:	d504      	bpl.n	1001145e <_vfiprintf_r+0x162>
10011454:	2253      	movs	r2, #83	; 0x53
10011456:	212b      	movs	r1, #43	; 0x2b
10011458:	a802      	add	r0, sp, #8
1001145a:	1812      	adds	r2, r2, r0
1001145c:	7011      	strb	r1, [r2, #0]
1001145e:	7822      	ldrb	r2, [r4, #0]
10011460:	2a2a      	cmp	r2, #42	; 0x2a
10011462:	d100      	bne.n	10011466 <_vfiprintf_r+0x16a>
10011464:	e77c      	b.n	10011360 <_vfiprintf_r+0x64>
10011466:	9b09      	ldr	r3, [sp, #36]	; 0x24
10011468:	2000      	movs	r0, #0
1001146a:	210a      	movs	r1, #10
1001146c:	e005      	b.n	1001147a <_vfiprintf_r+0x17e>
1001146e:	4252      	negs	r2, r2
10011470:	60ea      	str	r2, [r5, #12]
10011472:	2202      	movs	r2, #2
10011474:	4313      	orrs	r3, r2
10011476:	602b      	str	r3, [r5, #0]
10011478:	e77a      	b.n	10011370 <_vfiprintf_r+0x74>
1001147a:	7822      	ldrb	r2, [r4, #0]
1001147c:	3a30      	subs	r2, #48	; 0x30
1001147e:	2a09      	cmp	r2, #9
10011480:	d804      	bhi.n	1001148c <_vfiprintf_r+0x190>
10011482:	434b      	muls	r3, r1
10011484:	3401      	adds	r4, #1
10011486:	189b      	adds	r3, r3, r2
10011488:	2001      	movs	r0, #1
1001148a:	e7f6      	b.n	1001147a <_vfiprintf_r+0x17e>
1001148c:	2800      	cmp	r0, #0
1001148e:	d100      	bne.n	10011492 <_vfiprintf_r+0x196>
10011490:	e76f      	b.n	10011372 <_vfiprintf_r+0x76>
10011492:	9309      	str	r3, [sp, #36]	; 0x24
10011494:	e76d      	b.n	10011372 <_vfiprintf_r+0x76>
10011496:	7863      	ldrb	r3, [r4, #1]
10011498:	2b2a      	cmp	r3, #42	; 0x2a
1001149a:	d10a      	bne.n	100114b2 <_vfiprintf_r+0x1b6>
1001149c:	9b05      	ldr	r3, [sp, #20]
1001149e:	3402      	adds	r4, #2
100114a0:	1d1a      	adds	r2, r3, #4
100114a2:	681b      	ldr	r3, [r3, #0]
100114a4:	9205      	str	r2, [sp, #20]
100114a6:	2b00      	cmp	r3, #0
100114a8:	da01      	bge.n	100114ae <_vfiprintf_r+0x1b2>
100114aa:	2301      	movs	r3, #1
100114ac:	425b      	negs	r3, r3
100114ae:	9307      	str	r3, [sp, #28]
100114b0:	e763      	b.n	1001137a <_vfiprintf_r+0x7e>
100114b2:	2300      	movs	r3, #0
100114b4:	200a      	movs	r0, #10
100114b6:	001a      	movs	r2, r3
100114b8:	3401      	adds	r4, #1
100114ba:	606b      	str	r3, [r5, #4]
100114bc:	7821      	ldrb	r1, [r4, #0]
100114be:	3930      	subs	r1, #48	; 0x30
100114c0:	2909      	cmp	r1, #9
100114c2:	d804      	bhi.n	100114ce <_vfiprintf_r+0x1d2>
100114c4:	4342      	muls	r2, r0
100114c6:	3401      	adds	r4, #1
100114c8:	1852      	adds	r2, r2, r1
100114ca:	2301      	movs	r3, #1
100114cc:	e7f6      	b.n	100114bc <_vfiprintf_r+0x1c0>
100114ce:	2b00      	cmp	r3, #0
100114d0:	d100      	bne.n	100114d4 <_vfiprintf_r+0x1d8>
100114d2:	e752      	b.n	1001137a <_vfiprintf_r+0x7e>
100114d4:	9207      	str	r2, [sp, #28]
100114d6:	e750      	b.n	1001137a <_vfiprintf_r+0x7e>
100114d8:	ab05      	add	r3, sp, #20
100114da:	9300      	str	r3, [sp, #0]
100114dc:	003a      	movs	r2, r7
100114de:	4b14      	ldr	r3, [pc, #80]	; (10011530 <_vfiprintf_r+0x234>)
100114e0:	0029      	movs	r1, r5
100114e2:	0030      	movs	r0, r6
100114e4:	e000      	b.n	100114e8 <_vfiprintf_r+0x1ec>
100114e6:	bf00      	nop
100114e8:	e007      	b.n	100114fa <_vfiprintf_r+0x1fe>
100114ea:	ab05      	add	r3, sp, #20
100114ec:	9300      	str	r3, [sp, #0]
100114ee:	003a      	movs	r2, r7
100114f0:	4b0f      	ldr	r3, [pc, #60]	; (10011530 <_vfiprintf_r+0x234>)
100114f2:	0029      	movs	r1, r5
100114f4:	0030      	movs	r0, r6
100114f6:	f000 f88b 	bl	10011610 <_printf_i>
100114fa:	9003      	str	r0, [sp, #12]
100114fc:	9b03      	ldr	r3, [sp, #12]
100114fe:	3301      	adds	r3, #1
10011500:	d000      	beq.n	10011504 <_vfiprintf_r+0x208>
10011502:	e75e      	b.n	100113c2 <_vfiprintf_r+0xc6>
10011504:	89bb      	ldrh	r3, [r7, #12]
10011506:	065b      	lsls	r3, r3, #25
10011508:	d500      	bpl.n	1001150c <_vfiprintf_r+0x210>
1001150a:	e726      	b.n	1001135a <_vfiprintf_r+0x5e>
1001150c:	980b      	ldr	r0, [sp, #44]	; 0x2c
1001150e:	b01f      	add	sp, #124	; 0x7c
10011510:	bdf0      	pop	{r4, r5, r6, r7, pc}
10011512:	46c0      	nop			; (mov r8, r8)
10011514:	10011de4 	.word	0x10011de4
10011518:	10011e04 	.word	0x10011e04
1001151c:	10011e24 	.word	0x10011e24
10011520:	10011e4a 	.word	0x10011e4a
10011524:	10011e4e 	.word	0x10011e4e
10011528:	00000000 	.word	0x00000000
1001152c:	10011e44 	.word	0x10011e44
10011530:	100112d7 	.word	0x100112d7

10011534 <_printf_common>:
10011534:	b5f7      	push	{r0, r1, r2, r4, r5, r6, r7, lr}
10011536:	0017      	movs	r7, r2
10011538:	9301      	str	r3, [sp, #4]
1001153a:	688a      	ldr	r2, [r1, #8]
1001153c:	690b      	ldr	r3, [r1, #16]
1001153e:	9000      	str	r0, [sp, #0]
10011540:	000c      	movs	r4, r1
10011542:	4293      	cmp	r3, r2
10011544:	da00      	bge.n	10011548 <_printf_common+0x14>
10011546:	0013      	movs	r3, r2
10011548:	0022      	movs	r2, r4
1001154a:	603b      	str	r3, [r7, #0]
1001154c:	3243      	adds	r2, #67	; 0x43
1001154e:	7812      	ldrb	r2, [r2, #0]
10011550:	2a00      	cmp	r2, #0
10011552:	d001      	beq.n	10011558 <_printf_common+0x24>
10011554:	3301      	adds	r3, #1
10011556:	603b      	str	r3, [r7, #0]
10011558:	6823      	ldr	r3, [r4, #0]
1001155a:	069b      	lsls	r3, r3, #26
1001155c:	d502      	bpl.n	10011564 <_printf_common+0x30>
1001155e:	683b      	ldr	r3, [r7, #0]
10011560:	3302      	adds	r3, #2
10011562:	603b      	str	r3, [r7, #0]
10011564:	2506      	movs	r5, #6
10011566:	6823      	ldr	r3, [r4, #0]
10011568:	401d      	ands	r5, r3
1001156a:	d01e      	beq.n	100115aa <_printf_common+0x76>
1001156c:	0023      	movs	r3, r4
1001156e:	3343      	adds	r3, #67	; 0x43
10011570:	781b      	ldrb	r3, [r3, #0]
10011572:	1e5a      	subs	r2, r3, #1
10011574:	4193      	sbcs	r3, r2
10011576:	6822      	ldr	r2, [r4, #0]
10011578:	0692      	lsls	r2, r2, #26
1001157a:	d51c      	bpl.n	100115b6 <_printf_common+0x82>
1001157c:	2030      	movs	r0, #48	; 0x30
1001157e:	18e1      	adds	r1, r4, r3
10011580:	3143      	adds	r1, #67	; 0x43
10011582:	7008      	strb	r0, [r1, #0]
10011584:	0021      	movs	r1, r4
10011586:	1c5a      	adds	r2, r3, #1
10011588:	3145      	adds	r1, #69	; 0x45
1001158a:	7809      	ldrb	r1, [r1, #0]
1001158c:	18a2      	adds	r2, r4, r2
1001158e:	3243      	adds	r2, #67	; 0x43
10011590:	3302      	adds	r3, #2
10011592:	7011      	strb	r1, [r2, #0]
10011594:	e00f      	b.n	100115b6 <_printf_common+0x82>
10011596:	0022      	movs	r2, r4
10011598:	2301      	movs	r3, #1
1001159a:	3219      	adds	r2, #25
1001159c:	9901      	ldr	r1, [sp, #4]
1001159e:	9800      	ldr	r0, [sp, #0]
100115a0:	9e08      	ldr	r6, [sp, #32]
100115a2:	47b0      	blx	r6
100115a4:	1c43      	adds	r3, r0, #1
100115a6:	d00e      	beq.n	100115c6 <_printf_common+0x92>
100115a8:	3501      	adds	r5, #1
100115aa:	68e3      	ldr	r3, [r4, #12]
100115ac:	683a      	ldr	r2, [r7, #0]
100115ae:	1a9b      	subs	r3, r3, r2
100115b0:	429d      	cmp	r5, r3
100115b2:	dbf0      	blt.n	10011596 <_printf_common+0x62>
100115b4:	e7da      	b.n	1001156c <_printf_common+0x38>
100115b6:	0022      	movs	r2, r4
100115b8:	9901      	ldr	r1, [sp, #4]
100115ba:	3243      	adds	r2, #67	; 0x43
100115bc:	9800      	ldr	r0, [sp, #0]
100115be:	9d08      	ldr	r5, [sp, #32]
100115c0:	47a8      	blx	r5
100115c2:	1c43      	adds	r3, r0, #1
100115c4:	d102      	bne.n	100115cc <_printf_common+0x98>
100115c6:	2001      	movs	r0, #1
100115c8:	4240      	negs	r0, r0
100115ca:	e020      	b.n	1001160e <_printf_common+0xda>
100115cc:	2306      	movs	r3, #6
100115ce:	6820      	ldr	r0, [r4, #0]
100115d0:	68e1      	ldr	r1, [r4, #12]
100115d2:	683a      	ldr	r2, [r7, #0]
100115d4:	4003      	ands	r3, r0
100115d6:	2500      	movs	r5, #0
100115d8:	2b04      	cmp	r3, #4
100115da:	d103      	bne.n	100115e4 <_printf_common+0xb0>
100115dc:	1a8d      	subs	r5, r1, r2
100115de:	43eb      	mvns	r3, r5
100115e0:	17db      	asrs	r3, r3, #31
100115e2:	401d      	ands	r5, r3
100115e4:	68a3      	ldr	r3, [r4, #8]
100115e6:	6922      	ldr	r2, [r4, #16]
100115e8:	4293      	cmp	r3, r2
100115ea:	dd01      	ble.n	100115f0 <_printf_common+0xbc>
100115ec:	1a9b      	subs	r3, r3, r2
100115ee:	18ed      	adds	r5, r5, r3
100115f0:	2700      	movs	r7, #0
100115f2:	42bd      	cmp	r5, r7
100115f4:	d00a      	beq.n	1001160c <_printf_common+0xd8>
100115f6:	0022      	movs	r2, r4
100115f8:	2301      	movs	r3, #1
100115fa:	321a      	adds	r2, #26
100115fc:	9901      	ldr	r1, [sp, #4]
100115fe:	9800      	ldr	r0, [sp, #0]
10011600:	9e08      	ldr	r6, [sp, #32]
10011602:	47b0      	blx	r6
10011604:	1c43      	adds	r3, r0, #1
10011606:	d0de      	beq.n	100115c6 <_printf_common+0x92>
10011608:	3701      	adds	r7, #1
1001160a:	e7f2      	b.n	100115f2 <_printf_common+0xbe>
1001160c:	2000      	movs	r0, #0
1001160e:	bdfe      	pop	{r1, r2, r3, r4, r5, r6, r7, pc}

10011610 <_printf_i>:
10011610:	b5f0      	push	{r4, r5, r6, r7, lr}
10011612:	b08b      	sub	sp, #44	; 0x2c
10011614:	9206      	str	r2, [sp, #24]
10011616:	000a      	movs	r2, r1
10011618:	3243      	adds	r2, #67	; 0x43
1001161a:	9307      	str	r3, [sp, #28]
1001161c:	9005      	str	r0, [sp, #20]
1001161e:	9204      	str	r2, [sp, #16]
10011620:	7e0a      	ldrb	r2, [r1, #24]
10011622:	000c      	movs	r4, r1
10011624:	9b10      	ldr	r3, [sp, #64]	; 0x40
10011626:	2a6e      	cmp	r2, #110	; 0x6e
10011628:	d100      	bne.n	1001162c <_printf_i+0x1c>
1001162a:	e0ab      	b.n	10011784 <_printf_i+0x174>
1001162c:	d811      	bhi.n	10011652 <_printf_i+0x42>
1001162e:	2a63      	cmp	r2, #99	; 0x63
10011630:	d022      	beq.n	10011678 <_printf_i+0x68>
10011632:	d809      	bhi.n	10011648 <_printf_i+0x38>
10011634:	2a00      	cmp	r2, #0
10011636:	d100      	bne.n	1001163a <_printf_i+0x2a>
10011638:	e0b5      	b.n	100117a6 <_printf_i+0x196>
1001163a:	2a58      	cmp	r2, #88	; 0x58
1001163c:	d000      	beq.n	10011640 <_printf_i+0x30>
1001163e:	e0c5      	b.n	100117cc <_printf_i+0x1bc>
10011640:	3145      	adds	r1, #69	; 0x45
10011642:	700a      	strb	r2, [r1, #0]
10011644:	4a81      	ldr	r2, [pc, #516]	; (1001184c <_printf_i+0x23c>)
10011646:	e04f      	b.n	100116e8 <_printf_i+0xd8>
10011648:	2a64      	cmp	r2, #100	; 0x64
1001164a:	d01d      	beq.n	10011688 <_printf_i+0x78>
1001164c:	2a69      	cmp	r2, #105	; 0x69
1001164e:	d01b      	beq.n	10011688 <_printf_i+0x78>
10011650:	e0bc      	b.n	100117cc <_printf_i+0x1bc>
10011652:	2a73      	cmp	r2, #115	; 0x73
10011654:	d100      	bne.n	10011658 <_printf_i+0x48>
10011656:	e0aa      	b.n	100117ae <_printf_i+0x19e>
10011658:	d809      	bhi.n	1001166e <_printf_i+0x5e>
1001165a:	2a6f      	cmp	r2, #111	; 0x6f
1001165c:	d029      	beq.n	100116b2 <_printf_i+0xa2>
1001165e:	2a70      	cmp	r2, #112	; 0x70
10011660:	d000      	beq.n	10011664 <_printf_i+0x54>
10011662:	e0b3      	b.n	100117cc <_printf_i+0x1bc>
10011664:	2220      	movs	r2, #32
10011666:	6809      	ldr	r1, [r1, #0]
10011668:	430a      	orrs	r2, r1
1001166a:	6022      	str	r2, [r4, #0]
1001166c:	e037      	b.n	100116de <_printf_i+0xce>
1001166e:	2a75      	cmp	r2, #117	; 0x75
10011670:	d01f      	beq.n	100116b2 <_printf_i+0xa2>
10011672:	2a78      	cmp	r2, #120	; 0x78
10011674:	d033      	beq.n	100116de <_printf_i+0xce>
10011676:	e0a9      	b.n	100117cc <_printf_i+0x1bc>
10011678:	000e      	movs	r6, r1
1001167a:	681a      	ldr	r2, [r3, #0]
1001167c:	3642      	adds	r6, #66	; 0x42
1001167e:	1d11      	adds	r1, r2, #4
10011680:	6019      	str	r1, [r3, #0]
10011682:	6813      	ldr	r3, [r2, #0]
10011684:	7033      	strb	r3, [r6, #0]
10011686:	e0a4      	b.n	100117d2 <_printf_i+0x1c2>
10011688:	6821      	ldr	r1, [r4, #0]
1001168a:	681a      	ldr	r2, [r3, #0]
1001168c:	0608      	lsls	r0, r1, #24
1001168e:	d406      	bmi.n	1001169e <_printf_i+0x8e>
10011690:	0649      	lsls	r1, r1, #25
10011692:	d504      	bpl.n	1001169e <_printf_i+0x8e>
10011694:	1d11      	adds	r1, r2, #4
10011696:	6019      	str	r1, [r3, #0]
10011698:	2300      	movs	r3, #0
1001169a:	5ed5      	ldrsh	r5, [r2, r3]
1001169c:	e002      	b.n	100116a4 <_printf_i+0x94>
1001169e:	1d11      	adds	r1, r2, #4
100116a0:	6019      	str	r1, [r3, #0]
100116a2:	6815      	ldr	r5, [r2, #0]
100116a4:	2d00      	cmp	r5, #0
100116a6:	da3b      	bge.n	10011720 <_printf_i+0x110>
100116a8:	232d      	movs	r3, #45	; 0x2d
100116aa:	9a04      	ldr	r2, [sp, #16]
100116ac:	426d      	negs	r5, r5
100116ae:	7013      	strb	r3, [r2, #0]
100116b0:	e036      	b.n	10011720 <_printf_i+0x110>
100116b2:	6821      	ldr	r1, [r4, #0]
100116b4:	681a      	ldr	r2, [r3, #0]
100116b6:	0608      	lsls	r0, r1, #24
100116b8:	d406      	bmi.n	100116c8 <_printf_i+0xb8>
100116ba:	0649      	lsls	r1, r1, #25
100116bc:	d504      	bpl.n	100116c8 <_printf_i+0xb8>
100116be:	6815      	ldr	r5, [r2, #0]
100116c0:	1d11      	adds	r1, r2, #4
100116c2:	6019      	str	r1, [r3, #0]
100116c4:	b2ad      	uxth	r5, r5
100116c6:	e002      	b.n	100116ce <_printf_i+0xbe>
100116c8:	1d11      	adds	r1, r2, #4
100116ca:	6019      	str	r1, [r3, #0]
100116cc:	6815      	ldr	r5, [r2, #0]
100116ce:	4b5f      	ldr	r3, [pc, #380]	; (1001184c <_printf_i+0x23c>)
100116d0:	7e22      	ldrb	r2, [r4, #24]
100116d2:	9303      	str	r3, [sp, #12]
100116d4:	2708      	movs	r7, #8
100116d6:	2a6f      	cmp	r2, #111	; 0x6f
100116d8:	d01d      	beq.n	10011716 <_printf_i+0x106>
100116da:	270a      	movs	r7, #10
100116dc:	e01b      	b.n	10011716 <_printf_i+0x106>
100116de:	0022      	movs	r2, r4
100116e0:	2178      	movs	r1, #120	; 0x78
100116e2:	3245      	adds	r2, #69	; 0x45
100116e4:	7011      	strb	r1, [r2, #0]
100116e6:	4a5a      	ldr	r2, [pc, #360]	; (10011850 <_printf_i+0x240>)
100116e8:	6819      	ldr	r1, [r3, #0]
100116ea:	9203      	str	r2, [sp, #12]
100116ec:	1d08      	adds	r0, r1, #4
100116ee:	6822      	ldr	r2, [r4, #0]
100116f0:	6018      	str	r0, [r3, #0]
100116f2:	680d      	ldr	r5, [r1, #0]
100116f4:	0610      	lsls	r0, r2, #24
100116f6:	d402      	bmi.n	100116fe <_printf_i+0xee>
100116f8:	0650      	lsls	r0, r2, #25
100116fa:	d500      	bpl.n	100116fe <_printf_i+0xee>
100116fc:	b2ad      	uxth	r5, r5
100116fe:	07d3      	lsls	r3, r2, #31
10011700:	d502      	bpl.n	10011708 <_printf_i+0xf8>
10011702:	2320      	movs	r3, #32
10011704:	431a      	orrs	r2, r3
10011706:	6022      	str	r2, [r4, #0]
10011708:	2710      	movs	r7, #16
1001170a:	2d00      	cmp	r5, #0
1001170c:	d103      	bne.n	10011716 <_printf_i+0x106>
1001170e:	2320      	movs	r3, #32
10011710:	6822      	ldr	r2, [r4, #0]
10011712:	439a      	bics	r2, r3
10011714:	6022      	str	r2, [r4, #0]
10011716:	0023      	movs	r3, r4
10011718:	2200      	movs	r2, #0
1001171a:	3343      	adds	r3, #67	; 0x43
1001171c:	701a      	strb	r2, [r3, #0]
1001171e:	e002      	b.n	10011726 <_printf_i+0x116>
10011720:	270a      	movs	r7, #10
10011722:	4b4a      	ldr	r3, [pc, #296]	; (1001184c <_printf_i+0x23c>)
10011724:	9303      	str	r3, [sp, #12]
10011726:	6863      	ldr	r3, [r4, #4]
10011728:	60a3      	str	r3, [r4, #8]
1001172a:	2b00      	cmp	r3, #0
1001172c:	db09      	blt.n	10011742 <_printf_i+0x132>
1001172e:	2204      	movs	r2, #4
10011730:	6821      	ldr	r1, [r4, #0]
10011732:	4391      	bics	r1, r2
10011734:	6021      	str	r1, [r4, #0]
10011736:	2d00      	cmp	r5, #0
10011738:	d105      	bne.n	10011746 <_printf_i+0x136>
1001173a:	9e04      	ldr	r6, [sp, #16]
1001173c:	2b00      	cmp	r3, #0
1001173e:	d011      	beq.n	10011764 <_printf_i+0x154>
10011740:	e07b      	b.n	1001183a <_printf_i+0x22a>
10011742:	2d00      	cmp	r5, #0
10011744:	d079      	beq.n	1001183a <_printf_i+0x22a>
10011746:	9e04      	ldr	r6, [sp, #16]
10011748:	0028      	movs	r0, r5
1001174a:	0039      	movs	r1, r7
1001174c:	f7fe f9b4 	bl	1000fab8 <__aeabi_uidivmod>
10011750:	9b03      	ldr	r3, [sp, #12]
10011752:	3e01      	subs	r6, #1
10011754:	5c5b      	ldrb	r3, [r3, r1]
10011756:	0028      	movs	r0, r5
10011758:	7033      	strb	r3, [r6, #0]
1001175a:	0039      	movs	r1, r7
1001175c:	f7fe f926 	bl	1000f9ac <__aeabi_uidiv>
10011760:	1e05      	subs	r5, r0, #0
10011762:	d1f1      	bne.n	10011748 <_printf_i+0x138>
10011764:	2f08      	cmp	r7, #8
10011766:	d109      	bne.n	1001177c <_printf_i+0x16c>
10011768:	6823      	ldr	r3, [r4, #0]
1001176a:	07db      	lsls	r3, r3, #31
1001176c:	d506      	bpl.n	1001177c <_printf_i+0x16c>
1001176e:	6863      	ldr	r3, [r4, #4]
10011770:	6922      	ldr	r2, [r4, #16]
10011772:	4293      	cmp	r3, r2
10011774:	dc02      	bgt.n	1001177c <_printf_i+0x16c>
10011776:	2330      	movs	r3, #48	; 0x30
10011778:	3e01      	subs	r6, #1
1001177a:	7033      	strb	r3, [r6, #0]
1001177c:	9b04      	ldr	r3, [sp, #16]
1001177e:	1b9b      	subs	r3, r3, r6
10011780:	6123      	str	r3, [r4, #16]
10011782:	e02b      	b.n	100117dc <_printf_i+0x1cc>
10011784:	6809      	ldr	r1, [r1, #0]
10011786:	681a      	ldr	r2, [r3, #0]
10011788:	0608      	lsls	r0, r1, #24
1001178a:	d407      	bmi.n	1001179c <_printf_i+0x18c>
1001178c:	0649      	lsls	r1, r1, #25
1001178e:	d505      	bpl.n	1001179c <_printf_i+0x18c>
10011790:	1d11      	adds	r1, r2, #4
10011792:	6019      	str	r1, [r3, #0]
10011794:	6813      	ldr	r3, [r2, #0]
10011796:	8aa2      	ldrh	r2, [r4, #20]
10011798:	801a      	strh	r2, [r3, #0]
1001179a:	e004      	b.n	100117a6 <_printf_i+0x196>
1001179c:	1d11      	adds	r1, r2, #4
1001179e:	6019      	str	r1, [r3, #0]
100117a0:	6813      	ldr	r3, [r2, #0]
100117a2:	6962      	ldr	r2, [r4, #20]
100117a4:	601a      	str	r2, [r3, #0]
100117a6:	2300      	movs	r3, #0
100117a8:	9e04      	ldr	r6, [sp, #16]
100117aa:	6123      	str	r3, [r4, #16]
100117ac:	e016      	b.n	100117dc <_printf_i+0x1cc>
100117ae:	681a      	ldr	r2, [r3, #0]
100117b0:	1d11      	adds	r1, r2, #4
100117b2:	6019      	str	r1, [r3, #0]
100117b4:	6816      	ldr	r6, [r2, #0]
100117b6:	2100      	movs	r1, #0
100117b8:	6862      	ldr	r2, [r4, #4]
100117ba:	0030      	movs	r0, r6
100117bc:	f000 f9c2 	bl	10011b44 <memchr>
100117c0:	2800      	cmp	r0, #0
100117c2:	d001      	beq.n	100117c8 <_printf_i+0x1b8>
100117c4:	1b80      	subs	r0, r0, r6
100117c6:	6060      	str	r0, [r4, #4]
100117c8:	6863      	ldr	r3, [r4, #4]
100117ca:	e003      	b.n	100117d4 <_printf_i+0x1c4>
100117cc:	0026      	movs	r6, r4
100117ce:	3642      	adds	r6, #66	; 0x42
100117d0:	7032      	strb	r2, [r6, #0]
100117d2:	2301      	movs	r3, #1
100117d4:	6123      	str	r3, [r4, #16]
100117d6:	2300      	movs	r3, #0
100117d8:	9a04      	ldr	r2, [sp, #16]
100117da:	7013      	strb	r3, [r2, #0]
100117dc:	9b07      	ldr	r3, [sp, #28]
100117de:	aa09      	add	r2, sp, #36	; 0x24
100117e0:	9300      	str	r3, [sp, #0]
100117e2:	0021      	movs	r1, r4
100117e4:	9b06      	ldr	r3, [sp, #24]
100117e6:	9805      	ldr	r0, [sp, #20]
100117e8:	f7ff fea4 	bl	10011534 <_printf_common>
100117ec:	1c43      	adds	r3, r0, #1
100117ee:	d102      	bne.n	100117f6 <_printf_i+0x1e6>
100117f0:	2001      	movs	r0, #1
100117f2:	4240      	negs	r0, r0
100117f4:	e027      	b.n	10011846 <_printf_i+0x236>
100117f6:	6923      	ldr	r3, [r4, #16]
100117f8:	0032      	movs	r2, r6
100117fa:	9906      	ldr	r1, [sp, #24]
100117fc:	9805      	ldr	r0, [sp, #20]
100117fe:	9d07      	ldr	r5, [sp, #28]
10011800:	47a8      	blx	r5
10011802:	1c43      	adds	r3, r0, #1
10011804:	d0f4      	beq.n	100117f0 <_printf_i+0x1e0>
10011806:	6823      	ldr	r3, [r4, #0]
10011808:	2500      	movs	r5, #0
1001180a:	079b      	lsls	r3, r3, #30
1001180c:	d40f      	bmi.n	1001182e <_printf_i+0x21e>
1001180e:	9b09      	ldr	r3, [sp, #36]	; 0x24
10011810:	68e0      	ldr	r0, [r4, #12]
10011812:	4298      	cmp	r0, r3
10011814:	da17      	bge.n	10011846 <_printf_i+0x236>
10011816:	0018      	movs	r0, r3
10011818:	e015      	b.n	10011846 <_printf_i+0x236>
1001181a:	0022      	movs	r2, r4
1001181c:	2301      	movs	r3, #1
1001181e:	3219      	adds	r2, #25
10011820:	9906      	ldr	r1, [sp, #24]
10011822:	9805      	ldr	r0, [sp, #20]
10011824:	9e07      	ldr	r6, [sp, #28]
10011826:	47b0      	blx	r6
10011828:	1c43      	adds	r3, r0, #1
1001182a:	d0e1      	beq.n	100117f0 <_printf_i+0x1e0>
1001182c:	3501      	adds	r5, #1
1001182e:	68e3      	ldr	r3, [r4, #12]
10011830:	9a09      	ldr	r2, [sp, #36]	; 0x24
10011832:	1a9b      	subs	r3, r3, r2
10011834:	429d      	cmp	r5, r3
10011836:	dbf0      	blt.n	1001181a <_printf_i+0x20a>
10011838:	e7e9      	b.n	1001180e <_printf_i+0x1fe>
1001183a:	0026      	movs	r6, r4
1001183c:	9b03      	ldr	r3, [sp, #12]
1001183e:	3642      	adds	r6, #66	; 0x42
10011840:	781b      	ldrb	r3, [r3, #0]
10011842:	7033      	strb	r3, [r6, #0]
10011844:	e78e      	b.n	10011764 <_printf_i+0x154>
10011846:	b00b      	add	sp, #44	; 0x2c
10011848:	bdf0      	pop	{r4, r5, r6, r7, pc}
1001184a:	46c0      	nop			; (mov r8, r8)
1001184c:	10011e55 	.word	0x10011e55
10011850:	10011e66 	.word	0x10011e66

10011854 <__sread>:
10011854:	b570      	push	{r4, r5, r6, lr}
10011856:	000c      	movs	r4, r1
10011858:	250e      	movs	r5, #14
1001185a:	5f49      	ldrsh	r1, [r1, r5]
1001185c:	f000 f97e 	bl	10011b5c <_read_r>
10011860:	2800      	cmp	r0, #0
10011862:	db03      	blt.n	1001186c <__sread+0x18>
10011864:	6d63      	ldr	r3, [r4, #84]	; 0x54
10011866:	181b      	adds	r3, r3, r0
10011868:	6563      	str	r3, [r4, #84]	; 0x54
1001186a:	e003      	b.n	10011874 <__sread+0x20>
1001186c:	89a2      	ldrh	r2, [r4, #12]
1001186e:	4b02      	ldr	r3, [pc, #8]	; (10011878 <__sread+0x24>)
10011870:	4013      	ands	r3, r2
10011872:	81a3      	strh	r3, [r4, #12]
10011874:	bd70      	pop	{r4, r5, r6, pc}
10011876:	46c0      	nop			; (mov r8, r8)
10011878:	ffffefff 	.word	0xffffefff

1001187c <__swrite>:
1001187c:	b5f8      	push	{r3, r4, r5, r6, r7, lr}
1001187e:	001f      	movs	r7, r3
10011880:	898b      	ldrh	r3, [r1, #12]
10011882:	0005      	movs	r5, r0
10011884:	000c      	movs	r4, r1
10011886:	0016      	movs	r6, r2
10011888:	05db      	lsls	r3, r3, #23
1001188a:	d505      	bpl.n	10011898 <__swrite+0x1c>
1001188c:	230e      	movs	r3, #14
1001188e:	5ec9      	ldrsh	r1, [r1, r3]
10011890:	2200      	movs	r2, #0
10011892:	2302      	movs	r3, #2
10011894:	f000 f942 	bl	10011b1c <_lseek_r>
10011898:	89a2      	ldrh	r2, [r4, #12]
1001189a:	4b05      	ldr	r3, [pc, #20]	; (100118b0 <__swrite+0x34>)
1001189c:	0028      	movs	r0, r5
1001189e:	4013      	ands	r3, r2
100118a0:	81a3      	strh	r3, [r4, #12]
100118a2:	0032      	movs	r2, r6
100118a4:	230e      	movs	r3, #14
100118a6:	5ee1      	ldrsh	r1, [r4, r3]
100118a8:	003b      	movs	r3, r7
100118aa:	f000 f877 	bl	1001199c <_write_r>
100118ae:	bdf8      	pop	{r3, r4, r5, r6, r7, pc}
100118b0:	ffffefff 	.word	0xffffefff

100118b4 <__sseek>:
100118b4:	b570      	push	{r4, r5, r6, lr}
100118b6:	000c      	movs	r4, r1
100118b8:	250e      	movs	r5, #14
100118ba:	5f49      	ldrsh	r1, [r1, r5]
100118bc:	f000 f92e 	bl	10011b1c <_lseek_r>
100118c0:	89a3      	ldrh	r3, [r4, #12]
100118c2:	1c42      	adds	r2, r0, #1
100118c4:	d103      	bne.n	100118ce <__sseek+0x1a>
100118c6:	4a05      	ldr	r2, [pc, #20]	; (100118dc <__sseek+0x28>)
100118c8:	4013      	ands	r3, r2
100118ca:	81a3      	strh	r3, [r4, #12]
100118cc:	e004      	b.n	100118d8 <__sseek+0x24>
100118ce:	2280      	movs	r2, #128	; 0x80
100118d0:	0152      	lsls	r2, r2, #5
100118d2:	4313      	orrs	r3, r2
100118d4:	81a3      	strh	r3, [r4, #12]
100118d6:	6560      	str	r0, [r4, #84]	; 0x54
100118d8:	bd70      	pop	{r4, r5, r6, pc}
100118da:	46c0      	nop			; (mov r8, r8)
100118dc:	ffffefff 	.word	0xffffefff

100118e0 <__sclose>:
100118e0:	b510      	push	{r4, lr}
100118e2:	230e      	movs	r3, #14
100118e4:	5ec9      	ldrsh	r1, [r1, r3]
100118e6:	f000 f8e3 	bl	10011ab0 <_close_r>
100118ea:	bd10      	pop	{r4, pc}

100118ec <__swbuf_r>:
100118ec:	b5f8      	push	{r3, r4, r5, r6, r7, lr}
100118ee:	0005      	movs	r5, r0
100118f0:	000f      	movs	r7, r1
100118f2:	0014      	movs	r4, r2
100118f4:	2800      	cmp	r0, #0
100118f6:	d004      	beq.n	10011902 <__swbuf_r+0x16>
100118f8:	6983      	ldr	r3, [r0, #24]
100118fa:	2b00      	cmp	r3, #0
100118fc:	d101      	bne.n	10011902 <__swbuf_r+0x16>
100118fe:	f7ff fbdd 	bl	100110bc <__sinit>
10011902:	4b23      	ldr	r3, [pc, #140]	; (10011990 <__swbuf_r+0xa4>)
10011904:	429c      	cmp	r4, r3
10011906:	d101      	bne.n	1001190c <__swbuf_r+0x20>
10011908:	686c      	ldr	r4, [r5, #4]
1001190a:	e008      	b.n	1001191e <__swbuf_r+0x32>
1001190c:	4b21      	ldr	r3, [pc, #132]	; (10011994 <__swbuf_r+0xa8>)
1001190e:	429c      	cmp	r4, r3
10011910:	d101      	bne.n	10011916 <__swbuf_r+0x2a>
10011912:	68ac      	ldr	r4, [r5, #8]
10011914:	e003      	b.n	1001191e <__swbuf_r+0x32>
10011916:	4b20      	ldr	r3, [pc, #128]	; (10011998 <__swbuf_r+0xac>)
10011918:	429c      	cmp	r4, r3
1001191a:	d100      	bne.n	1001191e <__swbuf_r+0x32>
1001191c:	68ec      	ldr	r4, [r5, #12]
1001191e:	69a3      	ldr	r3, [r4, #24]
10011920:	60a3      	str	r3, [r4, #8]
10011922:	89a3      	ldrh	r3, [r4, #12]
10011924:	071b      	lsls	r3, r3, #28
10011926:	d50a      	bpl.n	1001193e <__swbuf_r+0x52>
10011928:	6923      	ldr	r3, [r4, #16]
1001192a:	2b00      	cmp	r3, #0
1001192c:	d007      	beq.n	1001193e <__swbuf_r+0x52>
1001192e:	6823      	ldr	r3, [r4, #0]
10011930:	6922      	ldr	r2, [r4, #16]
10011932:	b2fe      	uxtb	r6, r7
10011934:	1a98      	subs	r0, r3, r2
10011936:	6963      	ldr	r3, [r4, #20]
10011938:	4298      	cmp	r0, r3
1001193a:	db0f      	blt.n	1001195c <__swbuf_r+0x70>
1001193c:	e008      	b.n	10011950 <__swbuf_r+0x64>
1001193e:	0021      	movs	r1, r4
10011940:	0028      	movs	r0, r5
10011942:	f000 f83f 	bl	100119c4 <__swsetup_r>
10011946:	2800      	cmp	r0, #0
10011948:	d0f1      	beq.n	1001192e <__swbuf_r+0x42>
1001194a:	2001      	movs	r0, #1
1001194c:	4240      	negs	r0, r0
1001194e:	e01d      	b.n	1001198c <__swbuf_r+0xa0>
10011950:	0021      	movs	r1, r4
10011952:	0028      	movs	r0, r5
10011954:	f7ff fb44 	bl	10010fe0 <_fflush_r>
10011958:	2800      	cmp	r0, #0
1001195a:	d1f6      	bne.n	1001194a <__swbuf_r+0x5e>
1001195c:	68a3      	ldr	r3, [r4, #8]
1001195e:	3001      	adds	r0, #1
10011960:	3b01      	subs	r3, #1
10011962:	60a3      	str	r3, [r4, #8]
10011964:	6823      	ldr	r3, [r4, #0]
10011966:	1c5a      	adds	r2, r3, #1
10011968:	6022      	str	r2, [r4, #0]
1001196a:	701f      	strb	r7, [r3, #0]
1001196c:	6963      	ldr	r3, [r4, #20]
1001196e:	4298      	cmp	r0, r3
10011970:	d005      	beq.n	1001197e <__swbuf_r+0x92>
10011972:	89a3      	ldrh	r3, [r4, #12]
10011974:	0030      	movs	r0, r6
10011976:	07db      	lsls	r3, r3, #31
10011978:	d508      	bpl.n	1001198c <__swbuf_r+0xa0>
1001197a:	2e0a      	cmp	r6, #10
1001197c:	d106      	bne.n	1001198c <__swbuf_r+0xa0>
1001197e:	0021      	movs	r1, r4
10011980:	0028      	movs	r0, r5
10011982:	f7ff fb2d 	bl	10010fe0 <_fflush_r>
10011986:	2800      	cmp	r0, #0
10011988:	d1df      	bne.n	1001194a <__swbuf_r+0x5e>
1001198a:	0030      	movs	r0, r6
1001198c:	bdf8      	pop	{r3, r4, r5, r6, r7, pc}
1001198e:	46c0      	nop			; (mov r8, r8)
10011990:	10011de4 	.word	0x10011de4
10011994:	10011e04 	.word	0x10011e04
10011998:	10011e24 	.word	0x10011e24

1001199c <_write_r>:
1001199c:	b570      	push	{r4, r5, r6, lr}
1001199e:	0005      	movs	r5, r0
100119a0:	0008      	movs	r0, r1
100119a2:	0011      	movs	r1, r2
100119a4:	2200      	movs	r2, #0
100119a6:	4c06      	ldr	r4, [pc, #24]	; (100119c0 <_write_r+0x24>)
100119a8:	6022      	str	r2, [r4, #0]
100119aa:	001a      	movs	r2, r3
100119ac:	f7f9 f898 	bl	1000aae0 <_write>
100119b0:	1c43      	adds	r3, r0, #1
100119b2:	d103      	bne.n	100119bc <_write_r+0x20>
100119b4:	6823      	ldr	r3, [r4, #0]
100119b6:	2b00      	cmp	r3, #0
100119b8:	d000      	beq.n	100119bc <_write_r+0x20>
100119ba:	602b      	str	r3, [r5, #0]
100119bc:	bd70      	pop	{r4, r5, r6, pc}
100119be:	46c0      	nop			; (mov r8, r8)
100119c0:	10014cd0 	.word	0x10014cd0

100119c4 <__swsetup_r>:
100119c4:	4b36      	ldr	r3, [pc, #216]	; (10011aa0 <__swsetup_r+0xdc>)
100119c6:	b570      	push	{r4, r5, r6, lr}
100119c8:	681d      	ldr	r5, [r3, #0]
100119ca:	0006      	movs	r6, r0
100119cc:	000c      	movs	r4, r1
100119ce:	2d00      	cmp	r5, #0
100119d0:	d005      	beq.n	100119de <__swsetup_r+0x1a>
100119d2:	69ab      	ldr	r3, [r5, #24]
100119d4:	2b00      	cmp	r3, #0
100119d6:	d102      	bne.n	100119de <__swsetup_r+0x1a>
100119d8:	0028      	movs	r0, r5
100119da:	f7ff fb6f 	bl	100110bc <__sinit>
100119de:	4b31      	ldr	r3, [pc, #196]	; (10011aa4 <__swsetup_r+0xe0>)
100119e0:	429c      	cmp	r4, r3
100119e2:	d101      	bne.n	100119e8 <__swsetup_r+0x24>
100119e4:	686c      	ldr	r4, [r5, #4]
100119e6:	e008      	b.n	100119fa <__swsetup_r+0x36>
100119e8:	4b2f      	ldr	r3, [pc, #188]	; (10011aa8 <__swsetup_r+0xe4>)
100119ea:	429c      	cmp	r4, r3
100119ec:	d101      	bne.n	100119f2 <__swsetup_r+0x2e>
100119ee:	68ac      	ldr	r4, [r5, #8]
100119f0:	e003      	b.n	100119fa <__swsetup_r+0x36>
100119f2:	4b2e      	ldr	r3, [pc, #184]	; (10011aac <__swsetup_r+0xe8>)
100119f4:	429c      	cmp	r4, r3
100119f6:	d100      	bne.n	100119fa <__swsetup_r+0x36>
100119f8:	68ec      	ldr	r4, [r5, #12]
100119fa:	220c      	movs	r2, #12
100119fc:	5ea3      	ldrsh	r3, [r4, r2]
100119fe:	b29a      	uxth	r2, r3
10011a00:	0711      	lsls	r1, r2, #28
10011a02:	d423      	bmi.n	10011a4c <__swsetup_r+0x88>
10011a04:	06d1      	lsls	r1, r2, #27
10011a06:	d407      	bmi.n	10011a18 <__swsetup_r+0x54>
10011a08:	2209      	movs	r2, #9
10011a0a:	2001      	movs	r0, #1
10011a0c:	6032      	str	r2, [r6, #0]
10011a0e:	3237      	adds	r2, #55	; 0x37
10011a10:	4313      	orrs	r3, r2
10011a12:	81a3      	strh	r3, [r4, #12]
10011a14:	4240      	negs	r0, r0
10011a16:	e042      	b.n	10011a9e <__swsetup_r+0xda>
10011a18:	0753      	lsls	r3, r2, #29
10011a1a:	d513      	bpl.n	10011a44 <__swsetup_r+0x80>
10011a1c:	6b61      	ldr	r1, [r4, #52]	; 0x34
10011a1e:	2900      	cmp	r1, #0
10011a20:	d008      	beq.n	10011a34 <__swsetup_r+0x70>
10011a22:	0023      	movs	r3, r4
10011a24:	3344      	adds	r3, #68	; 0x44
10011a26:	4299      	cmp	r1, r3
10011a28:	d002      	beq.n	10011a30 <__swsetup_r+0x6c>
10011a2a:	0030      	movs	r0, r6
10011a2c:	f7ff f894 	bl	10010b58 <_free_r>
10011a30:	2300      	movs	r3, #0
10011a32:	6363      	str	r3, [r4, #52]	; 0x34
10011a34:	2224      	movs	r2, #36	; 0x24
10011a36:	89a3      	ldrh	r3, [r4, #12]
10011a38:	4393      	bics	r3, r2
10011a3a:	81a3      	strh	r3, [r4, #12]
10011a3c:	2300      	movs	r3, #0
10011a3e:	6063      	str	r3, [r4, #4]
10011a40:	6923      	ldr	r3, [r4, #16]
10011a42:	6023      	str	r3, [r4, #0]
10011a44:	2208      	movs	r2, #8
10011a46:	89a3      	ldrh	r3, [r4, #12]
10011a48:	4313      	orrs	r3, r2
10011a4a:	81a3      	strh	r3, [r4, #12]
10011a4c:	6923      	ldr	r3, [r4, #16]
10011a4e:	2b00      	cmp	r3, #0
10011a50:	d10b      	bne.n	10011a6a <__swsetup_r+0xa6>
10011a52:	23a0      	movs	r3, #160	; 0xa0
10011a54:	89a2      	ldrh	r2, [r4, #12]
10011a56:	009b      	lsls	r3, r3, #2
10011a58:	4013      	ands	r3, r2
10011a5a:	2280      	movs	r2, #128	; 0x80
10011a5c:	0092      	lsls	r2, r2, #2
10011a5e:	4293      	cmp	r3, r2
10011a60:	d003      	beq.n	10011a6a <__swsetup_r+0xa6>
10011a62:	0021      	movs	r1, r4
10011a64:	0030      	movs	r0, r6
10011a66:	f7ff fbe3 	bl	10011230 <__smakebuf_r>
10011a6a:	2301      	movs	r3, #1
10011a6c:	89a2      	ldrh	r2, [r4, #12]
10011a6e:	4013      	ands	r3, r2
10011a70:	d005      	beq.n	10011a7e <__swsetup_r+0xba>
10011a72:	2300      	movs	r3, #0
10011a74:	60a3      	str	r3, [r4, #8]
10011a76:	6963      	ldr	r3, [r4, #20]
10011a78:	425b      	negs	r3, r3
10011a7a:	61a3      	str	r3, [r4, #24]
10011a7c:	e003      	b.n	10011a86 <__swsetup_r+0xc2>
10011a7e:	0792      	lsls	r2, r2, #30
10011a80:	d400      	bmi.n	10011a84 <__swsetup_r+0xc0>
10011a82:	6963      	ldr	r3, [r4, #20]
10011a84:	60a3      	str	r3, [r4, #8]
10011a86:	2000      	movs	r0, #0
10011a88:	6923      	ldr	r3, [r4, #16]
10011a8a:	4283      	cmp	r3, r0
10011a8c:	d107      	bne.n	10011a9e <__swsetup_r+0xda>
10011a8e:	220c      	movs	r2, #12
10011a90:	5ea3      	ldrsh	r3, [r4, r2]
10011a92:	061a      	lsls	r2, r3, #24
10011a94:	d503      	bpl.n	10011a9e <__swsetup_r+0xda>
10011a96:	2240      	movs	r2, #64	; 0x40
10011a98:	4313      	orrs	r3, r2
10011a9a:	81a3      	strh	r3, [r4, #12]
10011a9c:	3801      	subs	r0, #1
10011a9e:	bd70      	pop	{r4, r5, r6, pc}
10011aa0:	10011f00 	.word	0x10011f00
10011aa4:	10011de4 	.word	0x10011de4
10011aa8:	10011e04 	.word	0x10011e04
10011aac:	10011e24 	.word	0x10011e24

10011ab0 <_close_r>:
10011ab0:	2300      	movs	r3, #0
10011ab2:	b570      	push	{r4, r5, r6, lr}
10011ab4:	4c06      	ldr	r4, [pc, #24]	; (10011ad0 <_close_r+0x20>)
10011ab6:	0005      	movs	r5, r0
10011ab8:	0008      	movs	r0, r1
10011aba:	6023      	str	r3, [r4, #0]
10011abc:	f7f9 f83a 	bl	1000ab34 <_close>
10011ac0:	1c43      	adds	r3, r0, #1
10011ac2:	d103      	bne.n	10011acc <_close_r+0x1c>
10011ac4:	6823      	ldr	r3, [r4, #0]
10011ac6:	2b00      	cmp	r3, #0
10011ac8:	d000      	beq.n	10011acc <_close_r+0x1c>
10011aca:	602b      	str	r3, [r5, #0]
10011acc:	bd70      	pop	{r4, r5, r6, pc}
10011ace:	46c0      	nop			; (mov r8, r8)
10011ad0:	10014cd0 	.word	0x10014cd0

10011ad4 <_fstat_r>:
10011ad4:	2300      	movs	r3, #0
10011ad6:	b570      	push	{r4, r5, r6, lr}
10011ad8:	4c06      	ldr	r4, [pc, #24]	; (10011af4 <_fstat_r+0x20>)
10011ada:	0005      	movs	r5, r0
10011adc:	0008      	movs	r0, r1
10011ade:	0011      	movs	r1, r2
10011ae0:	6023      	str	r3, [r4, #0]
10011ae2:	f7f9 f82a 	bl	1000ab3a <_fstat>
10011ae6:	1c43      	adds	r3, r0, #1
10011ae8:	d103      	bne.n	10011af2 <_fstat_r+0x1e>
10011aea:	6823      	ldr	r3, [r4, #0]
10011aec:	2b00      	cmp	r3, #0
10011aee:	d000      	beq.n	10011af2 <_fstat_r+0x1e>
10011af0:	602b      	str	r3, [r5, #0]
10011af2:	bd70      	pop	{r4, r5, r6, pc}
10011af4:	10014cd0 	.word	0x10014cd0

10011af8 <_isatty_r>:
10011af8:	2300      	movs	r3, #0
10011afa:	b570      	push	{r4, r5, r6, lr}
10011afc:	4c06      	ldr	r4, [pc, #24]	; (10011b18 <_isatty_r+0x20>)
10011afe:	0005      	movs	r5, r0
10011b00:	0008      	movs	r0, r1
10011b02:	6023      	str	r3, [r4, #0]
10011b04:	f7f9 f81e 	bl	1000ab44 <_isatty>
10011b08:	1c43      	adds	r3, r0, #1
10011b0a:	d103      	bne.n	10011b14 <_isatty_r+0x1c>
10011b0c:	6823      	ldr	r3, [r4, #0]
10011b0e:	2b00      	cmp	r3, #0
10011b10:	d000      	beq.n	10011b14 <_isatty_r+0x1c>
10011b12:	602b      	str	r3, [r5, #0]
10011b14:	bd70      	pop	{r4, r5, r6, pc}
10011b16:	46c0      	nop			; (mov r8, r8)
10011b18:	10014cd0 	.word	0x10014cd0

10011b1c <_lseek_r>:
10011b1c:	b570      	push	{r4, r5, r6, lr}
10011b1e:	0005      	movs	r5, r0
10011b20:	0008      	movs	r0, r1
10011b22:	0011      	movs	r1, r2
10011b24:	2200      	movs	r2, #0
10011b26:	4c06      	ldr	r4, [pc, #24]	; (10011b40 <_lseek_r+0x24>)
10011b28:	6022      	str	r2, [r4, #0]
10011b2a:	001a      	movs	r2, r3
10011b2c:	f7f9 f80c 	bl	1000ab48 <_lseek>
10011b30:	1c43      	adds	r3, r0, #1
10011b32:	d103      	bne.n	10011b3c <_lseek_r+0x20>
10011b34:	6823      	ldr	r3, [r4, #0]
10011b36:	2b00      	cmp	r3, #0
10011b38:	d000      	beq.n	10011b3c <_lseek_r+0x20>
10011b3a:	602b      	str	r3, [r5, #0]
10011b3c:	bd70      	pop	{r4, r5, r6, pc}
10011b3e:	46c0      	nop			; (mov r8, r8)
10011b40:	10014cd0 	.word	0x10014cd0

10011b44 <memchr>:
10011b44:	b2c9      	uxtb	r1, r1
10011b46:	1882      	adds	r2, r0, r2
10011b48:	4290      	cmp	r0, r2
10011b4a:	d004      	beq.n	10011b56 <memchr+0x12>
10011b4c:	7803      	ldrb	r3, [r0, #0]
10011b4e:	428b      	cmp	r3, r1
10011b50:	d002      	beq.n	10011b58 <memchr+0x14>
10011b52:	3001      	adds	r0, #1
10011b54:	e7f8      	b.n	10011b48 <memchr+0x4>
10011b56:	2000      	movs	r0, #0
10011b58:	4770      	bx	lr
	...

10011b5c <_read_r>:
10011b5c:	b570      	push	{r4, r5, r6, lr}
10011b5e:	0005      	movs	r5, r0
10011b60:	0008      	movs	r0, r1
10011b62:	0011      	movs	r1, r2
10011b64:	2200      	movs	r2, #0
10011b66:	4c06      	ldr	r4, [pc, #24]	; (10011b80 <_read_r+0x24>)
10011b68:	6022      	str	r2, [r4, #0]
10011b6a:	001a      	movs	r2, r3
10011b6c:	f7f8 ff9c 	bl	1000aaa8 <_read>
10011b70:	1c43      	adds	r3, r0, #1
10011b72:	d103      	bne.n	10011b7c <_read_r+0x20>
10011b74:	6823      	ldr	r3, [r4, #0]
10011b76:	2b00      	cmp	r3, #0
10011b78:	d000      	beq.n	10011b7c <_read_r+0x20>
10011b7a:	602b      	str	r3, [r5, #0]
10011b7c:	bd70      	pop	{r4, r5, r6, pc}
10011b7e:	46c0      	nop			; (mov r8, r8)
10011b80:	10014cd0 	.word	0x10014cd0

10011b84 <CSWTCH.45>:
10011b84:	0c080101 736d735b 656c625f 776f705f     ....[sms_ble_pow
10011b94:	645f7265 5d6e776f 630a0d00 203a746e     er_down]...cnt: 
10011ba4:	0d006425 7320400a 69646e65 203a676e     %d...@ sending: 
10011bb4:	30207073 2c782578 20726c20 78257830     sp 0x%x, lr 0x%x
10011bc4:	00000000                                ....

10011bc8 <sms_ble_gap_cb>:
	...
10011bd4:	1000837d 00000000 10008395 10008449     }...........I...
	...
10011bec:	100083c1 100081c9 00000000 00000000     ................
	...

10011c14 <sms_ble_gatt_server_cb>:
10011c14:	100081ed 10008259 00000000 00000000     ....Y...........
	...
10011c3c:	736d735b 7475625f 5f6e6f74 5f307462     [sms_button_bt0_
10011c4c:	005d6e66 736d735b 7475625f 5f6e6f74     fn].[sms_button_
10011c5c:	5f317462 005d6e66                       bt1_fn].

10011c64 <CSWTCH.57>:
10011c64:	0000001a 00006590 018cba80 736d735b     .....e......[sms
10011c74:	6175645f 6d69746c 5f317265 005d6e66     _dualtimer1_fn].
10011c84:	736d735b 6175645f 6d69746c 5f327265     [sms_dualtimer2_
10011c94:	005d6e66 34333231 ab003635 cdabefcd     fn].123456......
10011ca4:	000000ef                                ....

10011ca8 <ble_mgr_gatt_server_handle>:
	...
10011cc0:	1000b0c1 1000b0c9 1000ab61 00000000     ........a.......
10011cd0:	52424153 4d532d65 571c0053 2dbe5a2d     SABRe-SMS..W-Z.-
10011ce0:	00005053                                SP..

10011ce4 <ble_mgr_gap_handle>:
10011ce4:	1000b0c5 1000af51 1000ab4d 1000ab57     ....Q...M...W...
10011cf4:	00000000 1000b359 1000ab6d 1000abd9     ....Y...m.......
10011d04:	1000ac49 1000af91 1000adc9 1000ac61     I...........a...
10011d14:	1000b03d 1000aec1 1000abdd 1000b4c1     =...............
	...

10011d30 <CSWTCH.94>:
10011d30:	01050505 00010501                       ........

10011d38 <CSWTCH.95>:
10011d38:	10013e6c 10013e80 10013bd4 10013ec8     l>...>...;...>..
10011d48:	10013bd0 10013e58 1001440c 20400a0d     .;..X>...D....@ 
10011d58:	6e69616d 7073203a 25783020 6c202c78     main: sp 0x%x, l
10011d68:	78302072 41007825 6c656d74 726f4320     r 0x%x.Atmel Cor
10011d78:	04022e70                                         p.

10011d7a <CSWTCH.45>:
10011d7a:	00100402                                         ...

10011d7d <CSWTCH.47>:
10011d7d:	03010300 03030303 03030303 02020303              ...............

10011d8c <client_conf_uuid>:
10011d8c:	29042902                                         .)

10011d8e <presentation_format_uuid>:
10011d8e:	29012904                                         .)

10011d90 <user_desc_uuid>:
10011d90:	29032901                                         .)

10011d92 <server_conf_uuid>:
10011d92:	29002903                                         .)

10011d94 <extended_props_uuid>:
10011d94:	28022900                                         .)

10011d96 <include_uuid>:
10011d96:	28032802                                         .(

10011d98 <char_uuid>:
10011d98:	00002803 1000fd48 1000fc08 1000fc08     .(..H...........
10011da8:	1000fc06 1000fd20 1000fd20 1000fd12     .... ... .......
10011db8:	1000fc06 1000fd20 1000fd12 1000fd20     .... ....... ...
10011dc8:	1000fc06 1000fd28 1000fd28 1000fd28     ....(...(...(...
10011dd8:	1000ff28 00000043                       (...C...

10011de0 <_global_impure_ptr>:
10011de0:	10011ea0                                ....

10011de4 <__sf_fake_stdin>:
	...

10011e04 <__sf_fake_stdout>:
	...

10011e24 <__sf_fake_stderr>:
	...
10011e44:	2b302d23 6c680020 6665004c 47464567     #-0+ .hlL.efgEFG
10011e54:	32313000 36353433 41393837 45444342     .0123456789ABCDE
10011e64:	31300046 35343332 39383736 64636261     F.0123456789abcd
10011e74:	00006665                                ef..

10011e78 <_init>:
10011e78:	b5f8      	push	{r3, r4, r5, r6, r7, lr}
10011e7a:	46c0      	nop			; (mov r8, r8)
10011e7c:	bcf8      	pop	{r3, r4, r5, r6, r7}
10011e7e:	bc08      	pop	{r3}
10011e80:	469e      	mov	lr, r3
10011e82:	4770      	bx	lr

10011e84 <__init_array_start>:
10011e84:	1000807d 	.word	0x1000807d

10011e88 <_fini>:
10011e88:	b5f8      	push	{r3, r4, r5, r6, r7, lr}
10011e8a:	46c0      	nop			; (mov r8, r8)
10011e8c:	bcf8      	pop	{r3, r4, r5, r6, r7}
10011e8e:	bc08      	pop	{r3}
10011e90:	469e      	mov	lr, r3
10011e92:	4770      	bx	lr

10011e94 <__fini_array_start>:
10011e94:	10008055 	.word	0x10008055
